ARM GAS  C:\cygwin\tmp\ccbfOriw.s 			page 1


   1              		.syntax unified
   2              		.cpu cortex-m4
   3              		.fpu softvfp
   4              		.eabi_attribute 20, 1	@ Tag_ABI_FP_denormal
   5              		.eabi_attribute 21, 1	@ Tag_ABI_FP_exceptions
   6              		.eabi_attribute 23, 3	@ Tag_ABI_FP_number_model
   7              		.eabi_attribute 24, 1	@ Tag_ABI_align8_needed
   8              		.eabi_attribute 25, 1	@ Tag_ABI_align8_preserved
   9              		.eabi_attribute 26, 1	@ Tag_ABI_enum_size
  10              		.eabi_attribute 30, 4	@ Tag_ABI_optimization_goals
  11              		.eabi_attribute 34, 1	@ Tag_CPU_unaligned_access
  12              		.eabi_attribute 18, 4	@ Tag_ABI_PCS_wchar_t
  13              		.file	"mbfuncdisc.c"
  14              	@ GNU C (GNU Tools for ARM Embedded Processors) version 4.9.3 20141119 (release) [ARM/embedded-4_9-
  15              	@	compiled by GNU C version 4.7.4, GMP version 4.3.2, MPFR version 2.4.2, MPC version 0.8.1
  16              	@ GGC heuristics: --param ggc-min-expand=100 --param ggc-min-heapsize=131072
  17              	@ options passed:  -I . -I Inc -I port -I modbus/rtu -I modbus/ascii
  18              	@ -I modbus/include -I ../STM32Cube_FW_F4_V1.4.0/Drivers/CMSIS/Include
  19              	@ -I ../STM32Cube_FW_F4_V1.4.0/Drivers/CMSIS/Device/ST/STM32F4xx/Include
  20              	@ -I ../STM32Cube_FW_F4_V1.4.0/Drivers/STM32F4xx_HAL_Driver/Inc
  21              	@ -I ../STM32Cube_FW_F4_V1.4.0/Drivers/CMSIS/Include -imultilib armv7e-m
  22              	@ -iprefix c:\program files\gcc-arm-none-eabi-4_9-2014\bin\../lib/gcc/arm-none-eabi/4.9.3/
  23              	@ -isysroot c:\program files\gcc-arm-none-eabi-4_9-2014\bin\../arm-none-eabi
  24              	@ -MD out/mbfuncdisc.d -MF out/mbfuncdisc.d -MP -MQ out/mbfuncdisc.o
  25              	@ -D__USES_INITFINI__ -D USE_HAL_DRIVER -D STM32F4XX -D HSE_VALUE=8000000
  26              	@ -D __STARTUP_CLEAR_BSS -D STM32F411RE -D USE_FULL_ASSERT -D __FPU_USED
  27              	@ modbus/functions/mbfuncdisc.c -mcpu=cortex-m4 -mthumb
  28              	@ -auxbase-strip out/mbfuncdisc.o -g -ggdb3 -Os -Os -Wall
  29              	@ -Wstrict-prototypes -Wextra -std=gnu90 -ffunction-sections
  30              	@ -fdata-sections -fverbose-asm
  31              	@ options enabled:  -faggressive-loop-optimizations -fauto-inc-dec
  32              	@ -fbranch-count-reg -fcaller-saves -fcombine-stack-adjustments -fcommon
  33              	@ -fcompare-elim -fcprop-registers -fcrossjumping -fcse-follow-jumps
  34              	@ -fdata-sections -fdefer-pop -fdelete-null-pointer-checks -fdevirtualize
  35              	@ -fdevirtualize-speculatively -fdwarf2-cfi-asm -fearly-inlining
  36              	@ -feliminate-unused-debug-types -fexpensive-optimizations
  37              	@ -fforward-propagate -ffunction-cse -ffunction-sections -fgcse -fgcse-lm
  38              	@ -fgnu-runtime -fgnu-unique -fguess-branch-probability
  39              	@ -fhoist-adjacent-loads -fident -fif-conversion -fif-conversion2
  40              	@ -findirect-inlining -finline -finline-atomics -finline-functions
  41              	@ -finline-functions-called-once -finline-small-functions -fipa-cp
  42              	@ -fipa-profile -fipa-pure-const -fipa-reference -fipa-sra
  43              	@ -fira-hoist-pressure -fira-share-save-slots -fira-share-spill-slots
  44              	@ -fisolate-erroneous-paths-dereference -fivopts -fkeep-static-consts
  45              	@ -fleading-underscore -fmath-errno -fmerge-constants -fmerge-debug-strings
  46              	@ -fomit-frame-pointer -foptimize-sibling-calls -fpartial-inlining
  47              	@ -fpeephole -fpeephole2 -fprefetch-loop-arrays -freg-struct-return
  48              	@ -freorder-blocks -freorder-functions -frerun-cse-after-loop
  49              	@ -fsched-critical-path-heuristic -fsched-dep-count-heuristic
  50              	@ -fsched-group-heuristic -fsched-interblock -fsched-last-insn-heuristic
  51              	@ -fsched-pressure -fsched-rank-heuristic -fsched-spec
  52              	@ -fsched-spec-insn-heuristic -fsched-stalled-insns-dep -fschedule-insns2
  53              	@ -fsection-anchors -fshow-column -fsigned-zeros -fsplit-ivs-in-unroller
  54              	@ -fsplit-wide-types -fstrict-aliasing -fstrict-overflow
  55              	@ -fstrict-volatile-bitfields -fsync-libcalls -fthread-jumps
  56              	@ -ftoplevel-reorder -ftrapping-math -ftree-bit-ccp -ftree-builtin-call-dce
  57              	@ -ftree-ccp -ftree-ch -ftree-coalesce-vars -ftree-copy-prop
ARM GAS  C:\cygwin\tmp\ccbfOriw.s 			page 2


  58              	@ -ftree-copyrename -ftree-cselim -ftree-dce -ftree-dominator-opts
  59              	@ -ftree-dse -ftree-forwprop -ftree-fre -ftree-loop-if-convert
  60              	@ -ftree-loop-im -ftree-loop-ivcanon -ftree-loop-optimize
  61              	@ -ftree-parallelize-loops= -ftree-phiprop -ftree-pre -ftree-pta
  62              	@ -ftree-reassoc -ftree-scev-cprop -ftree-sink -ftree-slsr -ftree-sra
  63              	@ -ftree-switch-conversion -ftree-tail-merge -ftree-ter -ftree-vrp
  64              	@ -funit-at-a-time -fvar-tracking -fvar-tracking-assignments -fverbose-asm
  65              	@ -fzero-initialized-in-bss -mlittle-endian -mlra
  66              	@ -mpic-data-is-text-relative -msched-prolog -mthumb -munaligned-access
  67              	@ -mvectorize-with-neon-quad
  68              	
  69              		.text
  70              	.Ltext0:
  71              		.cfi_sections	.debug_frame
  72              		.section	.text.eMBFuncReadDiscreteInputs,"ax",%progbits
  73              		.align	1
  74              		.global	eMBFuncReadDiscreteInputs
  75              		.thumb
  76              		.thumb_func
  77              		.type	eMBFuncReadDiscreteInputs, %function
  78              	eMBFuncReadDiscreteInputs:
  79              	.LFB0:
  80              		.file 1 "modbus/functions/mbfuncdisc.c"
   1:modbus/functions/mbfuncdisc.c ****  /*
   2:modbus/functions/mbfuncdisc.c ****   * FreeRTOS Modbus Libary: A Modbus serial implementation for FreeRTOS
   3:modbus/functions/mbfuncdisc.c ****   * Copyright (C) 2006 Christian Walter <wolti@sil.at>
   4:modbus/functions/mbfuncdisc.c ****   *
   5:modbus/functions/mbfuncdisc.c ****   * This library is free software; you can redistribute it and/or
   6:modbus/functions/mbfuncdisc.c ****   * modify it under the terms of the GNU Lesser General Public
   7:modbus/functions/mbfuncdisc.c ****   * License as published by the Free Software Foundation; either
   8:modbus/functions/mbfuncdisc.c ****   * version 2.1 of the License, or (at your option) any later version.
   9:modbus/functions/mbfuncdisc.c ****   *
  10:modbus/functions/mbfuncdisc.c ****   * This library is distributed in the hope that it will be useful,
  11:modbus/functions/mbfuncdisc.c ****   * but WITHOUT ANY WARRANTY; without even the implied warranty of
  12:modbus/functions/mbfuncdisc.c ****   * MERCHANTABILITY or FITNESS FOR A PARTICULAR PURPOSE.  See the GNU
  13:modbus/functions/mbfuncdisc.c ****   * Lesser General Public License for more details.
  14:modbus/functions/mbfuncdisc.c ****   *
  15:modbus/functions/mbfuncdisc.c ****   * You should have received a copy of the GNU Lesser General Public
  16:modbus/functions/mbfuncdisc.c ****   * License along with this library; if not, write to the Free Software
  17:modbus/functions/mbfuncdisc.c ****   * Foundation, Inc., 51 Franklin St, Fifth Floor, Boston, MA  02110-1301  USA
  18:modbus/functions/mbfuncdisc.c ****   */
  19:modbus/functions/mbfuncdisc.c **** 
  20:modbus/functions/mbfuncdisc.c **** 
  21:modbus/functions/mbfuncdisc.c **** 
  22:modbus/functions/mbfuncdisc.c **** /* ----------------------- System includes ----------------------------------*/
  23:modbus/functions/mbfuncdisc.c **** #include "stdlib.h"
  24:modbus/functions/mbfuncdisc.c **** #include "string.h"
  25:modbus/functions/mbfuncdisc.c **** 
  26:modbus/functions/mbfuncdisc.c **** /* ----------------------- Platform includes --------------------------------*/
  27:modbus/functions/mbfuncdisc.c **** #include "port.h"
  28:modbus/functions/mbfuncdisc.c **** 
  29:modbus/functions/mbfuncdisc.c **** /* ----------------------- Modbus includes ----------------------------------*/
  30:modbus/functions/mbfuncdisc.c **** #include "mb.h"
  31:modbus/functions/mbfuncdisc.c **** #include "mbframe.h"
  32:modbus/functions/mbfuncdisc.c **** #include "mbproto.h"
  33:modbus/functions/mbfuncdisc.c **** #include "mbconfig.h"
  34:modbus/functions/mbfuncdisc.c **** 
ARM GAS  C:\cygwin\tmp\ccbfOriw.s 			page 3


  35:modbus/functions/mbfuncdisc.c **** /* ----------------------- Defines ------------------------------------------*/
  36:modbus/functions/mbfuncdisc.c **** #define MB_PDU_FUNC_READ_ADDR_OFF           ( MB_PDU_DATA_OFF )
  37:modbus/functions/mbfuncdisc.c **** #define MB_PDU_FUNC_READ_DISCCNT_OFF        ( MB_PDU_DATA_OFF + 2 )
  38:modbus/functions/mbfuncdisc.c **** #define MB_PDU_FUNC_READ_SIZE               ( 4 )
  39:modbus/functions/mbfuncdisc.c **** #define MB_PDU_FUNC_READ_DISCCNT_MAX        ( 0x07D0 )
  40:modbus/functions/mbfuncdisc.c **** 
  41:modbus/functions/mbfuncdisc.c **** /* ----------------------- Static functions ---------------------------------*/
  42:modbus/functions/mbfuncdisc.c **** eMBException    prveMBError2Exception( eMBErrorCode eErrorCode );
  43:modbus/functions/mbfuncdisc.c **** 
  44:modbus/functions/mbfuncdisc.c **** /* ----------------------- Start implementation -----------------------------*/
  45:modbus/functions/mbfuncdisc.c **** 
  46:modbus/functions/mbfuncdisc.c **** #if MB_FUNC_READ_COILS_ENABLED > 0
  47:modbus/functions/mbfuncdisc.c **** 
  48:modbus/functions/mbfuncdisc.c **** eMBException
  49:modbus/functions/mbfuncdisc.c **** eMBFuncReadDiscreteInputs( UCHAR * pucFrame, USHORT * usLen )
  50:modbus/functions/mbfuncdisc.c **** {
  81              		.loc 1 50 0
  82              		.cfi_startproc
  83              		@ args = 0, pretend = 0, frame = 0
  84              		@ frame_needed = 0, uses_anonymous_args = 0
  85              	.LVL0:
  51:modbus/functions/mbfuncdisc.c ****     USHORT          usRegAddress;
  52:modbus/functions/mbfuncdisc.c ****     USHORT          usDiscreteCnt;
  53:modbus/functions/mbfuncdisc.c ****     UCHAR           ucNBytes;
  54:modbus/functions/mbfuncdisc.c ****     UCHAR          *pucFrameCur;
  55:modbus/functions/mbfuncdisc.c **** 
  56:modbus/functions/mbfuncdisc.c ****     eMBException    eStatus = MB_EX_NONE;
  57:modbus/functions/mbfuncdisc.c ****     eMBErrorCode    eRegStatus;
  58:modbus/functions/mbfuncdisc.c **** 
  59:modbus/functions/mbfuncdisc.c ****     if( *usLen == ( MB_PDU_FUNC_READ_SIZE + MB_PDU_SIZE_MIN ) )
  86              		.loc 1 59 0
  87 0000 0B88     		ldrh	r3, [r1]	@ *usLen_5(D), *usLen_5(D)
  88 0002 052B     		cmp	r3, #5	@ *usLen_5(D),
  50:modbus/functions/mbfuncdisc.c ****     USHORT          usRegAddress;
  89              		.loc 1 50 0
  90 0004 70B5     		push	{r4, r5, r6, lr}	@
  91              		.cfi_def_cfa_offset 16
  92              		.cfi_offset 4, -16
  93              		.cfi_offset 5, -12
  94              		.cfi_offset 6, -8
  95              		.cfi_offset 14, -4
  50:modbus/functions/mbfuncdisc.c ****     USHORT          usRegAddress;
  96              		.loc 1 50 0
  97 0006 0C46     		mov	r4, r1	@ usLen, usLen
  98              		.loc 1 59 0
  99 0008 2DD1     		bne	.L7	@,
  60:modbus/functions/mbfuncdisc.c ****     {
  61:modbus/functions/mbfuncdisc.c ****         usRegAddress = ( USHORT )( pucFrame[MB_PDU_FUNC_READ_ADDR_OFF] << 8 );
  62:modbus/functions/mbfuncdisc.c ****         usRegAddress |= ( USHORT )( pucFrame[MB_PDU_FUNC_READ_ADDR_OFF + 1] );
  63:modbus/functions/mbfuncdisc.c ****         usRegAddress++;
  64:modbus/functions/mbfuncdisc.c **** 
  65:modbus/functions/mbfuncdisc.c ****         usDiscreteCnt = ( USHORT )( pucFrame[MB_PDU_FUNC_READ_DISCCNT_OFF] << 8 );
 100              		.loc 1 65 0
 101 000a C578     		ldrb	r5, [r0, #3]	@ zero_extendqisi2	@ MEM[(UCHAR *)pucFrame_7(D) + 3B], MEM[(UCHAR *)pucFrame_7(D
  66:modbus/functions/mbfuncdisc.c ****         usDiscreteCnt |= ( USHORT )( pucFrame[MB_PDU_FUNC_READ_DISCCNT_OFF + 1] );
 102              		.loc 1 66 0
 103 000c 0279     		ldrb	r2, [r0, #4]	@ zero_extendqisi2	@ MEM[(UCHAR *)pucFrame_7(D) + 4B], MEM[(UCHAR *)pucFrame_7(D
ARM GAS  C:\cygwin\tmp\ccbfOriw.s 			page 4


  61:modbus/functions/mbfuncdisc.c ****         usRegAddress |= ( USHORT )( pucFrame[MB_PDU_FUNC_READ_ADDR_OFF + 1] );
 104              		.loc 1 61 0
 105 000e 4178     		ldrb	r1, [r0, #1]	@ zero_extendqisi2	@ D.5100, MEM[(UCHAR *)pucFrame_7(D) + 1B]
 106              	.LVL1:
  62:modbus/functions/mbfuncdisc.c ****         usRegAddress++;
 107              		.loc 1 62 0
 108 0010 8378     		ldrb	r3, [r0, #2]	@ zero_extendqisi2	@ D.5100, MEM[(UCHAR *)pucFrame_7(D) + 2B]
 109              	.LVL2:
 110              		.loc 1 66 0
 111 0012 42EA0522 		orr	r2, r2, r5, lsl #8	@, usDiscreteCnt, MEM[(UCHAR *)pucFrame_7(D) + 4B], MEM[(UCHAR *)pucFrame_7
 112              	.LVL3:
  67:modbus/functions/mbfuncdisc.c **** 
  68:modbus/functions/mbfuncdisc.c ****         /* Check if the number of registers to read is valid. If not
  69:modbus/functions/mbfuncdisc.c ****          * return Modbus illegal data value exception. 
  70:modbus/functions/mbfuncdisc.c ****          */
  71:modbus/functions/mbfuncdisc.c ****         if( ( usDiscreteCnt >= 1 ) &&
 113              		.loc 1 71 0
 114 0016 551E     		subs	r5, r2, #1	@ tmp150, usDiscreteCnt,
 115 0018 ADB2     		uxth	r5, r5	@ tmp151, tmp150
 116 001a 40F2CE76 		movw	r6, #1998	@ tmp152,
 117 001e B542     		cmp	r5, r6	@ tmp151, tmp152
 118 0020 21D8     		bhi	.L7	@,
 119              	.LVL4:
  72:modbus/functions/mbfuncdisc.c ****             ( usDiscreteCnt < MB_PDU_FUNC_READ_DISCCNT_MAX ) )
  73:modbus/functions/mbfuncdisc.c ****         {
  74:modbus/functions/mbfuncdisc.c ****             /* Set the current PDU data pointer to the beginning. */
  75:modbus/functions/mbfuncdisc.c ****             pucFrameCur = &pucFrame[MB_PDU_FUNC_OFF];
  76:modbus/functions/mbfuncdisc.c ****             *usLen = MB_PDU_FUNC_OFF;
 120              		.loc 1 76 0
 121 0022 0025     		movs	r5, #0	@ tmp154,
 122 0024 2580     		strh	r5, [r4]	@ movhi	@ tmp154, *usLen_5(D)
 123              	.LVL5:
  77:modbus/functions/mbfuncdisc.c **** 
  78:modbus/functions/mbfuncdisc.c ****             /* First byte contains the function code. */
  79:modbus/functions/mbfuncdisc.c ****             *pucFrameCur++ = MB_FUNC_READ_DISCRETE_INPUTS;
 124              		.loc 1 79 0
 125 0026 0225     		movs	r5, #2	@ tmp155,
 126 0028 0570     		strb	r5, [r0]	@ tmp155, *pucFrame_7(D)
  80:modbus/functions/mbfuncdisc.c ****             *usLen += 1;
 127              		.loc 1 80 0
 128 002a 2588     		ldrh	r5, [r4]	@, *usLen_5(D)
 129 002c 0135     		adds	r5, r5, #1	@ tmp158, *usLen_5(D),
 130 002e 2580     		strh	r5, [r4]	@ movhi	@ tmp158, *usLen_5(D)
  81:modbus/functions/mbfuncdisc.c **** 
  82:modbus/functions/mbfuncdisc.c ****             /* Test if the quantity of coils is a multiple of 8. If not last
  83:modbus/functions/mbfuncdisc.c ****              * byte is only partially field with unused coils set to zero. */
  84:modbus/functions/mbfuncdisc.c ****             if( ( usDiscreteCnt & 0x0007 ) != 0 )
 131              		.loc 1 84 0
 132 0030 12F0070F 		tst	r2, #7	@ usDiscreteCnt,
 133 0034 4FEAD205 		lsr	r5, r2, #3	@ tmp186, usDiscreteCnt,
  85:modbus/functions/mbfuncdisc.c ****             {
  86:modbus/functions/mbfuncdisc.c ****                 ucNBytes = ( UCHAR ) ( usDiscreteCnt / 8 + 1 );
 134              		.loc 1 86 0
 135 0038 18BF     		it	ne
 136 003a 0135     		addne	r5, r5, #1	@ tmp165, tmp186,
  87:modbus/functions/mbfuncdisc.c ****             }
  88:modbus/functions/mbfuncdisc.c ****             else
ARM GAS  C:\cygwin\tmp\ccbfOriw.s 			page 5


  89:modbus/functions/mbfuncdisc.c ****             {
  90:modbus/functions/mbfuncdisc.c ****                 ucNBytes = ( UCHAR ) ( usDiscreteCnt / 8 );
 137              		.loc 1 90 0
 138 003c EDB2     		uxtb	r5, r5	@ ucNBytes, tmp186
 139              	.LVL6:
  91:modbus/functions/mbfuncdisc.c ****             }
  92:modbus/functions/mbfuncdisc.c ****             *pucFrameCur++ = ucNBytes;
 140              		.loc 1 92 0
 141 003e 4570     		strb	r5, [r0, #1]	@ ucNBytes, MEM[(UCHAR *)pucFrame_7(D) + 1B]
  93:modbus/functions/mbfuncdisc.c ****             *usLen += 1;
 142              		.loc 1 93 0
 143 0040 2688     		ldrh	r6, [r4]	@, *usLen_5(D)
  62:modbus/functions/mbfuncdisc.c ****         usRegAddress++;
 144              		.loc 1 62 0
 145 0042 43EA0121 		orr	r1, r3, r1, lsl #8	@, usRegAddress, D.5100, D.5100,
 146              	.LVL7:
 147              		.loc 1 93 0
 148 0046 0136     		adds	r6, r6, #1	@ tmp170, *usLen_5(D),
  63:modbus/functions/mbfuncdisc.c **** 
 149              		.loc 1 63 0
 150 0048 0131     		adds	r1, r1, #1	@ tmp177, usRegAddress,
 151              		.loc 1 93 0
 152 004a 2680     		strh	r6, [r4]	@ movhi	@ tmp170, *usLen_5(D)
  94:modbus/functions/mbfuncdisc.c **** 
  95:modbus/functions/mbfuncdisc.c ****             eRegStatus =
 153              		.loc 1 95 0
 154 004c 0230     		adds	r0, r0, #2	@, pucFrame,
 155              	.LVL8:
 156 004e 89B2     		uxth	r1, r1	@, tmp177
 157 0050 FFF7FEFF 		bl	eMBRegDiscreteCB	@
 158              	.LVL9:
  96:modbus/functions/mbfuncdisc.c ****                 eMBRegDiscreteCB( pucFrameCur, usRegAddress, usDiscreteCnt );
  97:modbus/functions/mbfuncdisc.c **** 
  98:modbus/functions/mbfuncdisc.c ****             /* If an error occured convert it into a Modbus exception. */
  99:modbus/functions/mbfuncdisc.c ****             if( eRegStatus != MB_ENOERR )
 159              		.loc 1 99 0
 160 0054 18B1     		cbz	r0, .L5	@,
 100:modbus/functions/mbfuncdisc.c ****             {
 101:modbus/functions/mbfuncdisc.c ****                 eStatus = prveMBError2Exception( eRegStatus );
 102:modbus/functions/mbfuncdisc.c ****             }
 103:modbus/functions/mbfuncdisc.c ****             else
 104:modbus/functions/mbfuncdisc.c ****             {
 105:modbus/functions/mbfuncdisc.c ****                 /* The response contains the function code, the starting address
 106:modbus/functions/mbfuncdisc.c ****                  * and the quantity of registers. We reuse the old values in the 
 107:modbus/functions/mbfuncdisc.c ****                  * buffer because they are still valid. */
 108:modbus/functions/mbfuncdisc.c ****                 *usLen += ucNBytes;;
 109:modbus/functions/mbfuncdisc.c ****             }
 110:modbus/functions/mbfuncdisc.c ****         }
 111:modbus/functions/mbfuncdisc.c ****         else
 112:modbus/functions/mbfuncdisc.c ****         {
 113:modbus/functions/mbfuncdisc.c ****             eStatus = MB_EX_ILLEGAL_DATA_VALUE;
 114:modbus/functions/mbfuncdisc.c ****         }
 115:modbus/functions/mbfuncdisc.c ****     }
 116:modbus/functions/mbfuncdisc.c ****     else
 117:modbus/functions/mbfuncdisc.c ****     {
 118:modbus/functions/mbfuncdisc.c ****         /* Can't be a valid read coil register request because the length
 119:modbus/functions/mbfuncdisc.c ****          * is incorrect. */
ARM GAS  C:\cygwin\tmp\ccbfOriw.s 			page 6


 120:modbus/functions/mbfuncdisc.c ****         eStatus = MB_EX_ILLEGAL_DATA_VALUE;
 121:modbus/functions/mbfuncdisc.c ****     }
 122:modbus/functions/mbfuncdisc.c ****     return eStatus;
 123:modbus/functions/mbfuncdisc.c **** }
 161              		.loc 1 123 0
 162 0056 BDE87040 		pop	{r4, r5, r6, lr}	@
 163              		.cfi_remember_state
 164              		.cfi_restore 14
 165              		.cfi_restore 6
 166              		.cfi_restore 5
 167              		.cfi_restore 4
 168              		.cfi_def_cfa_offset 0
 169              	.LVL10:
 101:modbus/functions/mbfuncdisc.c ****             }
 170              		.loc 1 101 0
 171 005a FFF7FEBF 		b	prveMBError2Exception	@
 172              	.LVL11:
 173              	.L5:
 174              		.cfi_restore_state
 108:modbus/functions/mbfuncdisc.c ****             }
 175              		.loc 1 108 0
 176 005e 2288     		ldrh	r2, [r4]	@, *usLen_5(D)
 177 0060 1544     		add	r5, r5, r2	@ tmp183, *usLen_5(D)
 178              	.LVL12:
 179 0062 2580     		strh	r5, [r4]	@ movhi	@ tmp183, *usLen_5(D)
 180 0064 70BD     		pop	{r4, r5, r6, pc}	@
 181              	.LVL13:
 182              	.L7:
 120:modbus/functions/mbfuncdisc.c ****     }
 183              		.loc 1 120 0
 184 0066 0320     		movs	r0, #3	@ eStatus,
 185              	.LVL14:
 186              		.loc 1 123 0
 187 0068 70BD     		pop	{r4, r5, r6, pc}	@
 188              		.cfi_endproc
 189              	.LFE0:
 190              		.size	eMBFuncReadDiscreteInputs, .-eMBFuncReadDiscreteInputs
 191              		.text
 192              	.Letext0:
 193              		.file 2 "c:\\program files\\gcc-arm-none-eabi-4_9-2014\\arm-none-eabi\\include\\machine\\_default_
 194              		.file 3 "c:\\program files\\gcc-arm-none-eabi-4_9-2014\\arm-none-eabi\\include\\stdint.h"
 195              		.file 4 "port/port.h"
 196              		.file 5 "modbus/include/mbproto.h"
 197              		.file 6 "modbus/include/mb.h"