ARM GAS  C:\cygwin\tmp\ccjLQabW.s 			page 1


   1              		.syntax unified
   2              		.cpu cortex-m4
   3              		.fpu softvfp
   4              		.eabi_attribute 20, 1	@ Tag_ABI_FP_denormal
   5              		.eabi_attribute 21, 1	@ Tag_ABI_FP_exceptions
   6              		.eabi_attribute 23, 3	@ Tag_ABI_FP_number_model
   7              		.eabi_attribute 24, 1	@ Tag_ABI_align8_needed
   8              		.eabi_attribute 25, 1	@ Tag_ABI_align8_preserved
   9              		.eabi_attribute 26, 1	@ Tag_ABI_enum_size
  10              		.eabi_attribute 30, 4	@ Tag_ABI_optimization_goals
  11              		.eabi_attribute 34, 1	@ Tag_CPU_unaligned_access
  12              		.eabi_attribute 18, 4	@ Tag_ABI_PCS_wchar_t
  13              		.file	"mbfuncholding.c"
  14              	@ GNU C (GNU Tools for ARM Embedded Processors) version 4.9.3 20141119 (release) [ARM/embedded-4_9-
  15              	@	compiled by GNU C version 4.7.4, GMP version 4.3.2, MPFR version 2.4.2, MPC version 0.8.1
  16              	@ GGC heuristics: --param ggc-min-expand=100 --param ggc-min-heapsize=131072
  17              	@ options passed:  -I . -I Inc -I port -I modbus/rtu -I modbus/ascii
  18              	@ -I modbus/include -I ../STM32Cube_FW_F4_V1.4.0/Drivers/CMSIS/Include
  19              	@ -I ../STM32Cube_FW_F4_V1.4.0/Drivers/CMSIS/Device/ST/STM32F4xx/Include
  20              	@ -I ../STM32Cube_FW_F4_V1.4.0/Drivers/STM32F4xx_HAL_Driver/Inc
  21              	@ -I ../STM32Cube_FW_F4_V1.4.0/Drivers/CMSIS/Include -imultilib armv7e-m
  22              	@ -iprefix c:\program files\gcc-arm-none-eabi-4_9-2014\bin\../lib/gcc/arm-none-eabi/4.9.3/
  23              	@ -isysroot c:\program files\gcc-arm-none-eabi-4_9-2014\bin\../arm-none-eabi
  24              	@ -MD out/mbfuncholding.d -MF out/mbfuncholding.d -MP
  25              	@ -MQ out/mbfuncholding.o -D__USES_INITFINI__ -D USE_HAL_DRIVER
  26              	@ -D STM32F4XX -D HSE_VALUE=8000000 -D __STARTUP_CLEAR_BSS -D STM32F411RE
  27              	@ -D USE_FULL_ASSERT -D __FPU_USED modbus/functions/mbfuncholding.c
  28              	@ -mcpu=cortex-m4 -mthumb -auxbase-strip out/mbfuncholding.o -g -ggdb3 -Os
  29              	@ -Os -Wall -Wstrict-prototypes -Wextra -std=gnu90 -ffunction-sections
  30              	@ -fdata-sections -fverbose-asm
  31              	@ options enabled:  -faggressive-loop-optimizations -fauto-inc-dec
  32              	@ -fbranch-count-reg -fcaller-saves -fcombine-stack-adjustments -fcommon
  33              	@ -fcompare-elim -fcprop-registers -fcrossjumping -fcse-follow-jumps
  34              	@ -fdata-sections -fdefer-pop -fdelete-null-pointer-checks -fdevirtualize
  35              	@ -fdevirtualize-speculatively -fdwarf2-cfi-asm -fearly-inlining
  36              	@ -feliminate-unused-debug-types -fexpensive-optimizations
  37              	@ -fforward-propagate -ffunction-cse -ffunction-sections -fgcse -fgcse-lm
  38              	@ -fgnu-runtime -fgnu-unique -fguess-branch-probability
  39              	@ -fhoist-adjacent-loads -fident -fif-conversion -fif-conversion2
  40              	@ -findirect-inlining -finline -finline-atomics -finline-functions
  41              	@ -finline-functions-called-once -finline-small-functions -fipa-cp
  42              	@ -fipa-profile -fipa-pure-const -fipa-reference -fipa-sra
  43              	@ -fira-hoist-pressure -fira-share-save-slots -fira-share-spill-slots
  44              	@ -fisolate-erroneous-paths-dereference -fivopts -fkeep-static-consts
  45              	@ -fleading-underscore -fmath-errno -fmerge-constants -fmerge-debug-strings
  46              	@ -fomit-frame-pointer -foptimize-sibling-calls -fpartial-inlining
  47              	@ -fpeephole -fpeephole2 -fprefetch-loop-arrays -freg-struct-return
  48              	@ -freorder-blocks -freorder-functions -frerun-cse-after-loop
  49              	@ -fsched-critical-path-heuristic -fsched-dep-count-heuristic
  50              	@ -fsched-group-heuristic -fsched-interblock -fsched-last-insn-heuristic
  51              	@ -fsched-pressure -fsched-rank-heuristic -fsched-spec
  52              	@ -fsched-spec-insn-heuristic -fsched-stalled-insns-dep -fschedule-insns2
  53              	@ -fsection-anchors -fshow-column -fsigned-zeros -fsplit-ivs-in-unroller
  54              	@ -fsplit-wide-types -fstrict-aliasing -fstrict-overflow
  55              	@ -fstrict-volatile-bitfields -fsync-libcalls -fthread-jumps
  56              	@ -ftoplevel-reorder -ftrapping-math -ftree-bit-ccp -ftree-builtin-call-dce
  57              	@ -ftree-ccp -ftree-ch -ftree-coalesce-vars -ftree-copy-prop
ARM GAS  C:\cygwin\tmp\ccjLQabW.s 			page 2


  58              	@ -ftree-copyrename -ftree-cselim -ftree-dce -ftree-dominator-opts
  59              	@ -ftree-dse -ftree-forwprop -ftree-fre -ftree-loop-if-convert
  60              	@ -ftree-loop-im -ftree-loop-ivcanon -ftree-loop-optimize
  61              	@ -ftree-parallelize-loops= -ftree-phiprop -ftree-pre -ftree-pta
  62              	@ -ftree-reassoc -ftree-scev-cprop -ftree-sink -ftree-slsr -ftree-sra
  63              	@ -ftree-switch-conversion -ftree-tail-merge -ftree-ter -ftree-vrp
  64              	@ -funit-at-a-time -fvar-tracking -fvar-tracking-assignments -fverbose-asm
  65              	@ -fzero-initialized-in-bss -mlittle-endian -mlra
  66              	@ -mpic-data-is-text-relative -msched-prolog -mthumb -munaligned-access
  67              	@ -mvectorize-with-neon-quad
  68              	
  69              		.text
  70              	.Ltext0:
  71              		.cfi_sections	.debug_frame
  72              		.section	.text.eMBFuncWriteHoldingRegister,"ax",%progbits
  73              		.align	1
  74              		.global	eMBFuncWriteHoldingRegister
  75              		.thumb
  76              		.thumb_func
  77              		.type	eMBFuncWriteHoldingRegister, %function
  78              	eMBFuncWriteHoldingRegister:
  79              	.LFB0:
  80              		.file 1 "modbus/functions/mbfuncholding.c"
   1:modbus/functions/mbfuncholding.c **** /* 
   2:modbus/functions/mbfuncholding.c ****  * FreeModbus Libary: A portable Modbus implementation for Modbus ASCII/RTU.
   3:modbus/functions/mbfuncholding.c ****  * Copyright (c) 2006 Christian Walter <wolti@sil.at>
   4:modbus/functions/mbfuncholding.c ****  * All rights reserved.
   5:modbus/functions/mbfuncholding.c ****  *
   6:modbus/functions/mbfuncholding.c ****  * Redistribution and use in source and binary forms, with or without
   7:modbus/functions/mbfuncholding.c ****  * modification, are permitted provided that the following conditions
   8:modbus/functions/mbfuncholding.c ****  * are met:
   9:modbus/functions/mbfuncholding.c ****  * 1. Redistributions of source code must retain the above copyright
  10:modbus/functions/mbfuncholding.c ****  *    notice, this list of conditions and the following disclaimer.
  11:modbus/functions/mbfuncholding.c ****  * 2. Redistributions in binary form must reproduce the above copyright
  12:modbus/functions/mbfuncholding.c ****  *    notice, this list of conditions and the following disclaimer in the
  13:modbus/functions/mbfuncholding.c ****  *    documentation and/or other materials provided with the distribution.
  14:modbus/functions/mbfuncholding.c ****  * 3. The name of the author may not be used to endorse or promote products
  15:modbus/functions/mbfuncholding.c ****  *    derived from this software without specific prior written permission.
  16:modbus/functions/mbfuncholding.c ****  *
  17:modbus/functions/mbfuncholding.c ****  * THIS SOFTWARE IS PROVIDED BY THE AUTHOR ``AS IS'' AND ANY EXPRESS OR
  18:modbus/functions/mbfuncholding.c ****  * IMPLIED WARRANTIES, INCLUDING, BUT NOT LIMITED TO, THE IMPLIED WARRANTIES
  19:modbus/functions/mbfuncholding.c ****  * OF MERCHANTABILITY AND FITNESS FOR A PARTICULAR PURPOSE ARE DISCLAIMED.
  20:modbus/functions/mbfuncholding.c ****  * IN NO EVENT SHALL THE AUTHOR BE LIABLE FOR ANY DIRECT, INDIRECT,
  21:modbus/functions/mbfuncholding.c ****  * INCIDENTAL, SPECIAL, EXEMPLARY, OR CONSEQUENTIAL DAMAGES (INCLUDING, BUT
  22:modbus/functions/mbfuncholding.c ****  * NOT LIMITED TO, PROCUREMENT OF SUBSTITUTE GOODS OR SERVICES; LOSS OF USE,
  23:modbus/functions/mbfuncholding.c ****  * DATA, OR PROFITS; OR BUSINESS INTERRUPTION) HOWEVER CAUSED AND ON ANY
  24:modbus/functions/mbfuncholding.c ****  * THEORY OF LIABILITY, WHETHER IN CONTRACT, STRICT LIABILITY, OR TORT
  25:modbus/functions/mbfuncholding.c ****  * (INCLUDING NEGLIGENCE OR OTHERWISE) ARISING IN ANY WAY OUT OF THE USE OF
  26:modbus/functions/mbfuncholding.c ****  * THIS SOFTWARE, EVEN IF ADVISED OF THE POSSIBILITY OF SUCH DAMAGE.
  27:modbus/functions/mbfuncholding.c ****  *
  28:modbus/functions/mbfuncholding.c ****  * File: $Id: mbfuncholding.c,v 1.12 2007/02/18 23:48:22 wolti Exp $
  29:modbus/functions/mbfuncholding.c ****  */
  30:modbus/functions/mbfuncholding.c **** 
  31:modbus/functions/mbfuncholding.c **** /* ----------------------- System includes ----------------------------------*/
  32:modbus/functions/mbfuncholding.c **** #include "stdlib.h"
  33:modbus/functions/mbfuncholding.c **** #include "string.h"
  34:modbus/functions/mbfuncholding.c **** 
ARM GAS  C:\cygwin\tmp\ccjLQabW.s 			page 3


  35:modbus/functions/mbfuncholding.c **** /* ----------------------- Platform includes --------------------------------*/
  36:modbus/functions/mbfuncholding.c **** #include "port.h"
  37:modbus/functions/mbfuncholding.c **** 
  38:modbus/functions/mbfuncholding.c **** /* ----------------------- Modbus includes ----------------------------------*/
  39:modbus/functions/mbfuncholding.c **** #include "mb.h"
  40:modbus/functions/mbfuncholding.c **** #include "mbframe.h"
  41:modbus/functions/mbfuncholding.c **** #include "mbproto.h"
  42:modbus/functions/mbfuncholding.c **** #include "mbconfig.h"
  43:modbus/functions/mbfuncholding.c **** 
  44:modbus/functions/mbfuncholding.c **** /* ----------------------- Defines ------------------------------------------*/
  45:modbus/functions/mbfuncholding.c **** #define MB_PDU_FUNC_READ_ADDR_OFF               ( MB_PDU_DATA_OFF + 0)
  46:modbus/functions/mbfuncholding.c **** #define MB_PDU_FUNC_READ_REGCNT_OFF             ( MB_PDU_DATA_OFF + 2 )
  47:modbus/functions/mbfuncholding.c **** #define MB_PDU_FUNC_READ_SIZE                   ( 4 )
  48:modbus/functions/mbfuncholding.c **** #define MB_PDU_FUNC_READ_REGCNT_MAX             ( 0x007D )
  49:modbus/functions/mbfuncholding.c **** 
  50:modbus/functions/mbfuncholding.c **** #define MB_PDU_FUNC_WRITE_ADDR_OFF              ( MB_PDU_DATA_OFF + 0)
  51:modbus/functions/mbfuncholding.c **** #define MB_PDU_FUNC_WRITE_VALUE_OFF             ( MB_PDU_DATA_OFF + 2 )
  52:modbus/functions/mbfuncholding.c **** #define MB_PDU_FUNC_WRITE_SIZE                  ( 4 )
  53:modbus/functions/mbfuncholding.c **** 
  54:modbus/functions/mbfuncholding.c **** #define MB_PDU_FUNC_WRITE_MUL_ADDR_OFF          ( MB_PDU_DATA_OFF + 0 )
  55:modbus/functions/mbfuncholding.c **** #define MB_PDU_FUNC_WRITE_MUL_REGCNT_OFF        ( MB_PDU_DATA_OFF + 2 )
  56:modbus/functions/mbfuncholding.c **** #define MB_PDU_FUNC_WRITE_MUL_BYTECNT_OFF       ( MB_PDU_DATA_OFF + 4 )
  57:modbus/functions/mbfuncholding.c **** #define MB_PDU_FUNC_WRITE_MUL_VALUES_OFF        ( MB_PDU_DATA_OFF + 5 )
  58:modbus/functions/mbfuncholding.c **** #define MB_PDU_FUNC_WRITE_MUL_SIZE_MIN          ( 5 )
  59:modbus/functions/mbfuncholding.c **** #define MB_PDU_FUNC_WRITE_MUL_REGCNT_MAX        ( 0x0078 )
  60:modbus/functions/mbfuncholding.c **** 
  61:modbus/functions/mbfuncholding.c **** #define MB_PDU_FUNC_READWRITE_READ_ADDR_OFF     ( MB_PDU_DATA_OFF + 0 )
  62:modbus/functions/mbfuncholding.c **** #define MB_PDU_FUNC_READWRITE_READ_REGCNT_OFF   ( MB_PDU_DATA_OFF + 2 )
  63:modbus/functions/mbfuncholding.c **** #define MB_PDU_FUNC_READWRITE_WRITE_ADDR_OFF    ( MB_PDU_DATA_OFF + 4 )
  64:modbus/functions/mbfuncholding.c **** #define MB_PDU_FUNC_READWRITE_WRITE_REGCNT_OFF  ( MB_PDU_DATA_OFF + 6 )
  65:modbus/functions/mbfuncholding.c **** #define MB_PDU_FUNC_READWRITE_BYTECNT_OFF       ( MB_PDU_DATA_OFF + 8 )
  66:modbus/functions/mbfuncholding.c **** #define MB_PDU_FUNC_READWRITE_WRITE_VALUES_OFF  ( MB_PDU_DATA_OFF + 9 )
  67:modbus/functions/mbfuncholding.c **** #define MB_PDU_FUNC_READWRITE_SIZE_MIN          ( 9 )
  68:modbus/functions/mbfuncholding.c **** 
  69:modbus/functions/mbfuncholding.c **** /* ----------------------- Static functions ---------------------------------*/
  70:modbus/functions/mbfuncholding.c **** eMBException    prveMBError2Exception( eMBErrorCode eErrorCode );
  71:modbus/functions/mbfuncholding.c **** 
  72:modbus/functions/mbfuncholding.c **** /* ----------------------- Start implementation -----------------------------*/
  73:modbus/functions/mbfuncholding.c **** 
  74:modbus/functions/mbfuncholding.c **** #if MB_FUNC_WRITE_HOLDING_ENABLED > 0
  75:modbus/functions/mbfuncholding.c **** 
  76:modbus/functions/mbfuncholding.c **** eMBException
  77:modbus/functions/mbfuncholding.c **** eMBFuncWriteHoldingRegister( UCHAR * pucFrame, USHORT * usLen )
  78:modbus/functions/mbfuncholding.c **** {
  81              		.loc 1 78 0
  82              		.cfi_startproc
  83              		@ args = 0, pretend = 0, frame = 0
  84              		@ frame_needed = 0, uses_anonymous_args = 0
  85              	.LVL0:
  86 0000 08B5     		push	{r3, lr}	@
  87              		.cfi_def_cfa_offset 8
  88              		.cfi_offset 3, -8
  89              		.cfi_offset 14, -4
  79:modbus/functions/mbfuncholding.c ****     USHORT          usRegAddress;
  80:modbus/functions/mbfuncholding.c ****     eMBException    eStatus = MB_EX_NONE;
  81:modbus/functions/mbfuncholding.c ****     eMBErrorCode    eRegStatus;
  82:modbus/functions/mbfuncholding.c **** 
ARM GAS  C:\cygwin\tmp\ccjLQabW.s 			page 4


  83:modbus/functions/mbfuncholding.c ****     if( *usLen == ( MB_PDU_FUNC_WRITE_SIZE + MB_PDU_SIZE_MIN ) )
  90              		.loc 1 83 0
  91 0002 0B88     		ldrh	r3, [r1]	@ *usLen_4(D), *usLen_4(D)
  92 0004 052B     		cmp	r3, #5	@ *usLen_4(D),
  93 0006 0FD1     		bne	.L3	@,
  84:modbus/functions/mbfuncholding.c ****     {
  85:modbus/functions/mbfuncholding.c ****         usRegAddress = ( USHORT )( pucFrame[MB_PDU_FUNC_WRITE_ADDR_OFF] << 8 );
  86:modbus/functions/mbfuncholding.c ****         usRegAddress |= ( USHORT )( pucFrame[MB_PDU_FUNC_WRITE_ADDR_OFF + 1] );
  94              		.loc 1 86 0
  95 0008 8378     		ldrb	r3, [r0, #2]	@ zero_extendqisi2	@ MEM[(UCHAR *)pucFrame_6(D) + 2B], MEM[(UCHAR *)pucFrame_6(D
  85:modbus/functions/mbfuncholding.c ****         usRegAddress |= ( USHORT )( pucFrame[MB_PDU_FUNC_WRITE_ADDR_OFF + 1] );
  96              		.loc 1 85 0
  97 000a 4178     		ldrb	r1, [r0, #1]	@ zero_extendqisi2	@ MEM[(UCHAR *)pucFrame_6(D) + 1B], MEM[(UCHAR *)pucFrame_6(D
  98              	.LVL1:
  99              		.loc 1 86 0
 100 000c 43EA0121 		orr	r1, r3, r1, lsl #8	@, usRegAddress, MEM[(UCHAR *)pucFrame_6(D) + 2B], MEM[(UCHAR *)pucFrame_6(
 101              	.LVL2:
  87:modbus/functions/mbfuncholding.c ****         usRegAddress++;
 102              		.loc 1 87 0
 103 0010 0131     		adds	r1, r1, #1	@ tmp132, usRegAddress,
 104              	.LVL3:
  88:modbus/functions/mbfuncholding.c **** 
  89:modbus/functions/mbfuncholding.c ****         /* Make callback to update the value. */
  90:modbus/functions/mbfuncholding.c ****         eRegStatus = eMBRegHoldingCB( &pucFrame[MB_PDU_FUNC_WRITE_VALUE_OFF],
 105              		.loc 1 90 0
 106 0012 0122     		movs	r2, #1	@,
 107 0014 0330     		adds	r0, r0, #3	@, pucFrame,
 108              	.LVL4:
 109 0016 89B2     		uxth	r1, r1	@, tmp132
 110              	.LVL5:
 111 0018 1346     		mov	r3, r2	@,
 112              	.LVL6:
 113 001a FFF7FEFF 		bl	eMBRegHoldingCB	@
 114              	.LVL7:
  91:modbus/functions/mbfuncholding.c ****                                       usRegAddress, 1, MB_REG_WRITE );
  92:modbus/functions/mbfuncholding.c **** 
  93:modbus/functions/mbfuncholding.c ****         /* If an error occured convert it into a Modbus exception. */
  94:modbus/functions/mbfuncholding.c ****         if( eRegStatus != MB_ENOERR )
 115              		.loc 1 94 0
 116 001e 28B1     		cbz	r0, .L4	@,
  95:modbus/functions/mbfuncholding.c ****         {
  96:modbus/functions/mbfuncholding.c ****             eStatus = prveMBError2Exception( eRegStatus );
  97:modbus/functions/mbfuncholding.c ****         }
  98:modbus/functions/mbfuncholding.c ****     }
  99:modbus/functions/mbfuncholding.c ****     else
 100:modbus/functions/mbfuncholding.c ****     {
 101:modbus/functions/mbfuncholding.c ****         /* Can't be a valid request because the length is incorrect. */
 102:modbus/functions/mbfuncholding.c ****         eStatus = MB_EX_ILLEGAL_DATA_VALUE;
 103:modbus/functions/mbfuncholding.c ****     }
 104:modbus/functions/mbfuncholding.c ****     return eStatus;
 105:modbus/functions/mbfuncholding.c **** }
 117              		.loc 1 105 0
 118 0020 BDE80840 		pop	{r3, lr}	@
 119              		.cfi_remember_state
 120              		.cfi_restore 14
 121              		.cfi_restore 3
 122              		.cfi_def_cfa_offset 0
ARM GAS  C:\cygwin\tmp\ccjLQabW.s 			page 5


  96:modbus/functions/mbfuncholding.c ****         }
 123              		.loc 1 96 0
 124 0024 FFF7FEBF 		b	prveMBError2Exception	@
 125              	.LVL8:
 126              	.L3:
 127              		.cfi_restore_state
 102:modbus/functions/mbfuncholding.c ****     }
 128              		.loc 1 102 0
 129 0028 0320     		movs	r0, #3	@ eStatus,
 130              	.LVL9:
 131 002a 08BD     		pop	{r3, pc}	@
 132              	.LVL10:
 133              	.L4:
 134              		.loc 1 105 0
 135 002c 08BD     		pop	{r3, pc}	@
 136              		.cfi_endproc
 137              	.LFE0:
 138              		.size	eMBFuncWriteHoldingRegister, .-eMBFuncWriteHoldingRegister
 139              		.section	.text.eMBFuncWriteMultipleHoldingRegister,"ax",%progbits
 140              		.align	1
 141              		.global	eMBFuncWriteMultipleHoldingRegister
 142              		.thumb
 143              		.thumb_func
 144              		.type	eMBFuncWriteMultipleHoldingRegister, %function
 145              	eMBFuncWriteMultipleHoldingRegister:
 146              	.LFB1:
 106:modbus/functions/mbfuncholding.c **** #endif
 107:modbus/functions/mbfuncholding.c **** 
 108:modbus/functions/mbfuncholding.c **** #if MB_FUNC_WRITE_MULTIPLE_HOLDING_ENABLED > 0
 109:modbus/functions/mbfuncholding.c **** eMBException
 110:modbus/functions/mbfuncholding.c **** eMBFuncWriteMultipleHoldingRegister( UCHAR * pucFrame, USHORT * usLen )
 111:modbus/functions/mbfuncholding.c **** {
 147              		.loc 1 111 0
 148              		.cfi_startproc
 149              		@ args = 0, pretend = 0, frame = 0
 150              		@ frame_needed = 0, uses_anonymous_args = 0
 151              	.LVL11:
 112:modbus/functions/mbfuncholding.c ****     USHORT          usRegAddress;
 113:modbus/functions/mbfuncholding.c ****     USHORT          usRegCount;
 114:modbus/functions/mbfuncholding.c ****     UCHAR           ucRegByteCount;
 115:modbus/functions/mbfuncholding.c **** 
 116:modbus/functions/mbfuncholding.c ****     eMBException    eStatus = MB_EX_NONE;
 117:modbus/functions/mbfuncholding.c ****     eMBErrorCode    eRegStatus;
 118:modbus/functions/mbfuncholding.c **** 
 119:modbus/functions/mbfuncholding.c ****     if( *usLen >= ( MB_PDU_FUNC_WRITE_MUL_SIZE_MIN + MB_PDU_SIZE_MIN ) )
 152              		.loc 1 119 0
 153 0000 0B88     		ldrh	r3, [r1]	@ *usLen_4(D), *usLen_4(D)
 154 0002 052B     		cmp	r3, #5	@ *usLen_4(D),
 111:modbus/functions/mbfuncholding.c ****     USHORT          usRegAddress;
 155              		.loc 1 111 0
 156 0004 70B5     		push	{r4, r5, r6, lr}	@
 157              		.cfi_def_cfa_offset 16
 158              		.cfi_offset 4, -16
 159              		.cfi_offset 5, -12
 160              		.cfi_offset 6, -8
 161              		.cfi_offset 14, -4
 111:modbus/functions/mbfuncholding.c ****     USHORT          usRegAddress;
ARM GAS  C:\cygwin\tmp\ccjLQabW.s 			page 6


 162              		.loc 1 111 0
 163 0006 0C46     		mov	r4, r1	@ usLen, usLen
 164              		.loc 1 119 0
 165 0008 1DD9     		bls	.L11	@,
 120:modbus/functions/mbfuncholding.c ****     {
 121:modbus/functions/mbfuncholding.c ****         usRegAddress = ( USHORT )( pucFrame[MB_PDU_FUNC_WRITE_MUL_ADDR_OFF] << 8 );
 122:modbus/functions/mbfuncholding.c ****         usRegAddress |= ( USHORT )( pucFrame[MB_PDU_FUNC_WRITE_MUL_ADDR_OFF + 1] );
 123:modbus/functions/mbfuncholding.c ****         usRegAddress++;
 124:modbus/functions/mbfuncholding.c **** 
 125:modbus/functions/mbfuncholding.c ****         usRegCount = ( USHORT )( pucFrame[MB_PDU_FUNC_WRITE_MUL_REGCNT_OFF] << 8 );
 126:modbus/functions/mbfuncholding.c ****         usRegCount |= ( USHORT )( pucFrame[MB_PDU_FUNC_WRITE_MUL_REGCNT_OFF + 1] );
 166              		.loc 1 126 0
 167 000a 0379     		ldrb	r3, [r0, #4]	@ zero_extendqisi2	@ MEM[(UCHAR *)pucFrame_6(D) + 4B], MEM[(UCHAR *)pucFrame_6(D
 125:modbus/functions/mbfuncholding.c ****         usRegCount |= ( USHORT )( pucFrame[MB_PDU_FUNC_WRITE_MUL_REGCNT_OFF + 1] );
 168              		.loc 1 125 0
 169 000c C278     		ldrb	r2, [r0, #3]	@ zero_extendqisi2	@ MEM[(UCHAR *)pucFrame_6(D) + 3B], MEM[(UCHAR *)pucFrame_6(D
 121:modbus/functions/mbfuncholding.c ****         usRegAddress |= ( USHORT )( pucFrame[MB_PDU_FUNC_WRITE_MUL_ADDR_OFF + 1] );
 170              		.loc 1 121 0
 171 000e 4578     		ldrb	r5, [r0, #1]	@ zero_extendqisi2	@ D.5233, MEM[(UCHAR *)pucFrame_6(D) + 1B]
 172              	.LVL12:
 122:modbus/functions/mbfuncholding.c ****         usRegAddress++;
 173              		.loc 1 122 0
 174 0010 8178     		ldrb	r1, [r0, #2]	@ zero_extendqisi2	@ D.5233, MEM[(UCHAR *)pucFrame_6(D) + 2B]
 175              	.LVL13:
 127:modbus/functions/mbfuncholding.c **** 
 128:modbus/functions/mbfuncholding.c ****         ucRegByteCount = pucFrame[MB_PDU_FUNC_WRITE_MUL_BYTECNT_OFF];
 176              		.loc 1 128 0
 177 0012 4679     		ldrb	r6, [r0, #5]	@ zero_extendqisi2	@ ucRegByteCount, MEM[(UCHAR *)pucFrame_6(D) + 5B]
 126:modbus/functions/mbfuncholding.c **** 
 178              		.loc 1 126 0
 179 0014 43EA0222 		orr	r2, r3, r2, lsl #8	@, usRegCount, MEM[(UCHAR *)pucFrame_6(D) + 4B], MEM[(UCHAR *)pucFrame_6(D)
 180              	.LVL14:
 129:modbus/functions/mbfuncholding.c **** 
 130:modbus/functions/mbfuncholding.c ****         if( ( usRegCount >= 1 ) &&
 181              		.loc 1 130 0
 182 0018 531E     		subs	r3, r2, #1	@ tmp142, usRegCount,
 183 001a 772B     		cmp	r3, #119	@ tmp142,
 184 001c 13D8     		bhi	.L11	@,
 131:modbus/functions/mbfuncholding.c ****             ( usRegCount <= MB_PDU_FUNC_WRITE_MUL_REGCNT_MAX ) &&
 132:modbus/functions/mbfuncholding.c ****             ( ucRegByteCount == ( UCHAR ) ( 2 * usRegCount ) ) )
 185              		.loc 1 132 0
 186 001e 5300     		lsls	r3, r2, #1	@ tmp144, usRegCount,
 131:modbus/functions/mbfuncholding.c ****             ( usRegCount <= MB_PDU_FUNC_WRITE_MUL_REGCNT_MAX ) &&
 187              		.loc 1 131 0
 188 0020 DBB2     		uxtb	r3, r3	@ tmp145, tmp144
 189 0022 9E42     		cmp	r6, r3	@ ucRegByteCount, tmp145
 190 0024 0FD1     		bne	.L11	@,
 122:modbus/functions/mbfuncholding.c ****         usRegAddress++;
 191              		.loc 1 122 0
 192 0026 41EA0521 		orr	r1, r1, r5, lsl #8	@, usRegAddress, D.5233, D.5233,
 193              	.LVL15:
 123:modbus/functions/mbfuncholding.c **** 
 194              		.loc 1 123 0
 195 002a 0131     		adds	r1, r1, #1	@ tmp151, usRegAddress,
 133:modbus/functions/mbfuncholding.c ****         {
 134:modbus/functions/mbfuncholding.c ****             /* Make callback to update the register values. */
 135:modbus/functions/mbfuncholding.c ****             eRegStatus =
ARM GAS  C:\cygwin\tmp\ccjLQabW.s 			page 7


 196              		.loc 1 135 0
 197 002c 0630     		adds	r0, r0, #6	@, pucFrame,
 198              	.LVL16:
 199 002e 89B2     		uxth	r1, r1	@, tmp151
 200 0030 0123     		movs	r3, #1	@,
 201 0032 FFF7FEFF 		bl	eMBRegHoldingCB	@
 202              	.LVL17:
 136:modbus/functions/mbfuncholding.c ****                 eMBRegHoldingCB( &pucFrame[MB_PDU_FUNC_WRITE_MUL_VALUES_OFF],
 137:modbus/functions/mbfuncholding.c ****                                  usRegAddress, usRegCount, MB_REG_WRITE );
 138:modbus/functions/mbfuncholding.c **** 
 139:modbus/functions/mbfuncholding.c ****             /* If an error occured convert it into a Modbus exception. */
 140:modbus/functions/mbfuncholding.c ****             if( eRegStatus != MB_ENOERR )
 203              		.loc 1 140 0
 204 0036 18B1     		cbz	r0, .L8	@,
 141:modbus/functions/mbfuncholding.c ****             {
 142:modbus/functions/mbfuncholding.c ****                 eStatus = prveMBError2Exception( eRegStatus );
 143:modbus/functions/mbfuncholding.c ****             }
 144:modbus/functions/mbfuncholding.c ****             else
 145:modbus/functions/mbfuncholding.c ****             {
 146:modbus/functions/mbfuncholding.c ****                 /* The response contains the function code, the starting
 147:modbus/functions/mbfuncholding.c ****                  * address and the quantity of registers. We reuse the
 148:modbus/functions/mbfuncholding.c ****                  * old values in the buffer because they are still valid.
 149:modbus/functions/mbfuncholding.c ****                  */
 150:modbus/functions/mbfuncholding.c ****                 *usLen = MB_PDU_FUNC_WRITE_MUL_BYTECNT_OFF;
 151:modbus/functions/mbfuncholding.c ****             }
 152:modbus/functions/mbfuncholding.c ****         }
 153:modbus/functions/mbfuncholding.c ****         else
 154:modbus/functions/mbfuncholding.c ****         {
 155:modbus/functions/mbfuncholding.c ****             eStatus = MB_EX_ILLEGAL_DATA_VALUE;
 156:modbus/functions/mbfuncholding.c ****         }
 157:modbus/functions/mbfuncholding.c ****     }
 158:modbus/functions/mbfuncholding.c ****     else
 159:modbus/functions/mbfuncholding.c ****     {
 160:modbus/functions/mbfuncholding.c ****         /* Can't be a valid request because the length is incorrect. */
 161:modbus/functions/mbfuncholding.c ****         eStatus = MB_EX_ILLEGAL_DATA_VALUE;
 162:modbus/functions/mbfuncholding.c ****     }
 163:modbus/functions/mbfuncholding.c ****     return eStatus;
 164:modbus/functions/mbfuncholding.c **** }
 205              		.loc 1 164 0
 206 0038 BDE87040 		pop	{r4, r5, r6, lr}	@
 207              		.cfi_remember_state
 208              		.cfi_restore 14
 209              		.cfi_restore 6
 210              		.cfi_restore 5
 211              		.cfi_restore 4
 212              		.cfi_def_cfa_offset 0
 213              	.LVL18:
 142:modbus/functions/mbfuncholding.c ****             }
 214              		.loc 1 142 0
 215 003c FFF7FEBF 		b	prveMBError2Exception	@
 216              	.LVL19:
 217              	.L8:
 218              		.cfi_restore_state
 150:modbus/functions/mbfuncholding.c ****             }
 219              		.loc 1 150 0
 220 0040 0522     		movs	r2, #5	@ tmp156,
 221 0042 2280     		strh	r2, [r4]	@ movhi	@ tmp156, *usLen_4(D)
ARM GAS  C:\cygwin\tmp\ccjLQabW.s 			page 8


 222 0044 70BD     		pop	{r4, r5, r6, pc}	@
 223              	.LVL20:
 224              	.L11:
 161:modbus/functions/mbfuncholding.c ****     }
 225              		.loc 1 161 0
 226 0046 0320     		movs	r0, #3	@ eStatus,
 227              	.LVL21:
 228              		.loc 1 164 0
 229 0048 70BD     		pop	{r4, r5, r6, pc}	@
 230              		.cfi_endproc
 231              	.LFE1:
 232              		.size	eMBFuncWriteMultipleHoldingRegister, .-eMBFuncWriteMultipleHoldingRegister
 233              		.section	.text.eMBFuncReadHoldingRegister,"ax",%progbits
 234              		.align	1
 235              		.global	eMBFuncReadHoldingRegister
 236              		.thumb
 237              		.thumb_func
 238              		.type	eMBFuncReadHoldingRegister, %function
 239              	eMBFuncReadHoldingRegister:
 240              	.LFB2:
 165:modbus/functions/mbfuncholding.c **** #endif
 166:modbus/functions/mbfuncholding.c **** 
 167:modbus/functions/mbfuncholding.c **** #if MB_FUNC_READ_HOLDING_ENABLED > 0
 168:modbus/functions/mbfuncholding.c **** 
 169:modbus/functions/mbfuncholding.c **** eMBException
 170:modbus/functions/mbfuncholding.c **** eMBFuncReadHoldingRegister( UCHAR * pucFrame, USHORT * usLen )
 171:modbus/functions/mbfuncholding.c **** {
 241              		.loc 1 171 0
 242              		.cfi_startproc
 243              		@ args = 0, pretend = 0, frame = 0
 244              		@ frame_needed = 0, uses_anonymous_args = 0
 245              	.LVL22:
 246 0000 F8B5     		push	{r3, r4, r5, r6, r7, lr}	@
 247              		.cfi_def_cfa_offset 24
 248              		.cfi_offset 3, -24
 249              		.cfi_offset 4, -20
 250              		.cfi_offset 5, -16
 251              		.cfi_offset 6, -12
 252              		.cfi_offset 7, -8
 253              		.cfi_offset 14, -4
 172:modbus/functions/mbfuncholding.c ****     USHORT          usRegAddress;
 173:modbus/functions/mbfuncholding.c ****     USHORT          usRegCount;
 174:modbus/functions/mbfuncholding.c ****     UCHAR          *pucFrameCur;
 175:modbus/functions/mbfuncholding.c **** 
 176:modbus/functions/mbfuncholding.c ****     eMBException    eStatus = MB_EX_NONE;
 177:modbus/functions/mbfuncholding.c ****     eMBErrorCode    eRegStatus;
 178:modbus/functions/mbfuncholding.c **** 
 179:modbus/functions/mbfuncholding.c ****     if( *usLen == ( MB_PDU_FUNC_READ_SIZE + MB_PDU_SIZE_MIN ) )
 254              		.loc 1 179 0
 255 0002 0B88     		ldrh	r3, [r1]	@ *usLen_4(D), *usLen_4(D)
 256 0004 052B     		cmp	r3, #5	@ *usLen_4(D),
 171:modbus/functions/mbfuncholding.c ****     USHORT          usRegAddress;
 257              		.loc 1 171 0
 258 0006 0C46     		mov	r4, r1	@ usLen, usLen
 259              		.loc 1 179 0
 260 0008 25D1     		bne	.L15	@,
 180:modbus/functions/mbfuncholding.c ****     {
ARM GAS  C:\cygwin\tmp\ccjLQabW.s 			page 9


 181:modbus/functions/mbfuncholding.c ****         usRegAddress = ( USHORT )( pucFrame[MB_PDU_FUNC_READ_ADDR_OFF] << 8 );
 182:modbus/functions/mbfuncholding.c ****         usRegAddress |= ( USHORT )( pucFrame[MB_PDU_FUNC_READ_ADDR_OFF + 1] );
 183:modbus/functions/mbfuncholding.c ****         usRegAddress++;
 184:modbus/functions/mbfuncholding.c **** 
 185:modbus/functions/mbfuncholding.c ****         usRegCount = ( USHORT )( pucFrame[MB_PDU_FUNC_READ_REGCNT_OFF] << 8 );
 186:modbus/functions/mbfuncholding.c ****         usRegCount = ( USHORT )( pucFrame[MB_PDU_FUNC_READ_REGCNT_OFF + 1] );
 261              		.loc 1 186 0
 262 000a 0579     		ldrb	r5, [r0, #4]	@ zero_extendqisi2	@ D.5238, MEM[(UCHAR *)pucFrame_6(D) + 4B]
 181:modbus/functions/mbfuncholding.c ****         usRegAddress |= ( USHORT )( pucFrame[MB_PDU_FUNC_READ_ADDR_OFF + 1] );
 263              		.loc 1 181 0
 264 000c 4778     		ldrb	r7, [r0, #1]	@ zero_extendqisi2	@ D.5238, MEM[(UCHAR *)pucFrame_6(D) + 1B]
 265              	.LVL23:
 182:modbus/functions/mbfuncholding.c ****         usRegAddress++;
 266              		.loc 1 182 0
 267 000e 8178     		ldrb	r1, [r0, #2]	@ zero_extendqisi2	@ D.5238, MEM[(UCHAR *)pucFrame_6(D) + 2B]
 268              	.LVL24:
 269              		.loc 1 186 0
 270 0010 AEB2     		uxth	r6, r5	@ usRegCount, D.5238
 271              	.LVL25:
 187:modbus/functions/mbfuncholding.c **** 
 188:modbus/functions/mbfuncholding.c ****         /* Check if the number of registers to read is valid. If not
 189:modbus/functions/mbfuncholding.c ****          * return Modbus illegal data value exception. 
 190:modbus/functions/mbfuncholding.c ****          */
 191:modbus/functions/mbfuncholding.c ****         if( ( usRegCount >= 1 ) && ( usRegCount <= MB_PDU_FUNC_READ_REGCNT_MAX ) )
 272              		.loc 1 191 0
 273 0012 731E     		subs	r3, r6, #1	@ tmp137, usRegCount,
 274 0014 7C2B     		cmp	r3, #124	@ tmp137,
 275 0016 4FF00302 		mov	r2, #3	@ eStatus,
 276 001a 1CD8     		bhi	.L15	@,
 277              	.LVL26:
 192:modbus/functions/mbfuncholding.c ****         {
 193:modbus/functions/mbfuncholding.c ****             /* Set the current PDU data pointer to the beginning. */
 194:modbus/functions/mbfuncholding.c ****             pucFrameCur = &pucFrame[MB_PDU_FUNC_OFF];
 195:modbus/functions/mbfuncholding.c ****             *usLen = MB_PDU_FUNC_OFF;
 278              		.loc 1 195 0
 279 001c 0023     		movs	r3, #0	@ tmp139,
 280 001e 2380     		strh	r3, [r4]	@ movhi	@ tmp139, *usLen_4(D)
 281              	.LVL27:
 196:modbus/functions/mbfuncholding.c **** 
 197:modbus/functions/mbfuncholding.c ****             /* First byte contains the function code. */
 198:modbus/functions/mbfuncholding.c ****             *pucFrameCur++ = MB_FUNC_READ_HOLDING_REGISTER;
 282              		.loc 1 198 0
 283 0020 0270     		strb	r2, [r0]	@ eStatus, *pucFrame_6(D)
 199:modbus/functions/mbfuncholding.c ****             *usLen += 1;
 284              		.loc 1 199 0
 285 0022 2288     		ldrh	r2, [r4]	@, *usLen_4(D)
 200:modbus/functions/mbfuncholding.c **** 
 201:modbus/functions/mbfuncholding.c ****             /* Second byte in the response contain the number of bytes. */
 202:modbus/functions/mbfuncholding.c ****             *pucFrameCur++ = ( UCHAR ) ( usRegCount * 2 );
 286              		.loc 1 202 0
 287 0024 6D00     		lsls	r5, r5, #1	@ tmp145, D.5238,
 199:modbus/functions/mbfuncholding.c ****             *usLen += 1;
 288              		.loc 1 199 0
 289 0026 0132     		adds	r2, r2, #1	@ tmp143, *usLen_4(D),
 290 0028 2280     		strh	r2, [r4]	@ movhi	@ tmp143, *usLen_4(D)
 291              	.LVL28:
 292              		.loc 1 202 0
ARM GAS  C:\cygwin\tmp\ccjLQabW.s 			page 10


 293 002a 4570     		strb	r5, [r0, #1]	@ tmp145, MEM[(UCHAR *)pucFrame_6(D) + 1B]
 203:modbus/functions/mbfuncholding.c ****             *usLen += 1;
 294              		.loc 1 203 0
 295 002c 2288     		ldrh	r2, [r4]	@, *usLen_4(D)
 182:modbus/functions/mbfuncholding.c ****         usRegAddress++;
 296              		.loc 1 182 0
 297 002e 41EA0721 		orr	r1, r1, r7, lsl #8	@, usRegAddress, D.5238, D.5238,
 298              	.LVL29:
 299              		.loc 1 203 0
 300 0032 0132     		adds	r2, r2, #1	@ tmp148, *usLen_4(D),
 183:modbus/functions/mbfuncholding.c **** 
 301              		.loc 1 183 0
 302 0034 0131     		adds	r1, r1, #1	@ tmp155, usRegAddress,
 303              		.loc 1 203 0
 304 0036 2280     		strh	r2, [r4]	@ movhi	@ tmp148, *usLen_4(D)
 204:modbus/functions/mbfuncholding.c **** 
 205:modbus/functions/mbfuncholding.c ****             /* Make callback to fill the buffer. */
 206:modbus/functions/mbfuncholding.c ****             eRegStatus = eMBRegHoldingCB( pucFrameCur, usRegAddress, usRegCount, MB_REG_READ );
 305              		.loc 1 206 0
 306 0038 0230     		adds	r0, r0, #2	@, pucFrame,
 307              	.LVL30:
 308 003a 89B2     		uxth	r1, r1	@, tmp155
 309 003c 3246     		mov	r2, r6	@, usRegCount
 310 003e FFF7FEFF 		bl	eMBRegHoldingCB	@
 311              	.LVL31:
 207:modbus/functions/mbfuncholding.c ****             /* If an error occured convert it into a Modbus exception. */
 208:modbus/functions/mbfuncholding.c ****             if( eRegStatus != MB_ENOERR )
 312              		.loc 1 208 0
 313 0042 18B1     		cbz	r0, .L14	@,
 209:modbus/functions/mbfuncholding.c ****             {
 210:modbus/functions/mbfuncholding.c ****                 eStatus = prveMBError2Exception( eRegStatus );
 211:modbus/functions/mbfuncholding.c ****             }
 212:modbus/functions/mbfuncholding.c ****             else
 213:modbus/functions/mbfuncholding.c ****             {
 214:modbus/functions/mbfuncholding.c ****                 *usLen += usRegCount * 2;
 215:modbus/functions/mbfuncholding.c ****             }
 216:modbus/functions/mbfuncholding.c ****         }
 217:modbus/functions/mbfuncholding.c ****         else
 218:modbus/functions/mbfuncholding.c ****         {
 219:modbus/functions/mbfuncholding.c ****             eStatus = MB_EX_ILLEGAL_DATA_VALUE;
 220:modbus/functions/mbfuncholding.c ****         }
 221:modbus/functions/mbfuncholding.c ****     }
 222:modbus/functions/mbfuncholding.c ****     else
 223:modbus/functions/mbfuncholding.c ****     {
 224:modbus/functions/mbfuncholding.c ****         /* Can't be a valid request because the length is incorrect. */
 225:modbus/functions/mbfuncholding.c ****         eStatus = MB_EX_ILLEGAL_DATA_VALUE;
 226:modbus/functions/mbfuncholding.c ****     }
 227:modbus/functions/mbfuncholding.c ****     return eStatus;
 228:modbus/functions/mbfuncholding.c **** }
 314              		.loc 1 228 0
 315 0044 BDE8F840 		pop	{r3, r4, r5, r6, r7, lr}	@
 316              		.cfi_remember_state
 317              		.cfi_restore 14
 318              		.cfi_restore 7
 319              		.cfi_restore 6
 320              		.cfi_restore 5
 321              		.cfi_restore 4
ARM GAS  C:\cygwin\tmp\ccjLQabW.s 			page 11


 322              		.cfi_restore 3
 323              		.cfi_def_cfa_offset 0
 324              	.LVL32:
 210:modbus/functions/mbfuncholding.c ****             }
 325              		.loc 1 210 0
 326 0048 FFF7FEBF 		b	prveMBError2Exception	@
 327              	.LVL33:
 328              	.L14:
 329              		.cfi_restore_state
 214:modbus/functions/mbfuncholding.c ****             }
 330              		.loc 1 214 0
 331 004c 2288     		ldrh	r2, [r4]	@, *usLen_4(D)
 332 004e 02EB4606 		add	r6, r2, r6, lsl #1	@, tmp162, *usLen_4(D), usRegCount,
 333              	.LVL34:
 334 0052 2680     		strh	r6, [r4]	@ movhi	@ tmp162, *usLen_4(D)
 335 0054 F8BD     		pop	{r3, r4, r5, r6, r7, pc}	@
 336              	.LVL35:
 337              	.L15:
 225:modbus/functions/mbfuncholding.c ****     }
 338              		.loc 1 225 0
 339 0056 0320     		movs	r0, #3	@ eStatus,
 340              	.LVL36:
 341 0058 F8BD     		pop	{r3, r4, r5, r6, r7, pc}	@
 342              		.cfi_endproc
 343              	.LFE2:
 344              		.size	eMBFuncReadHoldingRegister, .-eMBFuncReadHoldingRegister
 345              		.section	.text.eMBFuncReadWriteMultipleHoldingRegister,"ax",%progbits
 346              		.align	1
 347              		.global	eMBFuncReadWriteMultipleHoldingRegister
 348              		.thumb
 349              		.thumb_func
 350              		.type	eMBFuncReadWriteMultipleHoldingRegister, %function
 351              	eMBFuncReadWriteMultipleHoldingRegister:
 352              	.LFB3:
 229:modbus/functions/mbfuncholding.c **** 
 230:modbus/functions/mbfuncholding.c **** #endif
 231:modbus/functions/mbfuncholding.c **** 
 232:modbus/functions/mbfuncholding.c **** #if MB_FUNC_READWRITE_HOLDING_ENABLED > 0
 233:modbus/functions/mbfuncholding.c **** 
 234:modbus/functions/mbfuncholding.c **** eMBException
 235:modbus/functions/mbfuncholding.c **** eMBFuncReadWriteMultipleHoldingRegister( UCHAR * pucFrame, USHORT * usLen )
 236:modbus/functions/mbfuncholding.c **** {
 353              		.loc 1 236 0
 354              		.cfi_startproc
 355              		@ args = 0, pretend = 0, frame = 0
 356              		@ frame_needed = 0, uses_anonymous_args = 0
 357              	.LVL37:
 358 0000 2DE9F843 		push	{r3, r4, r5, r6, r7, r8, r9, lr}	@
 359              		.cfi_def_cfa_offset 32
 360              		.cfi_offset 3, -32
 361              		.cfi_offset 4, -28
 362              		.cfi_offset 5, -24
 363              		.cfi_offset 6, -20
 364              		.cfi_offset 7, -16
 365              		.cfi_offset 8, -12
 366              		.cfi_offset 9, -8
 367              		.cfi_offset 14, -4
ARM GAS  C:\cygwin\tmp\ccjLQabW.s 			page 12


 237:modbus/functions/mbfuncholding.c ****     USHORT          usRegReadAddress;
 238:modbus/functions/mbfuncholding.c ****     USHORT          usRegReadCount;
 239:modbus/functions/mbfuncholding.c ****     USHORT          usRegWriteAddress;
 240:modbus/functions/mbfuncholding.c ****     USHORT          usRegWriteCount;
 241:modbus/functions/mbfuncholding.c ****     UCHAR           ucRegWriteByteCount;
 242:modbus/functions/mbfuncholding.c ****     UCHAR          *pucFrameCur;
 243:modbus/functions/mbfuncholding.c **** 
 244:modbus/functions/mbfuncholding.c ****     eMBException    eStatus = MB_EX_NONE;
 245:modbus/functions/mbfuncholding.c ****     eMBErrorCode    eRegStatus;
 246:modbus/functions/mbfuncholding.c **** 
 247:modbus/functions/mbfuncholding.c ****     if( *usLen >= ( MB_PDU_FUNC_READWRITE_SIZE_MIN + MB_PDU_SIZE_MIN ) )
 368              		.loc 1 247 0
 369 0004 0B88     		ldrh	r3, [r1]	@ *usLen_6(D), *usLen_6(D)
 370 0006 092B     		cmp	r3, #9	@ *usLen_6(D),
 236:modbus/functions/mbfuncholding.c ****     USHORT          usRegReadAddress;
 371              		.loc 1 236 0
 372 0008 0446     		mov	r4, r0	@ pucFrame, pucFrame
 373 000a 0D46     		mov	r5, r1	@ usLen, usLen
 374              		.loc 1 247 0
 375 000c 40D9     		bls	.L20	@,
 248:modbus/functions/mbfuncholding.c ****     {
 249:modbus/functions/mbfuncholding.c ****         usRegReadAddress = ( USHORT )( pucFrame[MB_PDU_FUNC_READWRITE_READ_ADDR_OFF] << 8U );
 250:modbus/functions/mbfuncholding.c ****         usRegReadAddress |= ( USHORT )( pucFrame[MB_PDU_FUNC_READWRITE_READ_ADDR_OFF + 1] );
 251:modbus/functions/mbfuncholding.c ****         usRegReadAddress++;
 252:modbus/functions/mbfuncholding.c **** 
 253:modbus/functions/mbfuncholding.c ****         usRegReadCount = ( USHORT )( pucFrame[MB_PDU_FUNC_READWRITE_READ_REGCNT_OFF] << 8U );
 254:modbus/functions/mbfuncholding.c ****         usRegReadCount |= ( USHORT )( pucFrame[MB_PDU_FUNC_READWRITE_READ_REGCNT_OFF + 1] );
 376              		.loc 1 254 0
 377 000e 0379     		ldrb	r3, [r0, #4]	@ zero_extendqisi2	@ MEM[(UCHAR *)pucFrame_8(D) + 4B], MEM[(UCHAR *)pucFrame_8(D
 253:modbus/functions/mbfuncholding.c ****         usRegReadCount |= ( USHORT )( pucFrame[MB_PDU_FUNC_READWRITE_READ_REGCNT_OFF + 1] );
 378              		.loc 1 253 0
 379 0010 C678     		ldrb	r6, [r0, #3]	@ zero_extendqisi2	@ MEM[(UCHAR *)pucFrame_8(D) + 3B], MEM[(UCHAR *)pucFrame_8(D
 249:modbus/functions/mbfuncholding.c ****         usRegReadAddress |= ( USHORT )( pucFrame[MB_PDU_FUNC_READWRITE_READ_ADDR_OFF + 1] );
 380              		.loc 1 249 0
 381 0012 90F80180 		ldrb	r8, [r0, #1]	@ zero_extendqisi2	@ D.5242, MEM[(UCHAR *)pucFrame_8(D) + 1B]
 382              	.LVL38:
 250:modbus/functions/mbfuncholding.c ****         usRegReadAddress++;
 383              		.loc 1 250 0
 384 0016 8778     		ldrb	r7, [r0, #2]	@ zero_extendqisi2	@ D.5242, MEM[(UCHAR *)pucFrame_8(D) + 2B]
 385              	.LVL39:
 255:modbus/functions/mbfuncholding.c **** 
 256:modbus/functions/mbfuncholding.c ****         usRegWriteAddress = ( USHORT )( pucFrame[MB_PDU_FUNC_READWRITE_WRITE_ADDR_OFF] << 8U );
 257:modbus/functions/mbfuncholding.c ****         usRegWriteAddress |= ( USHORT )( pucFrame[MB_PDU_FUNC_READWRITE_WRITE_ADDR_OFF + 1] );
 386              		.loc 1 257 0
 387 0018 A179     		ldrb	r1, [r4, #6]	@ zero_extendqisi2	@ D.5242, MEM[(UCHAR *)pucFrame_8(D) + 6B]
 388              	.LVL40:
 256:modbus/functions/mbfuncholding.c ****         usRegWriteAddress |= ( USHORT )( pucFrame[MB_PDU_FUNC_READWRITE_WRITE_ADDR_OFF + 1] );
 389              		.loc 1 256 0
 390 001a 4079     		ldrb	r0, [r0, #5]	@ zero_extendqisi2	@ D.5242, MEM[(UCHAR *)pucFrame_8(D) + 5B]
 391              	.LVL41:
 258:modbus/functions/mbfuncholding.c ****         usRegWriteAddress++;
 259:modbus/functions/mbfuncholding.c **** 
 260:modbus/functions/mbfuncholding.c ****         usRegWriteCount = ( USHORT )( pucFrame[MB_PDU_FUNC_READWRITE_WRITE_REGCNT_OFF] << 8U );
 392              		.loc 1 260 0
 393 001c E279     		ldrb	r2, [r4, #7]	@ zero_extendqisi2	@ D.5242, MEM[(UCHAR *)pucFrame_8(D) + 7B]
 261:modbus/functions/mbfuncholding.c ****         usRegWriteCount |= ( USHORT )( pucFrame[MB_PDU_FUNC_READWRITE_WRITE_REGCNT_OFF + 1] );
 262:modbus/functions/mbfuncholding.c **** 
ARM GAS  C:\cygwin\tmp\ccjLQabW.s 			page 13


 263:modbus/functions/mbfuncholding.c ****         ucRegWriteByteCount = pucFrame[MB_PDU_FUNC_READWRITE_BYTECNT_OFF];
 394              		.loc 1 263 0
 395 001e 94F809E0 		ldrb	lr, [r4, #9]	@ zero_extendqisi2	@ ucRegWriteByteCount, MEM[(UCHAR *)pucFrame_8(D) + 9B]
 254:modbus/functions/mbfuncholding.c **** 
 396              		.loc 1 254 0
 397 0022 43EA0626 		orr	r6, r3, r6, lsl #8	@, usRegReadCount, MEM[(UCHAR *)pucFrame_8(D) + 4B], MEM[(UCHAR *)pucFrame_
 398              	.LVL42:
 264:modbus/functions/mbfuncholding.c **** 
 265:modbus/functions/mbfuncholding.c ****         if( ( usRegReadCount >= 1 ) && ( usRegReadCount <= 0x7D ) &&
 399              		.loc 1 265 0
 400 0026 06F1FF3C 		add	ip, r6, #-1	@ tmp167, usRegReadCount,
 401 002a BCF17C0F 		cmp	ip, #124	@ tmp167,
 261:modbus/functions/mbfuncholding.c **** 
 402              		.loc 1 261 0
 403 002e 237A     		ldrb	r3, [r4, #8]	@ zero_extendqisi2	@ D.5242, MEM[(UCHAR *)pucFrame_8(D) + 8B]
 404              	.LVL43:
 405              		.loc 1 265 0
 406 0030 31D8     		bhi	.L23	@,
 261:modbus/functions/mbfuncholding.c **** 
 407              		.loc 1 261 0 discriminator 1
 408 0032 43EA0222 		orr	r2, r3, r2, lsl #8	@, usRegWriteCount, D.5242, D.5242,
 409              	.LVL44:
 410              		.loc 1 265 0 discriminator 1
 411 0036 531E     		subs	r3, r2, #1	@ tmp173, usRegWriteCount,
 412              	.LVL45:
 413 0038 782B     		cmp	r3, #120	@ tmp173,
 414 003a 2CD8     		bhi	.L23	@,
 266:modbus/functions/mbfuncholding.c ****             ( usRegWriteCount >= 1 ) && ( usRegWriteCount <= 0x79 ) &&
 415              		.loc 1 266 0 discriminator 1
 416 003c BEEB420F 		cmp	lr, r2, lsl #1	@ ucRegWriteByteCount, usRegWriteCount,
 417 0040 29D1     		bne	.L23	@,
 257:modbus/functions/mbfuncholding.c ****         usRegWriteAddress++;
 418              		.loc 1 257 0
 419 0042 41EA0021 		orr	r1, r1, r0, lsl #8	@, usRegWriteAddress, D.5242, D.5242,
 420              	.LVL46:
 258:modbus/functions/mbfuncholding.c **** 
 421              		.loc 1 258 0
 422 0046 0131     		adds	r1, r1, #1	@ tmp180, usRegWriteAddress,
 267:modbus/functions/mbfuncholding.c ****             ( ( 2 * usRegWriteCount ) == ucRegWriteByteCount ) )
 268:modbus/functions/mbfuncholding.c ****         {
 269:modbus/functions/mbfuncholding.c ****             /* Make callback to update the register values. */
 270:modbus/functions/mbfuncholding.c ****             eRegStatus = eMBRegHoldingCB( &pucFrame[MB_PDU_FUNC_READWRITE_WRITE_VALUES_OFF],
 423              		.loc 1 270 0
 424 0048 0123     		movs	r3, #1	@,
 425 004a 04F10A00 		add	r0, r4, #10	@, pucFrame,
 426              	.LVL47:
 427 004e 89B2     		uxth	r1, r1	@, tmp180
 428 0050 FFF7FEFF 		bl	eMBRegHoldingCB	@
 429              	.LVL48:
 430 0054 0346     		mov	r3, r0	@ tmp182,
 431              	.LVL49:
 271:modbus/functions/mbfuncholding.c ****                                           usRegWriteAddress, usRegWriteCount, MB_REG_WRITE );
 272:modbus/functions/mbfuncholding.c **** 
 273:modbus/functions/mbfuncholding.c ****             if( eRegStatus == MB_ENOERR )
 432              		.loc 1 273 0
 433 0056 0BBB     		cbnz	r3, .L19	@ tmp182,
 434              	.LVL50:
ARM GAS  C:\cygwin\tmp\ccjLQabW.s 			page 14


 274:modbus/functions/mbfuncholding.c ****             {
 275:modbus/functions/mbfuncholding.c ****                 /* Set the current PDU data pointer to the beginning. */
 276:modbus/functions/mbfuncholding.c ****                 pucFrameCur = &pucFrame[MB_PDU_FUNC_OFF];
 277:modbus/functions/mbfuncholding.c ****                 *usLen = MB_PDU_FUNC_OFF;
 278:modbus/functions/mbfuncholding.c **** 
 279:modbus/functions/mbfuncholding.c ****                 /* First byte contains the function code. */
 280:modbus/functions/mbfuncholding.c ****                 *pucFrameCur++ = MB_FUNC_READWRITE_MULTIPLE_REGISTERS;
 435              		.loc 1 280 0
 436 0058 1722     		movs	r2, #23	@ tmp185,
 277:modbus/functions/mbfuncholding.c **** 
 437              		.loc 1 277 0
 438 005a 2B80     		strh	r3, [r5]	@ movhi	@ tmp182, *usLen_6(D)
 439              	.LVL51:
 440              		.loc 1 280 0
 441 005c 2270     		strb	r2, [r4]	@ tmp185, *pucFrame_8(D)
 281:modbus/functions/mbfuncholding.c ****                 *usLen += 1;
 442              		.loc 1 281 0
 443 005e 2A88     		ldrh	r2, [r5]	@, *usLen_6(D)
 282:modbus/functions/mbfuncholding.c **** 
 283:modbus/functions/mbfuncholding.c ****                 /* Second byte in the response contain the number of bytes. */
 284:modbus/functions/mbfuncholding.c ****                 *pucFrameCur++ = ( UCHAR ) ( usRegReadCount * 2 );
 444              		.loc 1 284 0
 445 0060 4FEA4609 		lsl	r9, r6, #1	@ tmp191, usRegReadCount,
 281:modbus/functions/mbfuncholding.c ****                 *usLen += 1;
 446              		.loc 1 281 0
 447 0064 0132     		adds	r2, r2, #1	@ tmp188, *usLen_6(D),
 448 0066 2A80     		strh	r2, [r5]	@ movhi	@ tmp188, *usLen_6(D)
 449              	.LVL52:
 450              		.loc 1 284 0
 451 0068 84F80190 		strb	r9, [r4, #1]	@ tmp191, MEM[(UCHAR *)pucFrame_8(D) + 1B]
 285:modbus/functions/mbfuncholding.c ****                 *usLen += 1;
 452              		.loc 1 285 0
 453 006c 2A88     		ldrh	r2, [r5]	@, *usLen_6(D)
 250:modbus/functions/mbfuncholding.c ****         usRegReadAddress++;
 454              		.loc 1 250 0
 455 006e 47EA0821 		orr	r1, r7, r8, lsl #8	@, usRegReadAddress, D.5242, D.5242,
 456              		.loc 1 285 0
 457 0072 0132     		adds	r2, r2, #1	@ tmp194, *usLen_6(D),
 251:modbus/functions/mbfuncholding.c **** 
 458              		.loc 1 251 0
 459 0074 0131     		adds	r1, r1, #1	@ tmp201, usRegReadAddress,
 460              		.loc 1 285 0
 461 0076 2A80     		strh	r2, [r5]	@ movhi	@ tmp194, *usLen_6(D)
 286:modbus/functions/mbfuncholding.c **** 
 287:modbus/functions/mbfuncholding.c ****                 /* Make the read callback. */
 288:modbus/functions/mbfuncholding.c ****                 eRegStatus =
 462              		.loc 1 288 0
 463 0078 A01C     		adds	r0, r4, #2	@, pucFrame,
 464              	.LVL53:
 465 007a 89B2     		uxth	r1, r1	@, tmp201
 466 007c 3246     		mov	r2, r6	@, usRegReadCount
 467 007e FFF7FEFF 		bl	eMBRegHoldingCB	@
 468              	.LVL54:
 289:modbus/functions/mbfuncholding.c ****                     eMBRegHoldingCB( pucFrameCur, usRegReadAddress, usRegReadCount, MB_REG_READ );
 290:modbus/functions/mbfuncholding.c ****                 if( eRegStatus == MB_ENOERR )
 469              		.loc 1 290 0
 470 0082 58B9     		cbnz	r0, .L19	@ eRegStatus,
ARM GAS  C:\cygwin\tmp\ccjLQabW.s 			page 15


 291:modbus/functions/mbfuncholding.c ****                 {
 292:modbus/functions/mbfuncholding.c ****                     *usLen += 2 * usRegReadCount;
 471              		.loc 1 292 0
 472 0084 2B88     		ldrh	r3, [r5]	@, *usLen_6(D)
 473 0086 9944     		add	r9, r9, r3	@ tmp207, *usLen_6(D)
 474 0088 A5F80090 		strh	r9, [r5]	@ movhi	@ tmp207, *usLen_6(D)
 475              	.LVL55:
 476 008c BDE8F883 		pop	{r3, r4, r5, r6, r7, r8, r9, pc}	@
 477              	.LVL56:
 478              	.L20:
 244:modbus/functions/mbfuncholding.c ****     eMBErrorCode    eRegStatus;
 479              		.loc 1 244 0
 480 0090 0020     		movs	r0, #0	@ eStatus,
 481              	.LVL57:
 482 0092 BDE8F883 		pop	{r3, r4, r5, r6, r7, r8, r9, pc}	@
 483              	.LVL58:
 484              	.L23:
 293:modbus/functions/mbfuncholding.c ****                 }
 294:modbus/functions/mbfuncholding.c ****             }
 295:modbus/functions/mbfuncholding.c ****             if( eRegStatus != MB_ENOERR )
 296:modbus/functions/mbfuncholding.c ****             {
 297:modbus/functions/mbfuncholding.c ****                 eStatus = prveMBError2Exception( eRegStatus );
 298:modbus/functions/mbfuncholding.c ****             }
 299:modbus/functions/mbfuncholding.c ****         }
 300:modbus/functions/mbfuncholding.c ****         else
 301:modbus/functions/mbfuncholding.c ****         {
 302:modbus/functions/mbfuncholding.c ****             eStatus = MB_EX_ILLEGAL_DATA_VALUE;
 485              		.loc 1 302 0
 486 0096 0320     		movs	r0, #3	@ eStatus,
 487              	.LVL59:
 488 0098 BDE8F883 		pop	{r3, r4, r5, r6, r7, r8, r9, pc}	@
 489              	.LVL60:
 490              	.L19:
 303:modbus/functions/mbfuncholding.c ****         }
 304:modbus/functions/mbfuncholding.c ****     }
 305:modbus/functions/mbfuncholding.c ****     return eStatus;
 306:modbus/functions/mbfuncholding.c **** }
 491              		.loc 1 306 0
 492 009c BDE8F843 		pop	{r3, r4, r5, r6, r7, r8, r9, lr}	@
 493              		.cfi_restore 14
 494              		.cfi_restore 9
 495              		.cfi_restore 8
 496              		.cfi_restore 7
 497              		.cfi_restore 6
 498              		.cfi_restore 5
 499              		.cfi_restore 4
 500              		.cfi_restore 3
 501              		.cfi_def_cfa_offset 0
 502              	.LVL61:
 297:modbus/functions/mbfuncholding.c ****             }
 503              		.loc 1 297 0
 504 00a0 FFF7FEBF 		b	prveMBError2Exception	@
 505              	.LVL62:
 506              		.cfi_endproc
 507              	.LFE3:
 508              		.size	eMBFuncReadWriteMultipleHoldingRegister, .-eMBFuncReadWriteMultipleHoldingRegister
 509              		.text
ARM GAS  C:\cygwin\tmp\ccjLQabW.s 			page 16


 510              	.Letext0:
 511              		.file 2 "c:\\program files\\gcc-arm-none-eabi-4_9-2014\\arm-none-eabi\\include\\machine\\_default_
 512              		.file 3 "c:\\program files\\gcc-arm-none-eabi-4_9-2014\\arm-none-eabi\\include\\stdint.h"
 513              		.file 4 "port/port.h"
 514              		.file 5 "modbus/include/mbproto.h"
 515              		.file 6 "modbus/include/mb.h"