ARM GAS  C:\cygwin\tmp\ccezdpnb.s 			page 1


   1              		.syntax unified
   2              		.cpu cortex-m4
   3              		.fpu softvfp
   4              		.eabi_attribute 20, 1	@ Tag_ABI_FP_denormal
   5              		.eabi_attribute 21, 1	@ Tag_ABI_FP_exceptions
   6              		.eabi_attribute 23, 3	@ Tag_ABI_FP_number_model
   7              		.eabi_attribute 24, 1	@ Tag_ABI_align8_needed
   8              		.eabi_attribute 25, 1	@ Tag_ABI_align8_preserved
   9              		.eabi_attribute 26, 1	@ Tag_ABI_enum_size
  10              		.eabi_attribute 30, 4	@ Tag_ABI_optimization_goals
  11              		.eabi_attribute 34, 1	@ Tag_CPU_unaligned_access
  12              		.eabi_attribute 18, 4	@ Tag_ABI_PCS_wchar_t
  13              		.file	"mbfunccoils.c"
  14              	@ GNU C (GNU Tools for ARM Embedded Processors) version 4.9.3 20141119 (release) [ARM/embedded-4_9-
  15              	@	compiled by GNU C version 4.7.4, GMP version 4.3.2, MPFR version 2.4.2, MPC version 0.8.1
  16              	@ GGC heuristics: --param ggc-min-expand=100 --param ggc-min-heapsize=131072
  17              	@ options passed:  -I . -I Inc -I port -I modbus/rtu -I modbus/ascii
  18              	@ -I modbus/include -I ../STM32Cube_FW_F4_V1.4.0/Drivers/CMSIS/Include
  19              	@ -I ../STM32Cube_FW_F4_V1.4.0/Drivers/CMSIS/Device/ST/STM32F4xx/Include
  20              	@ -I ../STM32Cube_FW_F4_V1.4.0/Drivers/STM32F4xx_HAL_Driver/Inc
  21              	@ -I ../STM32Cube_FW_F4_V1.4.0/Drivers/CMSIS/Include -imultilib armv7e-m
  22              	@ -iprefix c:\program files\gcc-arm-none-eabi-4_9-2014\bin\../lib/gcc/arm-none-eabi/4.9.3/
  23              	@ -isysroot c:\program files\gcc-arm-none-eabi-4_9-2014\bin\../arm-none-eabi
  24              	@ -MD out/mbfunccoils.d -MF out/mbfunccoils.d -MP -MQ out/mbfunccoils.o
  25              	@ -D__USES_INITFINI__ -D USE_HAL_DRIVER -D STM32F4XX -D HSE_VALUE=8000000
  26              	@ -D __STARTUP_CLEAR_BSS -D STM32F411RE -D USE_FULL_ASSERT -D __FPU_USED
  27              	@ modbus/functions/mbfunccoils.c -mcpu=cortex-m4 -mthumb
  28              	@ -auxbase-strip out/mbfunccoils.o -g -ggdb3 -Os -Os -Wall
  29              	@ -Wstrict-prototypes -Wextra -std=gnu90 -ffunction-sections
  30              	@ -fdata-sections -fverbose-asm
  31              	@ options enabled:  -faggressive-loop-optimizations -fauto-inc-dec
  32              	@ -fbranch-count-reg -fcaller-saves -fcombine-stack-adjustments -fcommon
  33              	@ -fcompare-elim -fcprop-registers -fcrossjumping -fcse-follow-jumps
  34              	@ -fdata-sections -fdefer-pop -fdelete-null-pointer-checks -fdevirtualize
  35              	@ -fdevirtualize-speculatively -fdwarf2-cfi-asm -fearly-inlining
  36              	@ -feliminate-unused-debug-types -fexpensive-optimizations
  37              	@ -fforward-propagate -ffunction-cse -ffunction-sections -fgcse -fgcse-lm
  38              	@ -fgnu-runtime -fgnu-unique -fguess-branch-probability
  39              	@ -fhoist-adjacent-loads -fident -fif-conversion -fif-conversion2
  40              	@ -findirect-inlining -finline -finline-atomics -finline-functions
  41              	@ -finline-functions-called-once -finline-small-functions -fipa-cp
  42              	@ -fipa-profile -fipa-pure-const -fipa-reference -fipa-sra
  43              	@ -fira-hoist-pressure -fira-share-save-slots -fira-share-spill-slots
  44              	@ -fisolate-erroneous-paths-dereference -fivopts -fkeep-static-consts
  45              	@ -fleading-underscore -fmath-errno -fmerge-constants -fmerge-debug-strings
  46              	@ -fomit-frame-pointer -foptimize-sibling-calls -fpartial-inlining
  47              	@ -fpeephole -fpeephole2 -fprefetch-loop-arrays -freg-struct-return
  48              	@ -freorder-blocks -freorder-functions -frerun-cse-after-loop
  49              	@ -fsched-critical-path-heuristic -fsched-dep-count-heuristic
  50              	@ -fsched-group-heuristic -fsched-interblock -fsched-last-insn-heuristic
  51              	@ -fsched-pressure -fsched-rank-heuristic -fsched-spec
  52              	@ -fsched-spec-insn-heuristic -fsched-stalled-insns-dep -fschedule-insns2
  53              	@ -fsection-anchors -fshow-column -fsigned-zeros -fsplit-ivs-in-unroller
  54              	@ -fsplit-wide-types -fstrict-aliasing -fstrict-overflow
  55              	@ -fstrict-volatile-bitfields -fsync-libcalls -fthread-jumps
  56              	@ -ftoplevel-reorder -ftrapping-math -ftree-bit-ccp -ftree-builtin-call-dce
  57              	@ -ftree-ccp -ftree-ch -ftree-coalesce-vars -ftree-copy-prop
ARM GAS  C:\cygwin\tmp\ccezdpnb.s 			page 2


  58              	@ -ftree-copyrename -ftree-cselim -ftree-dce -ftree-dominator-opts
  59              	@ -ftree-dse -ftree-forwprop -ftree-fre -ftree-loop-if-convert
  60              	@ -ftree-loop-im -ftree-loop-ivcanon -ftree-loop-optimize
  61              	@ -ftree-parallelize-loops= -ftree-phiprop -ftree-pre -ftree-pta
  62              	@ -ftree-reassoc -ftree-scev-cprop -ftree-sink -ftree-slsr -ftree-sra
  63              	@ -ftree-switch-conversion -ftree-tail-merge -ftree-ter -ftree-vrp
  64              	@ -funit-at-a-time -fvar-tracking -fvar-tracking-assignments -fverbose-asm
  65              	@ -fzero-initialized-in-bss -mlittle-endian -mlra
  66              	@ -mpic-data-is-text-relative -msched-prolog -mthumb -munaligned-access
  67              	@ -mvectorize-with-neon-quad
  68              	
  69              		.text
  70              	.Ltext0:
  71              		.cfi_sections	.debug_frame
  72              		.section	.text.eMBFuncReadCoils,"ax",%progbits
  73              		.align	1
  74              		.global	eMBFuncReadCoils
  75              		.thumb
  76              		.thumb_func
  77              		.type	eMBFuncReadCoils, %function
  78              	eMBFuncReadCoils:
  79              	.LFB0:
  80              		.file 1 "modbus/functions/mbfunccoils.c"
   1:modbus/functions/mbfunccoils.c **** /* 
   2:modbus/functions/mbfunccoils.c ****  * FreeModbus Libary: A portable Modbus implementation for Modbus ASCII/RTU.
   3:modbus/functions/mbfunccoils.c ****  * Copyright (c) 2006 Christian Walter <wolti@sil.at>
   4:modbus/functions/mbfunccoils.c ****  * All rights reserved.
   5:modbus/functions/mbfunccoils.c ****  *
   6:modbus/functions/mbfunccoils.c ****  * Redistribution and use in source and binary forms, with or without
   7:modbus/functions/mbfunccoils.c ****  * modification, are permitted provided that the following conditions
   8:modbus/functions/mbfunccoils.c ****  * are met:
   9:modbus/functions/mbfunccoils.c ****  * 1. Redistributions of source code must retain the above copyright
  10:modbus/functions/mbfunccoils.c ****  *    notice, this list of conditions and the following disclaimer.
  11:modbus/functions/mbfunccoils.c ****  * 2. Redistributions in binary form must reproduce the above copyright
  12:modbus/functions/mbfunccoils.c ****  *    notice, this list of conditions and the following disclaimer in the
  13:modbus/functions/mbfunccoils.c ****  *    documentation and/or other materials provided with the distribution.
  14:modbus/functions/mbfunccoils.c ****  * 3. The name of the author may not be used to endorse or promote products
  15:modbus/functions/mbfunccoils.c ****  *    derived from this software without specific prior written permission.
  16:modbus/functions/mbfunccoils.c ****  *
  17:modbus/functions/mbfunccoils.c ****  * THIS SOFTWARE IS PROVIDED BY THE AUTHOR ``AS IS'' AND ANY EXPRESS OR
  18:modbus/functions/mbfunccoils.c ****  * IMPLIED WARRANTIES, INCLUDING, BUT NOT LIMITED TO, THE IMPLIED WARRANTIES
  19:modbus/functions/mbfunccoils.c ****  * OF MERCHANTABILITY AND FITNESS FOR A PARTICULAR PURPOSE ARE DISCLAIMED.
  20:modbus/functions/mbfunccoils.c ****  * IN NO EVENT SHALL THE AUTHOR BE LIABLE FOR ANY DIRECT, INDIRECT,
  21:modbus/functions/mbfunccoils.c ****  * INCIDENTAL, SPECIAL, EXEMPLARY, OR CONSEQUENTIAL DAMAGES (INCLUDING, BUT
  22:modbus/functions/mbfunccoils.c ****  * NOT LIMITED TO, PROCUREMENT OF SUBSTITUTE GOODS OR SERVICES; LOSS OF USE,
  23:modbus/functions/mbfunccoils.c ****  * DATA, OR PROFITS; OR BUSINESS INTERRUPTION) HOWEVER CAUSED AND ON ANY
  24:modbus/functions/mbfunccoils.c ****  * THEORY OF LIABILITY, WHETHER IN CONTRACT, STRICT LIABILITY, OR TORT
  25:modbus/functions/mbfunccoils.c ****  * (INCLUDING NEGLIGENCE OR OTHERWISE) ARISING IN ANY WAY OUT OF THE USE OF
  26:modbus/functions/mbfunccoils.c ****  * THIS SOFTWARE, EVEN IF ADVISED OF THE POSSIBILITY OF SUCH DAMAGE.
  27:modbus/functions/mbfunccoils.c ****  *
  28:modbus/functions/mbfunccoils.c ****  * File: $Id: mbfunccoils.c,v 1.8 2007/02/18 23:47:16 wolti Exp $
  29:modbus/functions/mbfunccoils.c ****  */
  30:modbus/functions/mbfunccoils.c **** 
  31:modbus/functions/mbfunccoils.c **** /* ----------------------- System includes ----------------------------------*/
  32:modbus/functions/mbfunccoils.c **** #include "stdlib.h"
  33:modbus/functions/mbfunccoils.c **** #include "string.h"
  34:modbus/functions/mbfunccoils.c **** 
ARM GAS  C:\cygwin\tmp\ccezdpnb.s 			page 3


  35:modbus/functions/mbfunccoils.c **** /* ----------------------- Platform includes --------------------------------*/
  36:modbus/functions/mbfunccoils.c **** #include "port.h"
  37:modbus/functions/mbfunccoils.c **** 
  38:modbus/functions/mbfunccoils.c **** /* ----------------------- Modbus includes ----------------------------------*/
  39:modbus/functions/mbfunccoils.c **** #include "mb.h"
  40:modbus/functions/mbfunccoils.c **** #include "mbframe.h"
  41:modbus/functions/mbfunccoils.c **** #include "mbproto.h"
  42:modbus/functions/mbfunccoils.c **** #include "mbconfig.h"
  43:modbus/functions/mbfunccoils.c **** 
  44:modbus/functions/mbfunccoils.c **** /* ----------------------- Defines ------------------------------------------*/
  45:modbus/functions/mbfunccoils.c **** #define MB_PDU_FUNC_READ_ADDR_OFF           ( MB_PDU_DATA_OFF )
  46:modbus/functions/mbfunccoils.c **** #define MB_PDU_FUNC_READ_COILCNT_OFF        ( MB_PDU_DATA_OFF + 2 )
  47:modbus/functions/mbfunccoils.c **** #define MB_PDU_FUNC_READ_SIZE               ( 4 )
  48:modbus/functions/mbfunccoils.c **** #define MB_PDU_FUNC_READ_COILCNT_MAX        ( 0x07D0 )
  49:modbus/functions/mbfunccoils.c **** 
  50:modbus/functions/mbfunccoils.c **** #define MB_PDU_FUNC_WRITE_ADDR_OFF          ( MB_PDU_DATA_OFF )
  51:modbus/functions/mbfunccoils.c **** #define MB_PDU_FUNC_WRITE_VALUE_OFF         ( MB_PDU_DATA_OFF + 2 )
  52:modbus/functions/mbfunccoils.c **** #define MB_PDU_FUNC_WRITE_SIZE              ( 4 )
  53:modbus/functions/mbfunccoils.c **** 
  54:modbus/functions/mbfunccoils.c **** #define MB_PDU_FUNC_WRITE_MUL_ADDR_OFF      ( MB_PDU_DATA_OFF )
  55:modbus/functions/mbfunccoils.c **** #define MB_PDU_FUNC_WRITE_MUL_COILCNT_OFF   ( MB_PDU_DATA_OFF + 2 )
  56:modbus/functions/mbfunccoils.c **** #define MB_PDU_FUNC_WRITE_MUL_BYTECNT_OFF   ( MB_PDU_DATA_OFF + 4 )
  57:modbus/functions/mbfunccoils.c **** #define MB_PDU_FUNC_WRITE_MUL_VALUES_OFF    ( MB_PDU_DATA_OFF + 5 )
  58:modbus/functions/mbfunccoils.c **** #define MB_PDU_FUNC_WRITE_MUL_SIZE_MIN      ( 5 )
  59:modbus/functions/mbfunccoils.c **** #define MB_PDU_FUNC_WRITE_MUL_COILCNT_MAX   ( 0x07B0 )
  60:modbus/functions/mbfunccoils.c **** 
  61:modbus/functions/mbfunccoils.c **** /* ----------------------- Static functions ---------------------------------*/
  62:modbus/functions/mbfunccoils.c **** eMBException    prveMBError2Exception( eMBErrorCode eErrorCode );
  63:modbus/functions/mbfunccoils.c **** 
  64:modbus/functions/mbfunccoils.c **** /* ----------------------- Start implementation -----------------------------*/
  65:modbus/functions/mbfunccoils.c **** 
  66:modbus/functions/mbfunccoils.c **** #if MB_FUNC_READ_COILS_ENABLED > 0
  67:modbus/functions/mbfunccoils.c **** 
  68:modbus/functions/mbfunccoils.c **** eMBException
  69:modbus/functions/mbfunccoils.c **** eMBFuncReadCoils( UCHAR * pucFrame, USHORT * usLen )
  70:modbus/functions/mbfunccoils.c **** {
  81              		.loc 1 70 0
  82              		.cfi_startproc
  83              		@ args = 0, pretend = 0, frame = 0
  84              		@ frame_needed = 0, uses_anonymous_args = 0
  85              	.LVL0:
  71:modbus/functions/mbfunccoils.c ****     USHORT          usRegAddress;
  72:modbus/functions/mbfunccoils.c ****     USHORT          usCoilCount;
  73:modbus/functions/mbfunccoils.c ****     UCHAR           ucNBytes;
  74:modbus/functions/mbfunccoils.c ****     UCHAR          *pucFrameCur;
  75:modbus/functions/mbfunccoils.c **** 
  76:modbus/functions/mbfunccoils.c ****     eMBException    eStatus = MB_EX_NONE;
  77:modbus/functions/mbfunccoils.c ****     eMBErrorCode    eRegStatus;
  78:modbus/functions/mbfunccoils.c **** 
  79:modbus/functions/mbfunccoils.c ****     if( *usLen == ( MB_PDU_FUNC_READ_SIZE + MB_PDU_SIZE_MIN ) )
  86              		.loc 1 79 0
  87 0000 0B88     		ldrh	r3, [r1]	@ *usLen_5(D), *usLen_5(D)
  88 0002 052B     		cmp	r3, #5	@ *usLen_5(D),
  70:modbus/functions/mbfunccoils.c ****     USHORT          usRegAddress;
  89              		.loc 1 70 0
  90 0004 70B5     		push	{r4, r5, r6, lr}	@
  91              		.cfi_def_cfa_offset 16
ARM GAS  C:\cygwin\tmp\ccezdpnb.s 			page 4


  92              		.cfi_offset 4, -16
  93              		.cfi_offset 5, -12
  94              		.cfi_offset 6, -8
  95              		.cfi_offset 14, -4
  70:modbus/functions/mbfunccoils.c ****     USHORT          usRegAddress;
  96              		.loc 1 70 0
  97 0006 0C46     		mov	r4, r1	@ usLen, usLen
  98              		.loc 1 79 0
  99 0008 2ED1     		bne	.L7	@,
  80:modbus/functions/mbfunccoils.c ****     {
  81:modbus/functions/mbfunccoils.c ****         usRegAddress = ( USHORT )( pucFrame[MB_PDU_FUNC_READ_ADDR_OFF] << 8 );
  82:modbus/functions/mbfunccoils.c ****         usRegAddress |= ( USHORT )( pucFrame[MB_PDU_FUNC_READ_ADDR_OFF + 1] );
  83:modbus/functions/mbfunccoils.c ****         usRegAddress++;
  84:modbus/functions/mbfunccoils.c **** 
  85:modbus/functions/mbfunccoils.c ****         usCoilCount = ( USHORT )( pucFrame[MB_PDU_FUNC_READ_COILCNT_OFF] << 8 );
 100              		.loc 1 85 0
 101 000a C578     		ldrb	r5, [r0, #3]	@ zero_extendqisi2	@ MEM[(UCHAR *)pucFrame_7(D) + 3B], MEM[(UCHAR *)pucFrame_7(D
  86:modbus/functions/mbfunccoils.c ****         usCoilCount |= ( USHORT )( pucFrame[MB_PDU_FUNC_READ_COILCNT_OFF + 1] );
 102              		.loc 1 86 0
 103 000c 0279     		ldrb	r2, [r0, #4]	@ zero_extendqisi2	@ MEM[(UCHAR *)pucFrame_7(D) + 4B], MEM[(UCHAR *)pucFrame_7(D
  81:modbus/functions/mbfunccoils.c ****         usRegAddress |= ( USHORT )( pucFrame[MB_PDU_FUNC_READ_ADDR_OFF + 1] );
 104              		.loc 1 81 0
 105 000e 4178     		ldrb	r1, [r0, #1]	@ zero_extendqisi2	@ D.5185, MEM[(UCHAR *)pucFrame_7(D) + 1B]
 106              	.LVL1:
  82:modbus/functions/mbfunccoils.c ****         usRegAddress++;
 107              		.loc 1 82 0
 108 0010 8378     		ldrb	r3, [r0, #2]	@ zero_extendqisi2	@ D.5185, MEM[(UCHAR *)pucFrame_7(D) + 2B]
 109              	.LVL2:
 110              		.loc 1 86 0
 111 0012 42EA0522 		orr	r2, r2, r5, lsl #8	@, usCoilCount, MEM[(UCHAR *)pucFrame_7(D) + 4B], MEM[(UCHAR *)pucFrame_7(D
 112              	.LVL3:
  87:modbus/functions/mbfunccoils.c **** 
  88:modbus/functions/mbfunccoils.c ****         /* Check if the number of registers to read is valid. If not
  89:modbus/functions/mbfunccoils.c ****          * return Modbus illegal data value exception. 
  90:modbus/functions/mbfunccoils.c ****          */
  91:modbus/functions/mbfunccoils.c ****         if( ( usCoilCount >= 1 ) &&
 113              		.loc 1 91 0
 114 0016 551E     		subs	r5, r2, #1	@ tmp150, usCoilCount,
 115 0018 ADB2     		uxth	r5, r5	@ tmp151, tmp150
 116 001a 40F2CE76 		movw	r6, #1998	@ tmp152,
 117 001e B542     		cmp	r5, r6	@ tmp151, tmp152
 118 0020 22D8     		bhi	.L7	@,
 119              	.LVL4:
  92:modbus/functions/mbfunccoils.c ****             ( usCoilCount < MB_PDU_FUNC_READ_COILCNT_MAX ) )
  93:modbus/functions/mbfunccoils.c ****         {
  94:modbus/functions/mbfunccoils.c ****             /* Set the current PDU data pointer to the beginning. */
  95:modbus/functions/mbfunccoils.c ****             pucFrameCur = &pucFrame[MB_PDU_FUNC_OFF];
  96:modbus/functions/mbfunccoils.c ****             *usLen = MB_PDU_FUNC_OFF;
 120              		.loc 1 96 0
 121 0022 0025     		movs	r5, #0	@ tmp154,
 122 0024 2580     		strh	r5, [r4]	@ movhi	@ tmp154, *usLen_5(D)
 123              	.LVL5:
  97:modbus/functions/mbfunccoils.c **** 
  98:modbus/functions/mbfunccoils.c ****             /* First byte contains the function code. */
  99:modbus/functions/mbfunccoils.c ****             *pucFrameCur++ = MB_FUNC_READ_COILS;
 124              		.loc 1 99 0
 125 0026 0125     		movs	r5, #1	@ tmp155,
ARM GAS  C:\cygwin\tmp\ccezdpnb.s 			page 5


 126 0028 0570     		strb	r5, [r0]	@ tmp155, *pucFrame_7(D)
 100:modbus/functions/mbfunccoils.c ****             *usLen += 1;
 127              		.loc 1 100 0
 128 002a 2588     		ldrh	r5, [r4]	@, *usLen_5(D)
 129 002c 0135     		adds	r5, r5, #1	@ tmp158, *usLen_5(D),
 130 002e 2580     		strh	r5, [r4]	@ movhi	@ tmp158, *usLen_5(D)
 101:modbus/functions/mbfunccoils.c **** 
 102:modbus/functions/mbfunccoils.c ****             /* Test if the quantity of coils is a multiple of 8. If not last
 103:modbus/functions/mbfunccoils.c ****              * byte is only partially field with unused coils set to zero. */
 104:modbus/functions/mbfunccoils.c ****             if( ( usCoilCount & 0x0007 ) != 0 )
 131              		.loc 1 104 0
 132 0030 12F0070F 		tst	r2, #7	@ usCoilCount,
 133 0034 4FEAD205 		lsr	r5, r2, #3	@ tmp186, usCoilCount,
 105:modbus/functions/mbfunccoils.c ****             {
 106:modbus/functions/mbfunccoils.c ****                 ucNBytes = ( UCHAR )( usCoilCount / 8 + 1 );
 134              		.loc 1 106 0
 135 0038 18BF     		it	ne
 136 003a 0135     		addne	r5, r5, #1	@ tmp165, tmp186,
 107:modbus/functions/mbfunccoils.c ****             }
 108:modbus/functions/mbfunccoils.c ****             else
 109:modbus/functions/mbfunccoils.c ****             {
 110:modbus/functions/mbfunccoils.c ****                 ucNBytes = ( UCHAR )( usCoilCount / 8 );
 137              		.loc 1 110 0
 138 003c EDB2     		uxtb	r5, r5	@ ucNBytes, tmp186
 139              	.LVL6:
 111:modbus/functions/mbfunccoils.c ****             }
 112:modbus/functions/mbfunccoils.c ****             *pucFrameCur++ = ucNBytes;
 140              		.loc 1 112 0
 141 003e 4570     		strb	r5, [r0, #1]	@ ucNBytes, MEM[(UCHAR *)pucFrame_7(D) + 1B]
 113:modbus/functions/mbfunccoils.c ****             *usLen += 1;
 142              		.loc 1 113 0
 143 0040 2688     		ldrh	r6, [r4]	@, *usLen_5(D)
  82:modbus/functions/mbfunccoils.c ****         usRegAddress++;
 144              		.loc 1 82 0
 145 0042 43EA0121 		orr	r1, r3, r1, lsl #8	@, usRegAddress, D.5185, D.5185,
 146              	.LVL7:
 147              		.loc 1 113 0
 148 0046 0136     		adds	r6, r6, #1	@ tmp170, *usLen_5(D),
  83:modbus/functions/mbfunccoils.c **** 
 149              		.loc 1 83 0
 150 0048 0131     		adds	r1, r1, #1	@ tmp177, usRegAddress,
 151              		.loc 1 113 0
 152 004a 2680     		strh	r6, [r4]	@ movhi	@ tmp170, *usLen_5(D)
 114:modbus/functions/mbfunccoils.c **** 
 115:modbus/functions/mbfunccoils.c ****             eRegStatus =
 153              		.loc 1 115 0
 154 004c 0230     		adds	r0, r0, #2	@, pucFrame,
 155              	.LVL8:
 156 004e 89B2     		uxth	r1, r1	@, tmp177
 157 0050 0023     		movs	r3, #0	@,
 158 0052 FFF7FEFF 		bl	eMBRegCoilsCB	@
 159              	.LVL9:
 116:modbus/functions/mbfunccoils.c ****                 eMBRegCoilsCB( pucFrameCur, usRegAddress, usCoilCount,
 117:modbus/functions/mbfunccoils.c ****                                MB_REG_READ );
 118:modbus/functions/mbfunccoils.c **** 
 119:modbus/functions/mbfunccoils.c ****             /* If an error occured convert it into a Modbus exception. */
 120:modbus/functions/mbfunccoils.c ****             if( eRegStatus != MB_ENOERR )
ARM GAS  C:\cygwin\tmp\ccezdpnb.s 			page 6


 160              		.loc 1 120 0
 161 0056 18B1     		cbz	r0, .L5	@,
 121:modbus/functions/mbfunccoils.c ****             {
 122:modbus/functions/mbfunccoils.c ****                 eStatus = prveMBError2Exception( eRegStatus );
 123:modbus/functions/mbfunccoils.c ****             }
 124:modbus/functions/mbfunccoils.c ****             else
 125:modbus/functions/mbfunccoils.c ****             {
 126:modbus/functions/mbfunccoils.c ****                 /* The response contains the function code, the starting address
 127:modbus/functions/mbfunccoils.c ****                  * and the quantity of registers. We reuse the old values in the 
 128:modbus/functions/mbfunccoils.c ****                  * buffer because they are still valid. */
 129:modbus/functions/mbfunccoils.c ****                 *usLen += ucNBytes;;
 130:modbus/functions/mbfunccoils.c ****             }
 131:modbus/functions/mbfunccoils.c ****         }
 132:modbus/functions/mbfunccoils.c ****         else
 133:modbus/functions/mbfunccoils.c ****         {
 134:modbus/functions/mbfunccoils.c ****             eStatus = MB_EX_ILLEGAL_DATA_VALUE;
 135:modbus/functions/mbfunccoils.c ****         }
 136:modbus/functions/mbfunccoils.c ****     }
 137:modbus/functions/mbfunccoils.c ****     else
 138:modbus/functions/mbfunccoils.c ****     {
 139:modbus/functions/mbfunccoils.c ****         /* Can't be a valid read coil register request because the length
 140:modbus/functions/mbfunccoils.c ****          * is incorrect. */
 141:modbus/functions/mbfunccoils.c ****         eStatus = MB_EX_ILLEGAL_DATA_VALUE;
 142:modbus/functions/mbfunccoils.c ****     }
 143:modbus/functions/mbfunccoils.c ****     return eStatus;
 144:modbus/functions/mbfunccoils.c **** }
 162              		.loc 1 144 0
 163 0058 BDE87040 		pop	{r4, r5, r6, lr}	@
 164              		.cfi_remember_state
 165              		.cfi_restore 14
 166              		.cfi_restore 6
 167              		.cfi_restore 5
 168              		.cfi_restore 4
 169              		.cfi_def_cfa_offset 0
 170              	.LVL10:
 122:modbus/functions/mbfunccoils.c ****             }
 171              		.loc 1 122 0
 172 005c FFF7FEBF 		b	prveMBError2Exception	@
 173              	.LVL11:
 174              	.L5:
 175              		.cfi_restore_state
 129:modbus/functions/mbfunccoils.c ****             }
 176              		.loc 1 129 0
 177 0060 2288     		ldrh	r2, [r4]	@, *usLen_5(D)
 178 0062 1544     		add	r5, r5, r2	@ tmp183, *usLen_5(D)
 179              	.LVL12:
 180 0064 2580     		strh	r5, [r4]	@ movhi	@ tmp183, *usLen_5(D)
 181 0066 70BD     		pop	{r4, r5, r6, pc}	@
 182              	.LVL13:
 183              	.L7:
 141:modbus/functions/mbfunccoils.c ****     }
 184              		.loc 1 141 0
 185 0068 0320     		movs	r0, #3	@ eStatus,
 186              	.LVL14:
 187              		.loc 1 144 0
 188 006a 70BD     		pop	{r4, r5, r6, pc}	@
 189              		.cfi_endproc
ARM GAS  C:\cygwin\tmp\ccezdpnb.s 			page 7


 190              	.LFE0:
 191              		.size	eMBFuncReadCoils, .-eMBFuncReadCoils
 192              		.section	.text.eMBFuncWriteCoil,"ax",%progbits
 193              		.align	1
 194              		.global	eMBFuncWriteCoil
 195              		.thumb
 196              		.thumb_func
 197              		.type	eMBFuncWriteCoil, %function
 198              	eMBFuncWriteCoil:
 199              	.LFB1:
 145:modbus/functions/mbfunccoils.c **** 
 146:modbus/functions/mbfunccoils.c **** #if MB_FUNC_WRITE_COIL_ENABLED > 0
 147:modbus/functions/mbfunccoils.c **** eMBException
 148:modbus/functions/mbfunccoils.c **** eMBFuncWriteCoil( UCHAR * pucFrame, USHORT * usLen )
 149:modbus/functions/mbfunccoils.c **** {
 200              		.loc 1 149 0
 201              		.cfi_startproc
 202              		@ args = 0, pretend = 0, frame = 8
 203              		@ frame_needed = 0, uses_anonymous_args = 0
 204              	.LVL15:
 150:modbus/functions/mbfunccoils.c ****     USHORT          usRegAddress;
 151:modbus/functions/mbfunccoils.c ****     UCHAR           ucBuf[2];
 152:modbus/functions/mbfunccoils.c **** 
 153:modbus/functions/mbfunccoils.c ****     eMBException    eStatus = MB_EX_NONE;
 154:modbus/functions/mbfunccoils.c ****     eMBErrorCode    eRegStatus;
 155:modbus/functions/mbfunccoils.c **** 
 156:modbus/functions/mbfunccoils.c ****     if( *usLen == ( MB_PDU_FUNC_WRITE_SIZE + MB_PDU_SIZE_MIN ) )
 205              		.loc 1 156 0
 206 0000 0B88     		ldrh	r3, [r1]	@ *usLen_5(D), *usLen_5(D)
 207 0002 052B     		cmp	r3, #5	@ *usLen_5(D),
 149:modbus/functions/mbfunccoils.c ****     USHORT          usRegAddress;
 208              		.loc 1 149 0
 209 0004 13B5     		push	{r0, r1, r4, lr}	@
 210              		.cfi_def_cfa_offset 16
 211              		.cfi_offset 4, -8
 212              		.cfi_offset 14, -4
 213              		.loc 1 156 0
 214 0006 1CD1     		bne	.L15	@,
 157:modbus/functions/mbfunccoils.c ****     {
 158:modbus/functions/mbfunccoils.c ****         usRegAddress = ( USHORT )( pucFrame[MB_PDU_FUNC_WRITE_ADDR_OFF] << 8 );
 159:modbus/functions/mbfunccoils.c ****         usRegAddress |= ( USHORT )( pucFrame[MB_PDU_FUNC_WRITE_ADDR_OFF + 1] );
 160:modbus/functions/mbfunccoils.c ****         usRegAddress++;
 161:modbus/functions/mbfunccoils.c **** 
 162:modbus/functions/mbfunccoils.c ****         if( ( pucFrame[MB_PDU_FUNC_WRITE_VALUE_OFF + 1] == 0x00 ) &&
 215              		.loc 1 162 0
 216 0008 0279     		ldrb	r2, [r0, #4]	@ zero_extendqisi2	@ MEM[(UCHAR *)pucFrame_7(D) + 4B], MEM[(UCHAR *)pucFrame_7(D
 158:modbus/functions/mbfunccoils.c ****         usRegAddress |= ( USHORT )( pucFrame[MB_PDU_FUNC_WRITE_ADDR_OFF + 1] );
 217              		.loc 1 158 0
 218 000a 4178     		ldrb	r1, [r0, #1]	@ zero_extendqisi2	@ D.5190, MEM[(UCHAR *)pucFrame_7(D) + 1B]
 219              	.LVL16:
 159:modbus/functions/mbfunccoils.c ****         usRegAddress++;
 220              		.loc 1 159 0
 221 000c 8378     		ldrb	r3, [r0, #2]	@ zero_extendqisi2	@ D.5190, MEM[(UCHAR *)pucFrame_7(D) + 2B]
 222              	.LVL17:
 223              		.loc 1 162 0
 224 000e C2B9     		cbnz	r2, .L15	@ MEM[(UCHAR *)pucFrame_7(D) + 4B],
 163:modbus/functions/mbfunccoils.c ****             ( ( pucFrame[MB_PDU_FUNC_WRITE_VALUE_OFF] == 0xFF ) ||
ARM GAS  C:\cygwin\tmp\ccezdpnb.s 			page 8


 225              		.loc 1 163 0 discriminator 1
 226 0010 C478     		ldrb	r4, [r0, #3]	@ zero_extendqisi2	@ D.5190, MEM[(UCHAR *)pucFrame_7(D) + 3B]
 227 0012 601E     		subs	r0, r4, #1	@ tmp128, D.5190,
 228              	.LVL18:
 162:modbus/functions/mbfunccoils.c ****             ( ( pucFrame[MB_PDU_FUNC_WRITE_VALUE_OFF] == 0xFF ) ||
 229              		.loc 1 162 0 discriminator 1
 230 0014 C0B2     		uxtb	r0, r0	@ tmp129, tmp128
 231 0016 FD28     		cmp	r0, #253	@ tmp129,
 232 0018 13D9     		bls	.L15	@,
 164:modbus/functions/mbfunccoils.c ****               ( pucFrame[MB_PDU_FUNC_WRITE_VALUE_OFF] == 0x00 ) ) )
 165:modbus/functions/mbfunccoils.c ****         {
 166:modbus/functions/mbfunccoils.c ****             ucBuf[1] = 0;
 167:modbus/functions/mbfunccoils.c ****             if( pucFrame[MB_PDU_FUNC_WRITE_VALUE_OFF] == 0xFF )
 233              		.loc 1 167 0
 234 001a FF2C     		cmp	r4, #255	@ D.5190,
 166:modbus/functions/mbfunccoils.c ****             if( pucFrame[MB_PDU_FUNC_WRITE_VALUE_OFF] == 0xFF )
 235              		.loc 1 166 0
 236 001c 8DF80520 		strb	r2, [sp, #5]	@ MEM[(UCHAR *)pucFrame_7(D) + 4B], ucBuf
 159:modbus/functions/mbfunccoils.c ****         usRegAddress++;
 237              		.loc 1 159 0
 238 0020 43EA0121 		orr	r1, r3, r1, lsl #8	@, usRegAddress, D.5190, D.5190,
 239              	.LVL19:
 168:modbus/functions/mbfunccoils.c ****             {
 169:modbus/functions/mbfunccoils.c ****                 ucBuf[0] = 1;
 240              		.loc 1 169 0
 241 0024 08BF     		it	eq
 242 0026 0122     		moveq	r2, #1	@ tmp132,
 170:modbus/functions/mbfunccoils.c ****             }
 171:modbus/functions/mbfunccoils.c ****             else
 172:modbus/functions/mbfunccoils.c ****             {
 173:modbus/functions/mbfunccoils.c ****                 ucBuf[0] = 0;
 243              		.loc 1 173 0
 244 0028 8DF80420 		strb	r2, [sp, #4]	@ MEM[(UCHAR *)pucFrame_7(D) + 4B], ucBuf
 160:modbus/functions/mbfunccoils.c **** 
 245              		.loc 1 160 0
 246 002c 0131     		adds	r1, r1, #1	@ tmp141, usRegAddress,
 174:modbus/functions/mbfunccoils.c ****             }
 175:modbus/functions/mbfunccoils.c ****             eRegStatus =
 247              		.loc 1 175 0
 248 002e 0122     		movs	r2, #1	@,
 249 0030 01A8     		add	r0, sp, #4	@,,
 250 0032 89B2     		uxth	r1, r1	@, tmp141
 251 0034 1346     		mov	r3, r2	@,
 252              	.LVL20:
 253 0036 FFF7FEFF 		bl	eMBRegCoilsCB	@
 254              	.LVL21:
 176:modbus/functions/mbfunccoils.c ****                 eMBRegCoilsCB( &ucBuf[0], usRegAddress, 1, MB_REG_WRITE );
 177:modbus/functions/mbfunccoils.c **** 
 178:modbus/functions/mbfunccoils.c ****             /* If an error occured convert it into a Modbus exception. */
 179:modbus/functions/mbfunccoils.c ****             if( eRegStatus != MB_ENOERR )
 255              		.loc 1 179 0
 256 003a 20B1     		cbz	r0, .L16	@,
 180:modbus/functions/mbfunccoils.c ****             {
 181:modbus/functions/mbfunccoils.c ****                 eStatus = prveMBError2Exception( eRegStatus );
 257              		.loc 1 181 0
 258 003c FFF7FEFF 		bl	prveMBError2Exception	@
 259              	.LVL22:
ARM GAS  C:\cygwin\tmp\ccezdpnb.s 			page 9


 260 0040 01E0     		b	.L10	@
 261              	.LVL23:
 262              	.L15:
 182:modbus/functions/mbfunccoils.c ****             }
 183:modbus/functions/mbfunccoils.c ****         }
 184:modbus/functions/mbfunccoils.c ****         else
 185:modbus/functions/mbfunccoils.c ****         {
 186:modbus/functions/mbfunccoils.c ****             eStatus = MB_EX_ILLEGAL_DATA_VALUE;
 187:modbus/functions/mbfunccoils.c ****         }
 188:modbus/functions/mbfunccoils.c ****     }
 189:modbus/functions/mbfunccoils.c ****     else
 190:modbus/functions/mbfunccoils.c ****     {
 191:modbus/functions/mbfunccoils.c ****         /* Can't be a valid write coil register request because the length
 192:modbus/functions/mbfunccoils.c ****          * is incorrect. */
 193:modbus/functions/mbfunccoils.c ****         eStatus = MB_EX_ILLEGAL_DATA_VALUE;
 263              		.loc 1 193 0
 264 0042 0320     		movs	r0, #3	@ eStatus,
 265 0044 FFE7     		b	.L10	@
 266              	.LVL24:
 267              	.L16:
 268              	.L10:
 194:modbus/functions/mbfunccoils.c ****     }
 195:modbus/functions/mbfunccoils.c ****     return eStatus;
 196:modbus/functions/mbfunccoils.c **** }
 269              		.loc 1 196 0
 270 0046 02B0     		add	sp, sp, #8	@,,
 271              		.cfi_def_cfa_offset 8
 272              		@ sp needed	@
 273 0048 10BD     		pop	{r4, pc}	@
 274              		.cfi_endproc
 275              	.LFE1:
 276              		.size	eMBFuncWriteCoil, .-eMBFuncWriteCoil
 277              		.section	.text.eMBFuncWriteMultipleCoils,"ax",%progbits
 278              		.align	1
 279              		.global	eMBFuncWriteMultipleCoils
 280              		.thumb
 281              		.thumb_func
 282              		.type	eMBFuncWriteMultipleCoils, %function
 283              	eMBFuncWriteMultipleCoils:
 284              	.LFB2:
 197:modbus/functions/mbfunccoils.c **** 
 198:modbus/functions/mbfunccoils.c **** #endif
 199:modbus/functions/mbfunccoils.c **** 
 200:modbus/functions/mbfunccoils.c **** #if MB_FUNC_WRITE_MULTIPLE_COILS_ENABLED > 0
 201:modbus/functions/mbfunccoils.c **** eMBException
 202:modbus/functions/mbfunccoils.c **** eMBFuncWriteMultipleCoils( UCHAR * pucFrame, USHORT * usLen )
 203:modbus/functions/mbfunccoils.c **** {
 285              		.loc 1 203 0
 286              		.cfi_startproc
 287              		@ args = 0, pretend = 0, frame = 0
 288              		@ frame_needed = 0, uses_anonymous_args = 0
 289              	.LVL25:
 290 0000 F8B5     		push	{r3, r4, r5, r6, r7, lr}	@
 291              		.cfi_def_cfa_offset 24
 292              		.cfi_offset 3, -24
 293              		.cfi_offset 4, -20
 294              		.cfi_offset 5, -16
ARM GAS  C:\cygwin\tmp\ccezdpnb.s 			page 10


 295              		.cfi_offset 6, -12
 296              		.cfi_offset 7, -8
 297              		.cfi_offset 14, -4
 204:modbus/functions/mbfunccoils.c ****     USHORT          usRegAddress;
 205:modbus/functions/mbfunccoils.c ****     USHORT          usCoilCnt;
 206:modbus/functions/mbfunccoils.c ****     UCHAR           ucByteCount;
 207:modbus/functions/mbfunccoils.c ****     UCHAR           ucByteCountVerify;
 208:modbus/functions/mbfunccoils.c **** 
 209:modbus/functions/mbfunccoils.c ****     eMBException    eStatus = MB_EX_NONE;
 210:modbus/functions/mbfunccoils.c ****     eMBErrorCode    eRegStatus;
 211:modbus/functions/mbfunccoils.c **** 
 212:modbus/functions/mbfunccoils.c ****     if( *usLen > ( MB_PDU_FUNC_WRITE_SIZE + MB_PDU_SIZE_MIN ) )
 298              		.loc 1 212 0
 299 0002 0B88     		ldrh	r3, [r1]	@ *usLen_5(D), *usLen_5(D)
 300 0004 052B     		cmp	r3, #5	@ *usLen_5(D),
 203:modbus/functions/mbfunccoils.c ****     USHORT          usRegAddress;
 301              		.loc 1 203 0
 302 0006 0C46     		mov	r4, r1	@ usLen, usLen
 303              		.loc 1 212 0
 304 0008 24D9     		bls	.L24	@,
 213:modbus/functions/mbfunccoils.c ****     {
 214:modbus/functions/mbfunccoils.c ****         usRegAddress = ( USHORT )( pucFrame[MB_PDU_FUNC_WRITE_MUL_ADDR_OFF] << 8 );
 215:modbus/functions/mbfunccoils.c ****         usRegAddress |= ( USHORT )( pucFrame[MB_PDU_FUNC_WRITE_MUL_ADDR_OFF + 1] );
 216:modbus/functions/mbfunccoils.c ****         usRegAddress++;
 217:modbus/functions/mbfunccoils.c **** 
 218:modbus/functions/mbfunccoils.c ****         usCoilCnt = ( USHORT )( pucFrame[MB_PDU_FUNC_WRITE_MUL_COILCNT_OFF] << 8 );
 219:modbus/functions/mbfunccoils.c ****         usCoilCnt |= ( USHORT )( pucFrame[MB_PDU_FUNC_WRITE_MUL_COILCNT_OFF + 1] );
 305              		.loc 1 219 0
 306 000a 0379     		ldrb	r3, [r0, #4]	@ zero_extendqisi2	@ MEM[(UCHAR *)pucFrame_7(D) + 4B], MEM[(UCHAR *)pucFrame_7(D
 218:modbus/functions/mbfunccoils.c ****         usCoilCnt |= ( USHORT )( pucFrame[MB_PDU_FUNC_WRITE_MUL_COILCNT_OFF + 1] );
 307              		.loc 1 218 0
 308 000c C278     		ldrb	r2, [r0, #3]	@ zero_extendqisi2	@ MEM[(UCHAR *)pucFrame_7(D) + 3B], MEM[(UCHAR *)pucFrame_7(D
 214:modbus/functions/mbfunccoils.c ****         usRegAddress |= ( USHORT )( pucFrame[MB_PDU_FUNC_WRITE_MUL_ADDR_OFF + 1] );
 309              		.loc 1 214 0
 310 000e 4578     		ldrb	r5, [r0, #1]	@ zero_extendqisi2	@ D.5194, MEM[(UCHAR *)pucFrame_7(D) + 1B]
 311              	.LVL26:
 215:modbus/functions/mbfunccoils.c ****         usRegAddress++;
 312              		.loc 1 215 0
 313 0010 8178     		ldrb	r1, [r0, #2]	@ zero_extendqisi2	@ D.5194, MEM[(UCHAR *)pucFrame_7(D) + 2B]
 314              	.LVL27:
 220:modbus/functions/mbfunccoils.c **** 
 221:modbus/functions/mbfunccoils.c ****         ucByteCount = pucFrame[MB_PDU_FUNC_WRITE_MUL_BYTECNT_OFF];
 315              		.loc 1 221 0
 316 0012 4679     		ldrb	r6, [r0, #5]	@ zero_extendqisi2	@ ucByteCount, MEM[(UCHAR *)pucFrame_7(D) + 5B]
 219:modbus/functions/mbfunccoils.c **** 
 317              		.loc 1 219 0
 318 0014 43EA0222 		orr	r2, r3, r2, lsl #8	@, usCoilCnt, MEM[(UCHAR *)pucFrame_7(D) + 4B], MEM[(UCHAR *)pucFrame_7(D) 
 319              	.LVL28:
 222:modbus/functions/mbfunccoils.c **** 
 223:modbus/functions/mbfunccoils.c ****         /* Compute the number of expected bytes in the request. */
 224:modbus/functions/mbfunccoils.c ****         if( ( usCoilCnt & 0x0007 ) != 0 )
 320              		.loc 1 224 0
 321 0018 12F0070F 		tst	r2, #7	@ usCoilCnt,
 322 001c 4FEAD203 		lsr	r3, r2, #3	@ tmp166, usCoilCnt,
 225:modbus/functions/mbfunccoils.c ****         {
 226:modbus/functions/mbfunccoils.c ****             ucByteCountVerify = ( UCHAR )( usCoilCnt / 8 + 1 );
 227:modbus/functions/mbfunccoils.c ****         }
ARM GAS  C:\cygwin\tmp\ccezdpnb.s 			page 11


 228:modbus/functions/mbfunccoils.c ****         else
 229:modbus/functions/mbfunccoils.c ****         {
 230:modbus/functions/mbfunccoils.c ****             ucByteCountVerify = ( UCHAR )( usCoilCnt / 8 );
 231:modbus/functions/mbfunccoils.c ****         }
 232:modbus/functions/mbfunccoils.c **** 
 233:modbus/functions/mbfunccoils.c ****         if( ( usCoilCnt >= 1 ) &&
 323              		.loc 1 233 0
 324 0020 02F1FF37 		add	r7, r2, #-1	@ tmp153, usCoilCnt,
 226:modbus/functions/mbfunccoils.c ****         }
 325              		.loc 1 226 0
 326 0024 18BF     		it	ne
 327 0026 0133     		addne	r3, r3, #1	@ tmp149, tmp166,
 328              		.loc 1 233 0
 329 0028 B7F5F66F 		cmp	r7, #1968	@ tmp153,
 230:modbus/functions/mbfunccoils.c ****         }
 330              		.loc 1 230 0
 331 002c DBB2     		uxtb	r3, r3	@ ucByteCountVerify, tmp166
 332              	.LVL29:
 333              		.loc 1 233 0
 334 002e 11D2     		bcs	.L24	@,
 234:modbus/functions/mbfunccoils.c ****             ( usCoilCnt <= MB_PDU_FUNC_WRITE_MUL_COILCNT_MAX ) &&
 335              		.loc 1 234 0
 336 0030 B342     		cmp	r3, r6	@ ucByteCountVerify, ucByteCount
 337 0032 0FD1     		bne	.L24	@,
 215:modbus/functions/mbfunccoils.c ****         usRegAddress++;
 338              		.loc 1 215 0
 339 0034 41EA0521 		orr	r1, r1, r5, lsl #8	@, usRegAddress, D.5194, D.5194,
 340              	.LVL30:
 216:modbus/functions/mbfunccoils.c **** 
 341              		.loc 1 216 0
 342 0038 0131     		adds	r1, r1, #1	@ tmp159, usRegAddress,
 235:modbus/functions/mbfunccoils.c ****             ( ucByteCountVerify == ucByteCount ) )
 236:modbus/functions/mbfunccoils.c ****         {
 237:modbus/functions/mbfunccoils.c ****             eRegStatus =
 343              		.loc 1 237 0
 344 003a 0630     		adds	r0, r0, #6	@, pucFrame,
 345              	.LVL31:
 346 003c 89B2     		uxth	r1, r1	@, tmp159
 347 003e 0123     		movs	r3, #1	@,
 348              	.LVL32:
 349 0040 FFF7FEFF 		bl	eMBRegCoilsCB	@
 350              	.LVL33:
 238:modbus/functions/mbfunccoils.c ****                 eMBRegCoilsCB( &pucFrame[MB_PDU_FUNC_WRITE_MUL_VALUES_OFF],
 239:modbus/functions/mbfunccoils.c ****                                usRegAddress, usCoilCnt, MB_REG_WRITE );
 240:modbus/functions/mbfunccoils.c **** 
 241:modbus/functions/mbfunccoils.c ****             /* If an error occured convert it into a Modbus exception. */
 242:modbus/functions/mbfunccoils.c ****             if( eRegStatus != MB_ENOERR )
 351              		.loc 1 242 0
 352 0044 18B1     		cbz	r0, .L21	@,
 243:modbus/functions/mbfunccoils.c ****             {
 244:modbus/functions/mbfunccoils.c ****                 eStatus = prveMBError2Exception( eRegStatus );
 245:modbus/functions/mbfunccoils.c ****             }
 246:modbus/functions/mbfunccoils.c ****             else
 247:modbus/functions/mbfunccoils.c ****             {
 248:modbus/functions/mbfunccoils.c ****                 /* The response contains the function code, the starting address
 249:modbus/functions/mbfunccoils.c ****                  * and the quantity of registers. We reuse the old values in the 
 250:modbus/functions/mbfunccoils.c ****                  * buffer because they are still valid. */
ARM GAS  C:\cygwin\tmp\ccezdpnb.s 			page 12


 251:modbus/functions/mbfunccoils.c ****                 *usLen = MB_PDU_FUNC_WRITE_MUL_BYTECNT_OFF;
 252:modbus/functions/mbfunccoils.c ****             }
 253:modbus/functions/mbfunccoils.c ****         }
 254:modbus/functions/mbfunccoils.c ****         else
 255:modbus/functions/mbfunccoils.c ****         {
 256:modbus/functions/mbfunccoils.c ****             eStatus = MB_EX_ILLEGAL_DATA_VALUE;
 257:modbus/functions/mbfunccoils.c ****         }
 258:modbus/functions/mbfunccoils.c ****     }
 259:modbus/functions/mbfunccoils.c ****     else
 260:modbus/functions/mbfunccoils.c ****     {
 261:modbus/functions/mbfunccoils.c ****         /* Can't be a valid write coil register request because the length
 262:modbus/functions/mbfunccoils.c ****          * is incorrect. */
 263:modbus/functions/mbfunccoils.c ****         eStatus = MB_EX_ILLEGAL_DATA_VALUE;
 264:modbus/functions/mbfunccoils.c ****     }
 265:modbus/functions/mbfunccoils.c ****     return eStatus;
 266:modbus/functions/mbfunccoils.c **** }
 353              		.loc 1 266 0
 354 0046 BDE8F840 		pop	{r3, r4, r5, r6, r7, lr}	@
 355              		.cfi_remember_state
 356              		.cfi_restore 14
 357              		.cfi_restore 7
 358              		.cfi_restore 6
 359              		.cfi_restore 5
 360              		.cfi_restore 4
 361              		.cfi_restore 3
 362              		.cfi_def_cfa_offset 0
 363              	.LVL34:
 244:modbus/functions/mbfunccoils.c ****             }
 364              		.loc 1 244 0
 365 004a FFF7FEBF 		b	prveMBError2Exception	@
 366              	.LVL35:
 367              	.L21:
 368              		.cfi_restore_state
 251:modbus/functions/mbfunccoils.c ****             }
 369              		.loc 1 251 0
 370 004e 0522     		movs	r2, #5	@ tmp164,
 371 0050 2280     		strh	r2, [r4]	@ movhi	@ tmp164, *usLen_5(D)
 372 0052 F8BD     		pop	{r3, r4, r5, r6, r7, pc}	@
 373              	.LVL36:
 374              	.L24:
 263:modbus/functions/mbfunccoils.c ****     }
 375              		.loc 1 263 0
 376 0054 0320     		movs	r0, #3	@ eStatus,
 377              	.LVL37:
 378              		.loc 1 266 0
 379 0056 F8BD     		pop	{r3, r4, r5, r6, r7, pc}	@
 380              		.cfi_endproc
 381              	.LFE2:
 382              		.size	eMBFuncWriteMultipleCoils, .-eMBFuncWriteMultipleCoils
 383              		.text
 384              	.Letext0:
 385              		.file 2 "c:\\program files\\gcc-arm-none-eabi-4_9-2014\\arm-none-eabi\\include\\machine\\_default_
 386              		.file 3 "c:\\program files\\gcc-arm-none-eabi-4_9-2014\\arm-none-eabi\\include\\stdint.h"
 387              		.file 4 "port/port.h"
 388              		.file 5 "modbus/include/mbproto.h"
 389              		.file 6 "modbus/include/mb.h"