ARM GAS  C:\cygwin\tmp\ccpSbW0j.s 			page 1


   1              		.syntax unified
   2              		.cpu cortex-m4
   3              		.fpu softvfp
   4              		.eabi_attribute 20, 1	@ Tag_ABI_FP_denormal
   5              		.eabi_attribute 21, 1	@ Tag_ABI_FP_exceptions
   6              		.eabi_attribute 23, 3	@ Tag_ABI_FP_number_model
   7              		.eabi_attribute 24, 1	@ Tag_ABI_align8_needed
   8              		.eabi_attribute 25, 1	@ Tag_ABI_align8_preserved
   9              		.eabi_attribute 26, 1	@ Tag_ABI_enum_size
  10              		.eabi_attribute 30, 4	@ Tag_ABI_optimization_goals
  11              		.eabi_attribute 34, 1	@ Tag_CPU_unaligned_access
  12              		.eabi_attribute 18, 4	@ Tag_ABI_PCS_wchar_t
  13              		.file	"mbfuncother.c"
  14              	@ GNU C (GNU Tools for ARM Embedded Processors) version 4.9.3 20141119 (release) [ARM/embedded-4_9-
  15              	@	compiled by GNU C version 4.7.4, GMP version 4.3.2, MPFR version 2.4.2, MPC version 0.8.1
  16              	@ GGC heuristics: --param ggc-min-expand=100 --param ggc-min-heapsize=131072
  17              	@ options passed:  -I . -I Inc -I port -I modbus/rtu -I modbus/ascii
  18              	@ -I modbus/include -I ../STM32Cube_FW_F4_V1.4.0/Drivers/CMSIS/Include
  19              	@ -I ../STM32Cube_FW_F4_V1.4.0/Drivers/CMSIS/Device/ST/STM32F4xx/Include
  20              	@ -I ../STM32Cube_FW_F4_V1.4.0/Drivers/STM32F4xx_HAL_Driver/Inc
  21              	@ -I ../STM32Cube_FW_F4_V1.4.0/Drivers/CMSIS/Include -imultilib armv7e-m
  22              	@ -iprefix c:\program files\gcc-arm-none-eabi-4_9-2014\bin\../lib/gcc/arm-none-eabi/4.9.3/
  23              	@ -isysroot c:\program files\gcc-arm-none-eabi-4_9-2014\bin\../arm-none-eabi
  24              	@ -MD out/mbfuncother.d -MF out/mbfuncother.d -MP -MQ out/mbfuncother.o
  25              	@ -D__USES_INITFINI__ -D USE_HAL_DRIVER -D STM32F4XX -D HSE_VALUE=8000000
  26              	@ -D __STARTUP_CLEAR_BSS -D STM32F411RE -D USE_FULL_ASSERT -D __FPU_USED
  27              	@ modbus/functions/mbfuncother.c -mcpu=cortex-m4 -mthumb
  28              	@ -auxbase-strip out/mbfuncother.o -g -ggdb3 -Os -Os -Wall
  29              	@ -Wstrict-prototypes -Wextra -std=gnu90 -ffunction-sections
  30              	@ -fdata-sections -fverbose-asm
  31              	@ options enabled:  -faggressive-loop-optimizations -fauto-inc-dec
  32              	@ -fbranch-count-reg -fcaller-saves -fcombine-stack-adjustments -fcommon
  33              	@ -fcompare-elim -fcprop-registers -fcrossjumping -fcse-follow-jumps
  34              	@ -fdata-sections -fdefer-pop -fdelete-null-pointer-checks -fdevirtualize
  35              	@ -fdevirtualize-speculatively -fdwarf2-cfi-asm -fearly-inlining
  36              	@ -feliminate-unused-debug-types -fexpensive-optimizations
  37              	@ -fforward-propagate -ffunction-cse -ffunction-sections -fgcse -fgcse-lm
  38              	@ -fgnu-runtime -fgnu-unique -fguess-branch-probability
  39              	@ -fhoist-adjacent-loads -fident -fif-conversion -fif-conversion2
  40              	@ -findirect-inlining -finline -finline-atomics -finline-functions
  41              	@ -finline-functions-called-once -finline-small-functions -fipa-cp
  42              	@ -fipa-profile -fipa-pure-const -fipa-reference -fipa-sra
  43              	@ -fira-hoist-pressure -fira-share-save-slots -fira-share-spill-slots
  44              	@ -fisolate-erroneous-paths-dereference -fivopts -fkeep-static-consts
  45              	@ -fleading-underscore -fmath-errno -fmerge-constants -fmerge-debug-strings
  46              	@ -fomit-frame-pointer -foptimize-sibling-calls -fpartial-inlining
  47              	@ -fpeephole -fpeephole2 -fprefetch-loop-arrays -freg-struct-return
  48              	@ -freorder-blocks -freorder-functions -frerun-cse-after-loop
  49              	@ -fsched-critical-path-heuristic -fsched-dep-count-heuristic
  50              	@ -fsched-group-heuristic -fsched-interblock -fsched-last-insn-heuristic
  51              	@ -fsched-pressure -fsched-rank-heuristic -fsched-spec
  52              	@ -fsched-spec-insn-heuristic -fsched-stalled-insns-dep -fschedule-insns2
  53              	@ -fsection-anchors -fshow-column -fsigned-zeros -fsplit-ivs-in-unroller
  54              	@ -fsplit-wide-types -fstrict-aliasing -fstrict-overflow
  55              	@ -fstrict-volatile-bitfields -fsync-libcalls -fthread-jumps
  56              	@ -ftoplevel-reorder -ftrapping-math -ftree-bit-ccp -ftree-builtin-call-dce
  57              	@ -ftree-ccp -ftree-ch -ftree-coalesce-vars -ftree-copy-prop
ARM GAS  C:\cygwin\tmp\ccpSbW0j.s 			page 2


  58              	@ -ftree-copyrename -ftree-cselim -ftree-dce -ftree-dominator-opts
  59              	@ -ftree-dse -ftree-forwprop -ftree-fre -ftree-loop-if-convert
  60              	@ -ftree-loop-im -ftree-loop-ivcanon -ftree-loop-optimize
  61              	@ -ftree-parallelize-loops= -ftree-phiprop -ftree-pre -ftree-pta
  62              	@ -ftree-reassoc -ftree-scev-cprop -ftree-sink -ftree-slsr -ftree-sra
  63              	@ -ftree-switch-conversion -ftree-tail-merge -ftree-ter -ftree-vrp
  64              	@ -funit-at-a-time -fvar-tracking -fvar-tracking-assignments -fverbose-asm
  65              	@ -fzero-initialized-in-bss -mlittle-endian -mlra
  66              	@ -mpic-data-is-text-relative -msched-prolog -mthumb -munaligned-access
  67              	@ -mvectorize-with-neon-quad
  68              	
  69              		.text
  70              	.Ltext0:
  71              		.cfi_sections	.debug_frame
  72              		.section	.text.eMBSetSlaveID,"ax",%progbits
  73              		.align	1
  74              		.global	eMBSetSlaveID
  75              		.thumb
  76              		.thumb_func
  77              		.type	eMBSetSlaveID, %function
  78              	eMBSetSlaveID:
  79              	.LFB0:
  80              		.file 1 "modbus/functions/mbfuncother.c"
   1:modbus/functions/mbfuncother.c **** /* 
   2:modbus/functions/mbfuncother.c ****  * FreeModbus Libary: A portable Modbus implementation for Modbus ASCII/RTU.
   3:modbus/functions/mbfuncother.c ****  * Copyright (c) 2006 Christian Walter <wolti@sil.at>
   4:modbus/functions/mbfuncother.c ****  * All rights reserved.
   5:modbus/functions/mbfuncother.c ****  *
   6:modbus/functions/mbfuncother.c ****  * Redistribution and use in source and binary forms, with or without
   7:modbus/functions/mbfuncother.c ****  * modification, are permitted provided that the following conditions
   8:modbus/functions/mbfuncother.c ****  * are met:
   9:modbus/functions/mbfuncother.c ****  * 1. Redistributions of source code must retain the above copyright
  10:modbus/functions/mbfuncother.c ****  *    notice, this list of conditions and the following disclaimer.
  11:modbus/functions/mbfuncother.c ****  * 2. Redistributions in binary form must reproduce the above copyright
  12:modbus/functions/mbfuncother.c ****  *    notice, this list of conditions and the following disclaimer in the
  13:modbus/functions/mbfuncother.c ****  *    documentation and/or other materials provided with the distribution.
  14:modbus/functions/mbfuncother.c ****  * 3. The name of the author may not be used to endorse or promote products
  15:modbus/functions/mbfuncother.c ****  *    derived from this software without specific prior written permission.
  16:modbus/functions/mbfuncother.c ****  *
  17:modbus/functions/mbfuncother.c ****  * THIS SOFTWARE IS PROVIDED BY THE AUTHOR ``AS IS'' AND ANY EXPRESS OR
  18:modbus/functions/mbfuncother.c ****  * IMPLIED WARRANTIES, INCLUDING, BUT NOT LIMITED TO, THE IMPLIED WARRANTIES
  19:modbus/functions/mbfuncother.c ****  * OF MERCHANTABILITY AND FITNESS FOR A PARTICULAR PURPOSE ARE DISCLAIMED.
  20:modbus/functions/mbfuncother.c ****  * IN NO EVENT SHALL THE AUTHOR BE LIABLE FOR ANY DIRECT, INDIRECT,
  21:modbus/functions/mbfuncother.c ****  * INCIDENTAL, SPECIAL, EXEMPLARY, OR CONSEQUENTIAL DAMAGES (INCLUDING, BUT
  22:modbus/functions/mbfuncother.c ****  * NOT LIMITED TO, PROCUREMENT OF SUBSTITUTE GOODS OR SERVICES; LOSS OF USE,
  23:modbus/functions/mbfuncother.c ****  * DATA, OR PROFITS; OR BUSINESS INTERRUPTION) HOWEVER CAUSED AND ON ANY
  24:modbus/functions/mbfuncother.c ****  * THEORY OF LIABILITY, WHETHER IN CONTRACT, STRICT LIABILITY, OR TORT
  25:modbus/functions/mbfuncother.c ****  * (INCLUDING NEGLIGENCE OR OTHERWISE) ARISING IN ANY WAY OUT OF THE USE OF
  26:modbus/functions/mbfuncother.c ****  * THIS SOFTWARE, EVEN IF ADVISED OF THE POSSIBILITY OF SUCH DAMAGE.
  27:modbus/functions/mbfuncother.c ****  *
  28:modbus/functions/mbfuncother.c ****  * File: $Id: mbfuncother.c,v 1.8 2006/12/07 22:10:34 wolti Exp $
  29:modbus/functions/mbfuncother.c ****  */
  30:modbus/functions/mbfuncother.c **** 
  31:modbus/functions/mbfuncother.c **** /* ----------------------- System includes ----------------------------------*/
  32:modbus/functions/mbfuncother.c **** #include "stdlib.h"
  33:modbus/functions/mbfuncother.c **** #include "string.h"
  34:modbus/functions/mbfuncother.c **** 
ARM GAS  C:\cygwin\tmp\ccpSbW0j.s 			page 3


  35:modbus/functions/mbfuncother.c **** /* ----------------------- Platform includes --------------------------------*/
  36:modbus/functions/mbfuncother.c **** #include "port.h"
  37:modbus/functions/mbfuncother.c **** 
  38:modbus/functions/mbfuncother.c **** /* ----------------------- Modbus includes ----------------------------------*/
  39:modbus/functions/mbfuncother.c **** #include "mb.h"
  40:modbus/functions/mbfuncother.c **** #include "mbframe.h"
  41:modbus/functions/mbfuncother.c **** #include "mbproto.h"
  42:modbus/functions/mbfuncother.c **** #include "mbconfig.h"
  43:modbus/functions/mbfuncother.c **** 
  44:modbus/functions/mbfuncother.c **** #if MB_FUNC_OTHER_REP_SLAVEID_ENABLED > 0
  45:modbus/functions/mbfuncother.c **** 
  46:modbus/functions/mbfuncother.c **** /* ----------------------- Static variables ---------------------------------*/
  47:modbus/functions/mbfuncother.c **** static UCHAR    ucMBSlaveID[MB_FUNC_OTHER_REP_SLAVEID_BUF];
  48:modbus/functions/mbfuncother.c **** static USHORT   usMBSlaveIDLen;
  49:modbus/functions/mbfuncother.c **** 
  50:modbus/functions/mbfuncother.c **** /* ----------------------- Start implementation -----------------------------*/
  51:modbus/functions/mbfuncother.c **** 
  52:modbus/functions/mbfuncother.c **** eMBErrorCode
  53:modbus/functions/mbfuncother.c **** eMBSetSlaveID( UCHAR ucSlaveID, BOOL xIsRunning,
  54:modbus/functions/mbfuncother.c ****                UCHAR const *pucAdditional, USHORT usAdditionalLen )
  55:modbus/functions/mbfuncother.c **** {
  81              		.loc 1 55 0
  82              		.cfi_startproc
  83              		@ args = 0, pretend = 0, frame = 0
  84              		@ frame_needed = 0, uses_anonymous_args = 0
  85              	.LVL0:
  56:modbus/functions/mbfuncother.c ****     eMBErrorCode    eStatus = MB_ENOERR;
  57:modbus/functions/mbfuncother.c **** 
  58:modbus/functions/mbfuncother.c ****     /* the first byte and second byte in the buffer is reserved for
  59:modbus/functions/mbfuncother.c ****      * the parameter ucSlaveID and the running flag. The rest of
  60:modbus/functions/mbfuncother.c ****      * the buffer is available for additional data. */
  61:modbus/functions/mbfuncother.c ****     if( usAdditionalLen + 2 < MB_FUNC_OTHER_REP_SLAVEID_BUF )
  86              		.loc 1 61 0
  87 0000 1D2B     		cmp	r3, #29	@ usAdditionalLen,
  55:modbus/functions/mbfuncother.c ****     eMBErrorCode    eStatus = MB_ENOERR;
  88              		.loc 1 55 0
  89 0002 70B5     		push	{r4, r5, r6, lr}	@
  90              		.cfi_def_cfa_offset 16
  91              		.cfi_offset 4, -16
  92              		.cfi_offset 5, -12
  93              		.cfi_offset 6, -8
  94              		.cfi_offset 14, -4
  55:modbus/functions/mbfuncother.c ****     eMBErrorCode    eStatus = MB_ENOERR;
  95              		.loc 1 55 0
  96 0004 1C46     		mov	r4, r3	@ usAdditionalLen, usAdditionalLen
  97              		.loc 1 61 0
  98 0006 13DC     		bgt	.L3	@,
  62:modbus/functions/mbfuncother.c ****     {
  63:modbus/functions/mbfuncother.c ****         usMBSlaveIDLen = 0;
  64:modbus/functions/mbfuncother.c ****         ucMBSlaveID[usMBSlaveIDLen++] = ucSlaveID;
  65:modbus/functions/mbfuncother.c ****         ucMBSlaveID[usMBSlaveIDLen++] = ( UCHAR )( xIsRunning ? 0xFF : 0x00 );
  99              		.loc 1 65 0
 100 0008 0A4E     		ldr	r6, .L7	@ tmp124,
  64:modbus/functions/mbfuncother.c ****         ucMBSlaveID[usMBSlaveIDLen++] = ( UCHAR )( xIsRunning ? 0xFF : 0x00 );
 101              		.loc 1 64 0
 102 000a 0B4D     		ldr	r5, .L7+4	@ tmp122,
 103              		.loc 1 65 0
ARM GAS  C:\cygwin\tmp\ccpSbW0j.s 			page 4


 104 000c 0223     		movs	r3, #2	@ tmp126,
 105              	.LVL1:
 106 000e 3380     		strh	r3, [r6]	@ movhi	@ tmp126, usMBSlaveIDLen
 107 0010 0B1C     		adds	r3, r1, #0	@ tmp129, xIsRunning,
 108 0012 18BF     		it	ne
 109 0014 0123     		movne	r3, #1	@ tmp129,
 110 0016 5B42     		negs	r3, r3	@ tmp130, tmp129
  64:modbus/functions/mbfuncother.c ****         ucMBSlaveID[usMBSlaveIDLen++] = ( UCHAR )( xIsRunning ? 0xFF : 0x00 );
 111              		.loc 1 64 0
 112 0018 2870     		strb	r0, [r5]	@ ucSlaveID, ucMBSlaveID
 113              		.loc 1 65 0
 114 001a 6B70     		strb	r3, [r5, #1]	@ tmp130, ucMBSlaveID
  66:modbus/functions/mbfuncother.c ****         if( usAdditionalLen > 0 )
 115              		.loc 1 66 0
 116 001c 34B1     		cbz	r4, .L5	@ usAdditionalLen,
  67:modbus/functions/mbfuncother.c ****         {
  68:modbus/functions/mbfuncother.c ****             memcpy( &ucMBSlaveID[usMBSlaveIDLen], pucAdditional,
 117              		.loc 1 68 0
 118 001e 1146     		mov	r1, r2	@, pucAdditional
 119              	.LVL2:
 120 0020 A81C     		adds	r0, r5, #2	@, tmp122,
 121              	.LVL3:
 122 0022 2246     		mov	r2, r4	@, usAdditionalLen
 123              	.LVL4:
  69:modbus/functions/mbfuncother.c ****                     ( size_t )usAdditionalLen );
  70:modbus/functions/mbfuncother.c ****             usMBSlaveIDLen += usAdditionalLen;
 124              		.loc 1 70 0
 125 0024 0234     		adds	r4, r4, #2	@ tmp139, usAdditionalLen,
  68:modbus/functions/mbfuncother.c ****                     ( size_t )usAdditionalLen );
 126              		.loc 1 68 0
 127 0026 FFF7FEFF 		bl	memcpy	@
 128              	.LVL5:
 129              		.loc 1 70 0
 130 002a 3480     		strh	r4, [r6]	@ movhi	@ tmp139, usMBSlaveIDLen
 131              	.L5:
  56:modbus/functions/mbfuncother.c **** 
 132              		.loc 1 56 0
 133 002c 0020     		movs	r0, #0	@ eStatus,
 134 002e 70BD     		pop	{r4, r5, r6, pc}	@
 135              	.LVL6:
 136              	.L3:
  71:modbus/functions/mbfuncother.c ****         }
  72:modbus/functions/mbfuncother.c ****     }
  73:modbus/functions/mbfuncother.c ****     else
  74:modbus/functions/mbfuncother.c ****     {
  75:modbus/functions/mbfuncother.c ****         eStatus = MB_ENORES;
 137              		.loc 1 75 0
 138 0030 0420     		movs	r0, #4	@ eStatus,
 139              	.LVL7:
 140 0032 70BD     		pop	{r4, r5, r6, pc}	@
 141              	.L8:
 142              		.align	2
 143              	.L7:
 144 0034 00000000 		.word	.LANCHOR1
 145 0038 00000000 		.word	.LANCHOR0
 146              		.cfi_endproc
 147              	.LFE0:
ARM GAS  C:\cygwin\tmp\ccpSbW0j.s 			page 5


 148              		.size	eMBSetSlaveID, .-eMBSetSlaveID
 149              		.section	.text.eMBFuncReportSlaveID,"ax",%progbits
 150              		.align	1
 151              		.global	eMBFuncReportSlaveID
 152              		.thumb
 153              		.thumb_func
 154              		.type	eMBFuncReportSlaveID, %function
 155              	eMBFuncReportSlaveID:
 156              	.LFB1:
  76:modbus/functions/mbfuncother.c ****     }
  77:modbus/functions/mbfuncother.c ****     return eStatus;
  78:modbus/functions/mbfuncother.c **** }
  79:modbus/functions/mbfuncother.c **** 
  80:modbus/functions/mbfuncother.c **** eMBException
  81:modbus/functions/mbfuncother.c **** eMBFuncReportSlaveID( UCHAR * pucFrame, USHORT * usLen )
  82:modbus/functions/mbfuncother.c **** {
 157              		.loc 1 82 0
 158              		.cfi_startproc
 159              		@ args = 0, pretend = 0, frame = 0
 160              		@ frame_needed = 0, uses_anonymous_args = 0
 161              	.LVL8:
 162 0000 38B5     		push	{r3, r4, r5, lr}	@
 163              		.cfi_def_cfa_offset 16
 164              		.cfi_offset 3, -16
 165              		.cfi_offset 4, -12
 166              		.cfi_offset 5, -8
 167              		.cfi_offset 14, -4
  83:modbus/functions/mbfuncother.c ****     memcpy( &pucFrame[MB_PDU_DATA_OFF], &ucMBSlaveID[0], ( size_t )usMBSlaveIDLen );
 168              		.loc 1 83 0
 169 0002 064B     		ldr	r3, .L10	@ tmp117,
 170 0004 1C88     		ldrh	r4, [r3]	@ D.5105, usMBSlaveIDLen
  82:modbus/functions/mbfuncother.c ****     memcpy( &pucFrame[MB_PDU_DATA_OFF], &ucMBSlaveID[0], ( size_t )usMBSlaveIDLen );
 171              		.loc 1 82 0
 172 0006 0D46     		mov	r5, r1	@ usLen, usLen
 173              		.loc 1 83 0
 174 0008 2246     		mov	r2, r4	@, D.5105
 175 000a 0549     		ldr	r1, .L10+4	@,
 176              	.LVL9:
  84:modbus/functions/mbfuncother.c ****     *usLen = ( USHORT )( MB_PDU_DATA_OFF + usMBSlaveIDLen );
 177              		.loc 1 84 0
 178 000c 0134     		adds	r4, r4, #1	@ tmp124, D.5105,
  83:modbus/functions/mbfuncother.c ****     memcpy( &pucFrame[MB_PDU_DATA_OFF], &ucMBSlaveID[0], ( size_t )usMBSlaveIDLen );
 179              		.loc 1 83 0
 180 000e 0130     		adds	r0, r0, #1	@, pucFrame,
 181              	.LVL10:
 182 0010 FFF7FEFF 		bl	memcpy	@
 183              	.LVL11:
 184              		.loc 1 84 0
 185 0014 2C80     		strh	r4, [r5]	@ movhi	@ tmp124, *usLen_8(D)
  85:modbus/functions/mbfuncother.c ****     return MB_EX_NONE;
  86:modbus/functions/mbfuncother.c **** }
 186              		.loc 1 86 0
 187 0016 0020     		movs	r0, #0	@,
 188 0018 38BD     		pop	{r3, r4, r5, pc}	@
 189              	.LVL12:
 190              	.L11:
 191 001a 00BF     		.align	2
ARM GAS  C:\cygwin\tmp\ccpSbW0j.s 			page 6


 192              	.L10:
 193 001c 00000000 		.word	.LANCHOR1
 194 0020 00000000 		.word	.LANCHOR0
 195              		.cfi_endproc
 196              	.LFE1:
 197              		.size	eMBFuncReportSlaveID, .-eMBFuncReportSlaveID
 198              		.section	.bss.usMBSlaveIDLen,"aw",%nobits
 199              		.align	1
 200              		.set	.LANCHOR1,. + 0
 201              		.type	usMBSlaveIDLen, %object
 202              		.size	usMBSlaveIDLen, 2
 203              	usMBSlaveIDLen:
 204 0000 0000     		.space	2
 205              		.section	.bss.ucMBSlaveID,"aw",%nobits
 206              		.set	.LANCHOR0,. + 0
 207              		.type	ucMBSlaveID, %object
 208              		.size	ucMBSlaveID, 32
 209              	ucMBSlaveID:
 210 0000 00000000 		.space	32
 210      00000000 
 210      00000000 
 210      00000000 
 210      00000000 
 211              		.text
 212              	.Letext0:
 213              		.file 2 "c:\\program files\\gcc-arm-none-eabi-4_9-2014\\lib\\gcc\\arm-none-eabi\\4.9.3\\include\\s
 214              		.file 3 "c:\\program files\\gcc-arm-none-eabi-4_9-2014\\arm-none-eabi\\include\\machine\\_default_
 215              		.file 4 "c:\\program files\\gcc-arm-none-eabi-4_9-2014\\arm-none-eabi\\include\\stdint.h"
 216              		.file 5 "port/port.h"
 217              		.file 6 "modbus/include/mbproto.h"
 218              		.file 7 "modbus/include/mb.h"