ARM GAS  C:\cygwin\tmp\cclAsMdL.s 			page 1


   1              		.syntax unified
   2              		.cpu cortex-m4
   3              		.fpu softvfp
   4              		.eabi_attribute 20, 1	@ Tag_ABI_FP_denormal
   5              		.eabi_attribute 21, 1	@ Tag_ABI_FP_exceptions
   6              		.eabi_attribute 23, 3	@ Tag_ABI_FP_number_model
   7              		.eabi_attribute 24, 1	@ Tag_ABI_align8_needed
   8              		.eabi_attribute 25, 1	@ Tag_ABI_align8_preserved
   9              		.eabi_attribute 26, 1	@ Tag_ABI_enum_size
  10              		.eabi_attribute 30, 4	@ Tag_ABI_optimization_goals
  11              		.eabi_attribute 34, 1	@ Tag_CPU_unaligned_access
  12              		.eabi_attribute 18, 4	@ Tag_ABI_PCS_wchar_t
  13              		.file	"mbfuncinput.c"
  14              	@ GNU C (GNU Tools for ARM Embedded Processors) version 4.9.3 20141119 (release) [ARM/embedded-4_9-
  15              	@	compiled by GNU C version 4.7.4, GMP version 4.3.2, MPFR version 2.4.2, MPC version 0.8.1
  16              	@ GGC heuristics: --param ggc-min-expand=100 --param ggc-min-heapsize=131072
  17              	@ options passed:  -I . -I Inc -I port -I modbus/rtu -I modbus/ascii
  18              	@ -I modbus/include -I ../STM32Cube_FW_F4_V1.4.0/Drivers/CMSIS/Include
  19              	@ -I ../STM32Cube_FW_F4_V1.4.0/Drivers/CMSIS/Device/ST/STM32F4xx/Include
  20              	@ -I ../STM32Cube_FW_F4_V1.4.0/Drivers/STM32F4xx_HAL_Driver/Inc
  21              	@ -I ../STM32Cube_FW_F4_V1.4.0/Drivers/CMSIS/Include -imultilib armv7e-m
  22              	@ -iprefix c:\program files\gcc-arm-none-eabi-4_9-2014\bin\../lib/gcc/arm-none-eabi/4.9.3/
  23              	@ -isysroot c:\program files\gcc-arm-none-eabi-4_9-2014\bin\../arm-none-eabi
  24              	@ -MD out/mbfuncinput.d -MF out/mbfuncinput.d -MP -MQ out/mbfuncinput.o
  25              	@ -D__USES_INITFINI__ -D USE_HAL_DRIVER -D STM32F4XX -D HSE_VALUE=8000000
  26              	@ -D __STARTUP_CLEAR_BSS -D STM32F411RE -D USE_FULL_ASSERT -D __FPU_USED
  27              	@ modbus/functions/mbfuncinput.c -mcpu=cortex-m4 -mthumb
  28              	@ -auxbase-strip out/mbfuncinput.o -g -ggdb3 -Os -Os -Wall
  29              	@ -Wstrict-prototypes -Wextra -std=gnu90 -ffunction-sections
  30              	@ -fdata-sections -fverbose-asm
  31              	@ options enabled:  -faggressive-loop-optimizations -fauto-inc-dec
  32              	@ -fbranch-count-reg -fcaller-saves -fcombine-stack-adjustments -fcommon
  33              	@ -fcompare-elim -fcprop-registers -fcrossjumping -fcse-follow-jumps
  34              	@ -fdata-sections -fdefer-pop -fdelete-null-pointer-checks -fdevirtualize
  35              	@ -fdevirtualize-speculatively -fdwarf2-cfi-asm -fearly-inlining
  36              	@ -feliminate-unused-debug-types -fexpensive-optimizations
  37              	@ -fforward-propagate -ffunction-cse -ffunction-sections -fgcse -fgcse-lm
  38              	@ -fgnu-runtime -fgnu-unique -fguess-branch-probability
  39              	@ -fhoist-adjacent-loads -fident -fif-conversion -fif-conversion2
  40              	@ -findirect-inlining -finline -finline-atomics -finline-functions
  41              	@ -finline-functions-called-once -finline-small-functions -fipa-cp
  42              	@ -fipa-profile -fipa-pure-const -fipa-reference -fipa-sra
  43              	@ -fira-hoist-pressure -fira-share-save-slots -fira-share-spill-slots
  44              	@ -fisolate-erroneous-paths-dereference -fivopts -fkeep-static-consts
  45              	@ -fleading-underscore -fmath-errno -fmerge-constants -fmerge-debug-strings
  46              	@ -fomit-frame-pointer -foptimize-sibling-calls -fpartial-inlining
  47              	@ -fpeephole -fpeephole2 -fprefetch-loop-arrays -freg-struct-return
  48              	@ -freorder-blocks -freorder-functions -frerun-cse-after-loop
  49              	@ -fsched-critical-path-heuristic -fsched-dep-count-heuristic
  50              	@ -fsched-group-heuristic -fsched-interblock -fsched-last-insn-heuristic
  51              	@ -fsched-pressure -fsched-rank-heuristic -fsched-spec
  52              	@ -fsched-spec-insn-heuristic -fsched-stalled-insns-dep -fschedule-insns2
  53              	@ -fsection-anchors -fshow-column -fsigned-zeros -fsplit-ivs-in-unroller
  54              	@ -fsplit-wide-types -fstrict-aliasing -fstrict-overflow
  55              	@ -fstrict-volatile-bitfields -fsync-libcalls -fthread-jumps
  56              	@ -ftoplevel-reorder -ftrapping-math -ftree-bit-ccp -ftree-builtin-call-dce
  57              	@ -ftree-ccp -ftree-ch -ftree-coalesce-vars -ftree-copy-prop
ARM GAS  C:\cygwin\tmp\cclAsMdL.s 			page 2


  58              	@ -ftree-copyrename -ftree-cselim -ftree-dce -ftree-dominator-opts
  59              	@ -ftree-dse -ftree-forwprop -ftree-fre -ftree-loop-if-convert
  60              	@ -ftree-loop-im -ftree-loop-ivcanon -ftree-loop-optimize
  61              	@ -ftree-parallelize-loops= -ftree-phiprop -ftree-pre -ftree-pta
  62              	@ -ftree-reassoc -ftree-scev-cprop -ftree-sink -ftree-slsr -ftree-sra
  63              	@ -ftree-switch-conversion -ftree-tail-merge -ftree-ter -ftree-vrp
  64              	@ -funit-at-a-time -fvar-tracking -fvar-tracking-assignments -fverbose-asm
  65              	@ -fzero-initialized-in-bss -mlittle-endian -mlra
  66              	@ -mpic-data-is-text-relative -msched-prolog -mthumb -munaligned-access
  67              	@ -mvectorize-with-neon-quad
  68              	
  69              		.text
  70              	.Ltext0:
  71              		.cfi_sections	.debug_frame
  72              		.section	.text.eMBFuncReadInputRegister,"ax",%progbits
  73              		.align	1
  74              		.global	eMBFuncReadInputRegister
  75              		.thumb
  76              		.thumb_func
  77              		.type	eMBFuncReadInputRegister, %function
  78              	eMBFuncReadInputRegister:
  79              	.LFB0:
  80              		.file 1 "modbus/functions/mbfuncinput.c"
   1:modbus/functions/mbfuncinput.c **** /* 
   2:modbus/functions/mbfuncinput.c ****  * FreeModbus Libary: A portable Modbus implementation for Modbus ASCII/RTU.
   3:modbus/functions/mbfuncinput.c ****  * Copyright (c) 2006 Christian Walter <wolti@sil.at>
   4:modbus/functions/mbfuncinput.c ****  * All rights reserved.
   5:modbus/functions/mbfuncinput.c ****  *
   6:modbus/functions/mbfuncinput.c ****  * Redistribution and use in source and binary forms, with or without
   7:modbus/functions/mbfuncinput.c ****  * modification, are permitted provided that the following conditions
   8:modbus/functions/mbfuncinput.c ****  * are met:
   9:modbus/functions/mbfuncinput.c ****  * 1. Redistributions of source code must retain the above copyright
  10:modbus/functions/mbfuncinput.c ****  *    notice, this list of conditions and the following disclaimer.
  11:modbus/functions/mbfuncinput.c ****  * 2. Redistributions in binary form must reproduce the above copyright
  12:modbus/functions/mbfuncinput.c ****  *    notice, this list of conditions and the following disclaimer in the
  13:modbus/functions/mbfuncinput.c ****  *    documentation and/or other materials provided with the distribution.
  14:modbus/functions/mbfuncinput.c ****  * 3. The name of the author may not be used to endorse or promote products
  15:modbus/functions/mbfuncinput.c ****  *    derived from this software without specific prior written permission.
  16:modbus/functions/mbfuncinput.c ****  *
  17:modbus/functions/mbfuncinput.c ****  * THIS SOFTWARE IS PROVIDED BY THE AUTHOR ``AS IS'' AND ANY EXPRESS OR
  18:modbus/functions/mbfuncinput.c ****  * IMPLIED WARRANTIES, INCLUDING, BUT NOT LIMITED TO, THE IMPLIED WARRANTIES
  19:modbus/functions/mbfuncinput.c ****  * OF MERCHANTABILITY AND FITNESS FOR A PARTICULAR PURPOSE ARE DISCLAIMED.
  20:modbus/functions/mbfuncinput.c ****  * IN NO EVENT SHALL THE AUTHOR BE LIABLE FOR ANY DIRECT, INDIRECT,
  21:modbus/functions/mbfuncinput.c ****  * INCIDENTAL, SPECIAL, EXEMPLARY, OR CONSEQUENTIAL DAMAGES (INCLUDING, BUT
  22:modbus/functions/mbfuncinput.c ****  * NOT LIMITED TO, PROCUREMENT OF SUBSTITUTE GOODS OR SERVICES; LOSS OF USE,
  23:modbus/functions/mbfuncinput.c ****  * DATA, OR PROFITS; OR BUSINESS INTERRUPTION) HOWEVER CAUSED AND ON ANY
  24:modbus/functions/mbfuncinput.c ****  * THEORY OF LIABILITY, WHETHER IN CONTRACT, STRICT LIABILITY, OR TORT
  25:modbus/functions/mbfuncinput.c ****  * (INCLUDING NEGLIGENCE OR OTHERWISE) ARISING IN ANY WAY OUT OF THE USE OF
  26:modbus/functions/mbfuncinput.c ****  * THIS SOFTWARE, EVEN IF ADVISED OF THE POSSIBILITY OF SUCH DAMAGE.
  27:modbus/functions/mbfuncinput.c ****  *
  28:modbus/functions/mbfuncinput.c ****  * File: $Id: mbfuncinput.c,v 1.10 2007/09/12 10:15:56 wolti Exp $
  29:modbus/functions/mbfuncinput.c ****  */
  30:modbus/functions/mbfuncinput.c **** 
  31:modbus/functions/mbfuncinput.c **** /* ----------------------- System includes ----------------------------------*/
  32:modbus/functions/mbfuncinput.c **** #include "stdlib.h"
  33:modbus/functions/mbfuncinput.c **** #include "string.h"
  34:modbus/functions/mbfuncinput.c **** 
ARM GAS  C:\cygwin\tmp\cclAsMdL.s 			page 3


  35:modbus/functions/mbfuncinput.c **** /* ----------------------- Platform includes --------------------------------*/
  36:modbus/functions/mbfuncinput.c **** #include "port.h"
  37:modbus/functions/mbfuncinput.c **** 
  38:modbus/functions/mbfuncinput.c **** /* ----------------------- Modbus includes ----------------------------------*/
  39:modbus/functions/mbfuncinput.c **** #include "mb.h"
  40:modbus/functions/mbfuncinput.c **** #include "mbframe.h"
  41:modbus/functions/mbfuncinput.c **** #include "mbproto.h"
  42:modbus/functions/mbfuncinput.c **** #include "mbconfig.h"
  43:modbus/functions/mbfuncinput.c **** 
  44:modbus/functions/mbfuncinput.c **** /* ----------------------- Defines ------------------------------------------*/
  45:modbus/functions/mbfuncinput.c **** #define MB_PDU_FUNC_READ_ADDR_OFF           ( MB_PDU_DATA_OFF )
  46:modbus/functions/mbfuncinput.c **** #define MB_PDU_FUNC_READ_REGCNT_OFF         ( MB_PDU_DATA_OFF + 2 )
  47:modbus/functions/mbfuncinput.c **** #define MB_PDU_FUNC_READ_SIZE               ( 4 )
  48:modbus/functions/mbfuncinput.c **** #define MB_PDU_FUNC_READ_REGCNT_MAX         ( 0x007D )
  49:modbus/functions/mbfuncinput.c **** 
  50:modbus/functions/mbfuncinput.c **** #define MB_PDU_FUNC_READ_RSP_BYTECNT_OFF    ( MB_PDU_DATA_OFF )
  51:modbus/functions/mbfuncinput.c **** 
  52:modbus/functions/mbfuncinput.c **** /* ----------------------- Static functions ---------------------------------*/
  53:modbus/functions/mbfuncinput.c **** eMBException    prveMBError2Exception( eMBErrorCode eErrorCode );
  54:modbus/functions/mbfuncinput.c **** 
  55:modbus/functions/mbfuncinput.c **** /* ----------------------- Start implementation -----------------------------*/
  56:modbus/functions/mbfuncinput.c **** #if MB_FUNC_READ_INPUT_ENABLED > 0
  57:modbus/functions/mbfuncinput.c **** 
  58:modbus/functions/mbfuncinput.c **** eMBException
  59:modbus/functions/mbfuncinput.c **** eMBFuncReadInputRegister( UCHAR * pucFrame, USHORT * usLen )
  60:modbus/functions/mbfuncinput.c **** {
  81              		.loc 1 60 0
  82              		.cfi_startproc
  83              		@ args = 0, pretend = 0, frame = 0
  84              		@ frame_needed = 0, uses_anonymous_args = 0
  85              	.LVL0:
  61:modbus/functions/mbfuncinput.c ****     USHORT          usRegAddress;
  62:modbus/functions/mbfuncinput.c ****     USHORT          usRegCount;
  63:modbus/functions/mbfuncinput.c ****     UCHAR          *pucFrameCur;
  64:modbus/functions/mbfuncinput.c **** 
  65:modbus/functions/mbfuncinput.c ****     eMBException    eStatus = MB_EX_NONE;
  66:modbus/functions/mbfuncinput.c ****     eMBErrorCode    eRegStatus;
  67:modbus/functions/mbfuncinput.c **** 	
  68:modbus/functions/mbfuncinput.c **** 	//printf("usLen: %d\n", *usLen);
  69:modbus/functions/mbfuncinput.c ****     if( *usLen == ( MB_PDU_FUNC_READ_SIZE + MB_PDU_SIZE_MIN ) )
  86              		.loc 1 69 0
  87 0000 0B88     		ldrh	r3, [r1]	@ *usLen_4(D), *usLen_4(D)
  88 0002 052B     		cmp	r3, #5	@ *usLen_4(D),
  60:modbus/functions/mbfuncinput.c ****     USHORT          usRegAddress;
  89              		.loc 1 60 0
  90 0004 70B5     		push	{r4, r5, r6, lr}	@
  91              		.cfi_def_cfa_offset 16
  92              		.cfi_offset 4, -16
  93              		.cfi_offset 5, -12
  94              		.cfi_offset 6, -8
  95              		.cfi_offset 14, -4
  60:modbus/functions/mbfuncinput.c ****     USHORT          usRegAddress;
  96              		.loc 1 60 0
  97 0006 0C46     		mov	r4, r1	@ usLen, usLen
  98              		.loc 1 69 0
  99 0008 24D1     		bne	.L5	@,
  70:modbus/functions/mbfuncinput.c ****     {
ARM GAS  C:\cygwin\tmp\cclAsMdL.s 			page 4


  71:modbus/functions/mbfuncinput.c ****         usRegAddress = ( USHORT )( pucFrame[MB_PDU_FUNC_READ_ADDR_OFF] << 8 );
  72:modbus/functions/mbfuncinput.c ****         usRegAddress |= ( USHORT )( pucFrame[MB_PDU_FUNC_READ_ADDR_OFF + 1] );
  73:modbus/functions/mbfuncinput.c ****         usRegAddress++;
  74:modbus/functions/mbfuncinput.c **** 
  75:modbus/functions/mbfuncinput.c ****         usRegCount = ( USHORT )( pucFrame[MB_PDU_FUNC_READ_REGCNT_OFF] << 8 );
 100              		.loc 1 75 0
 101 000a C578     		ldrb	r5, [r0, #3]	@ zero_extendqisi2	@ MEM[(UCHAR *)pucFrame_6(D) + 3B], MEM[(UCHAR *)pucFrame_6(D
  76:modbus/functions/mbfuncinput.c ****         usRegCount |= ( USHORT )( pucFrame[MB_PDU_FUNC_READ_REGCNT_OFF + 1] );
 102              		.loc 1 76 0
 103 000c 0279     		ldrb	r2, [r0, #4]	@ zero_extendqisi2	@ MEM[(UCHAR *)pucFrame_6(D) + 4B], MEM[(UCHAR *)pucFrame_6(D
  71:modbus/functions/mbfuncinput.c ****         usRegAddress |= ( USHORT )( pucFrame[MB_PDU_FUNC_READ_ADDR_OFF + 1] );
 104              		.loc 1 71 0
 105 000e 4178     		ldrb	r1, [r0, #1]	@ zero_extendqisi2	@ D.5094, MEM[(UCHAR *)pucFrame_6(D) + 1B]
 106              	.LVL1:
  72:modbus/functions/mbfuncinput.c ****         usRegAddress++;
 107              		.loc 1 72 0
 108 0010 8378     		ldrb	r3, [r0, #2]	@ zero_extendqisi2	@ D.5094, MEM[(UCHAR *)pucFrame_6(D) + 2B]
 109              	.LVL2:
 110              		.loc 1 76 0
 111 0012 42EA0522 		orr	r2, r2, r5, lsl #8	@, usRegCount, MEM[(UCHAR *)pucFrame_6(D) + 4B], MEM[(UCHAR *)pucFrame_6(D)
 112              	.LVL3:
  77:modbus/functions/mbfuncinput.c **** 
  78:modbus/functions/mbfuncinput.c ****         /* Check if the number of registers to read is valid. If not
  79:modbus/functions/mbfuncinput.c ****          * return Modbus illegal data value exception. 
  80:modbus/functions/mbfuncinput.c ****          */
  81:modbus/functions/mbfuncinput.c ****         if( ( usRegCount >= 1 )
 113              		.loc 1 81 0
 114 0016 551E     		subs	r5, r2, #1	@ tmp148, usRegCount,
 115 0018 7B2D     		cmp	r5, #123	@ tmp148,
 116 001a 1BD8     		bhi	.L5	@,
 117              	.LVL4:
  82:modbus/functions/mbfuncinput.c ****             && ( usRegCount < MB_PDU_FUNC_READ_REGCNT_MAX ) )
  83:modbus/functions/mbfuncinput.c ****         {
  84:modbus/functions/mbfuncinput.c ****             /* Set the current PDU data pointer to the beginning. */
  85:modbus/functions/mbfuncinput.c ****             pucFrameCur = &pucFrame[MB_PDU_FUNC_OFF];
  86:modbus/functions/mbfuncinput.c ****             *usLen = MB_PDU_FUNC_OFF;
 118              		.loc 1 86 0
 119 001c 0025     		movs	r5, #0	@ tmp150,
 120 001e 2580     		strh	r5, [r4]	@ movhi	@ tmp150, *usLen_4(D)
 121              	.LVL5:
  87:modbus/functions/mbfuncinput.c **** 
  88:modbus/functions/mbfuncinput.c ****             /* First byte contains the function code. */
  89:modbus/functions/mbfuncinput.c ****             *pucFrameCur++ = MB_FUNC_READ_INPUT_REGISTER;
 122              		.loc 1 89 0
 123 0020 0425     		movs	r5, #4	@ tmp151,
 124 0022 0570     		strb	r5, [r0]	@ tmp151, *pucFrame_6(D)
  90:modbus/functions/mbfuncinput.c ****             *usLen += 1;
 125              		.loc 1 90 0
 126 0024 2588     		ldrh	r5, [r4]	@, *usLen_4(D)
  91:modbus/functions/mbfuncinput.c **** 
  92:modbus/functions/mbfuncinput.c ****             /* Second byte in the response contain the number of bytes. */
  93:modbus/functions/mbfuncinput.c ****             *pucFrameCur++ = ( UCHAR )( usRegCount * 2 );
 127              		.loc 1 93 0
 128 0026 5600     		lsls	r6, r2, #1	@ tmp157, usRegCount,
  90:modbus/functions/mbfuncinput.c ****             *usLen += 1;
 129              		.loc 1 90 0
 130 0028 0135     		adds	r5, r5, #1	@ tmp154, *usLen_4(D),
ARM GAS  C:\cygwin\tmp\cclAsMdL.s 			page 5


 131 002a 2580     		strh	r5, [r4]	@ movhi	@ tmp154, *usLen_4(D)
 132              	.LVL6:
 133              		.loc 1 93 0
 134 002c 4670     		strb	r6, [r0, #1]	@ tmp157, MEM[(UCHAR *)pucFrame_6(D) + 1B]
  94:modbus/functions/mbfuncinput.c ****             *usLen += 1;
 135              		.loc 1 94 0
 136 002e 2588     		ldrh	r5, [r4]	@, *usLen_4(D)
  72:modbus/functions/mbfuncinput.c ****         usRegAddress++;
 137              		.loc 1 72 0
 138 0030 43EA0121 		orr	r1, r3, r1, lsl #8	@, usRegAddress, D.5094, D.5094,
 139              	.LVL7:
 140              		.loc 1 94 0
 141 0034 0135     		adds	r5, r5, #1	@ tmp160, *usLen_4(D),
  73:modbus/functions/mbfuncinput.c **** 
 142              		.loc 1 73 0
 143 0036 0131     		adds	r1, r1, #1	@ tmp167, usRegAddress,
 144              		.loc 1 94 0
 145 0038 2580     		strh	r5, [r4]	@ movhi	@ tmp160, *usLen_4(D)
  95:modbus/functions/mbfuncinput.c **** 
  96:modbus/functions/mbfuncinput.c ****             eRegStatus =
 146              		.loc 1 96 0
 147 003a 0230     		adds	r0, r0, #2	@, pucFrame,
 148              	.LVL8:
 149 003c 89B2     		uxth	r1, r1	@, tmp167
 150 003e FFF7FEFF 		bl	eMBRegInputCB	@
 151              	.LVL9:
  97:modbus/functions/mbfuncinput.c ****                 eMBRegInputCB( pucFrameCur, usRegAddress, usRegCount );
  98:modbus/functions/mbfuncinput.c **** 
  99:modbus/functions/mbfuncinput.c ****             /* If an error occured convert it into a Modbus exception. */
 100:modbus/functions/mbfuncinput.c ****             if( eRegStatus != MB_ENOERR )
 152              		.loc 1 100 0
 153 0042 18B1     		cbz	r0, .L3	@,
 101:modbus/functions/mbfuncinput.c ****             {
 102:modbus/functions/mbfuncinput.c ****                 eStatus = prveMBError2Exception( eRegStatus );
 103:modbus/functions/mbfuncinput.c ****             }
 104:modbus/functions/mbfuncinput.c ****             else
 105:modbus/functions/mbfuncinput.c ****             {
 106:modbus/functions/mbfuncinput.c ****                 *usLen += usRegCount * 2;
 107:modbus/functions/mbfuncinput.c ****             }
 108:modbus/functions/mbfuncinput.c ****         }
 109:modbus/functions/mbfuncinput.c ****         else
 110:modbus/functions/mbfuncinput.c ****         {
 111:modbus/functions/mbfuncinput.c ****             eStatus = MB_EX_ILLEGAL_DATA_VALUE;
 112:modbus/functions/mbfuncinput.c ****         }
 113:modbus/functions/mbfuncinput.c ****     }
 114:modbus/functions/mbfuncinput.c ****     else
 115:modbus/functions/mbfuncinput.c ****     {
 116:modbus/functions/mbfuncinput.c ****         /* Can't be a valid read input register request because the length
 117:modbus/functions/mbfuncinput.c ****          * is incorrect. */
 118:modbus/functions/mbfuncinput.c ****         eStatus = MB_EX_ILLEGAL_DATA_VALUE;
 119:modbus/functions/mbfuncinput.c ****     }
 120:modbus/functions/mbfuncinput.c ****     return eStatus;
 121:modbus/functions/mbfuncinput.c **** }
 154              		.loc 1 121 0
 155 0044 BDE87040 		pop	{r4, r5, r6, lr}	@
 156              		.cfi_remember_state
 157              		.cfi_restore 14
ARM GAS  C:\cygwin\tmp\cclAsMdL.s 			page 6


 158              		.cfi_restore 6
 159              		.cfi_restore 5
 160              		.cfi_restore 4
 161              		.cfi_def_cfa_offset 0
 162              	.LVL10:
 102:modbus/functions/mbfuncinput.c ****             }
 163              		.loc 1 102 0
 164 0048 FFF7FEBF 		b	prveMBError2Exception	@
 165              	.LVL11:
 166              	.L3:
 167              		.cfi_restore_state
 106:modbus/functions/mbfuncinput.c ****             }
 168              		.loc 1 106 0
 169 004c 2288     		ldrh	r2, [r4]	@, *usLen_4(D)
 170 004e 3244     		add	r2, r2, r6	@ tmp174, tmp157
 171 0050 2280     		strh	r2, [r4]	@ movhi	@ tmp174, *usLen_4(D)
 172 0052 70BD     		pop	{r4, r5, r6, pc}	@
 173              	.LVL12:
 174              	.L5:
 118:modbus/functions/mbfuncinput.c ****     }
 175              		.loc 1 118 0
 176 0054 0320     		movs	r0, #3	@ eStatus,
 177              	.LVL13:
 178              		.loc 1 121 0
 179 0056 70BD     		pop	{r4, r5, r6, pc}	@
 180              		.cfi_endproc
 181              	.LFE0:
 182              		.size	eMBFuncReadInputRegister, .-eMBFuncReadInputRegister
 183              		.text
 184              	.Letext0:
 185              		.file 2 "c:\\program files\\gcc-arm-none-eabi-4_9-2014\\arm-none-eabi\\include\\machine\\_default_
 186              		.file 3 "c:\\program files\\gcc-arm-none-eabi-4_9-2014\\arm-none-eabi\\include\\stdint.h"
 187              		.file 4 "port/port.h"
 188              		.file 5 "modbus/include/mbproto.h"
 189              		.file 6 "modbus/include/mb.h"