ARM GAS  C:\cygwin\tmp\ccQCqKXj.s 			page 1


   1              		.syntax unified
   2              		.cpu cortex-m4
   3              		.fpu softvfp
   4              		.eabi_attribute 20, 1	@ Tag_ABI_FP_denormal
   5              		.eabi_attribute 21, 1	@ Tag_ABI_FP_exceptions
   6              		.eabi_attribute 23, 3	@ Tag_ABI_FP_number_model
   7              		.eabi_attribute 24, 1	@ Tag_ABI_align8_needed
   8              		.eabi_attribute 25, 1	@ Tag_ABI_align8_preserved
   9              		.eabi_attribute 26, 1	@ Tag_ABI_enum_size
  10              		.eabi_attribute 30, 4	@ Tag_ABI_optimization_goals
  11              		.eabi_attribute 34, 1	@ Tag_CPU_unaligned_access
  12              		.eabi_attribute 18, 4	@ Tag_ABI_PCS_wchar_t
  13              		.file	"mbrtu.c"
  14              	@ GNU C (GNU Tools for ARM Embedded Processors) version 4.9.3 20141119 (release) [ARM/embedded-4_9-
  15              	@	compiled by GNU C version 4.7.4, GMP version 4.3.2, MPFR version 2.4.2, MPC version 0.8.1
  16              	@ GGC heuristics: --param ggc-min-expand=100 --param ggc-min-heapsize=131072
  17              	@ options passed:  -I . -I Inc -I port -I modbus/rtu -I modbus/ascii
  18              	@ -I modbus/include -I ../STM32Cube_FW_F4_V1.4.0/Drivers/CMSIS/Include
  19              	@ -I ../STM32Cube_FW_F4_V1.4.0/Drivers/CMSIS/Device/ST/STM32F4xx/Include
  20              	@ -I ../STM32Cube_FW_F4_V1.4.0/Drivers/STM32F4xx_HAL_Driver/Inc
  21              	@ -I ../STM32Cube_FW_F4_V1.4.0/Drivers/CMSIS/Include -imultilib armv7e-m
  22              	@ -iprefix c:\program files\gcc-arm-none-eabi-4_9-2014\bin\../lib/gcc/arm-none-eabi/4.9.3/
  23              	@ -isysroot c:\program files\gcc-arm-none-eabi-4_9-2014\bin\../arm-none-eabi
  24              	@ -MD out/mbrtu.d -MF out/mbrtu.d -MP -MQ out/mbrtu.o -D__USES_INITFINI__
  25              	@ -D USE_HAL_DRIVER -D STM32F4XX -D HSE_VALUE=8000000
  26              	@ -D __STARTUP_CLEAR_BSS -D STM32F411RE -D USE_FULL_ASSERT -D __FPU_USED
  27              	@ modbus/rtu/mbrtu.c -mcpu=cortex-m4 -mthumb -auxbase-strip out/mbrtu.o -g
  28              	@ -ggdb3 -Os -Os -Wall -Wstrict-prototypes -Wextra -std=gnu90
  29              	@ -ffunction-sections -fdata-sections -fverbose-asm
  30              	@ options enabled:  -faggressive-loop-optimizations -fauto-inc-dec
  31              	@ -fbranch-count-reg -fcaller-saves -fcombine-stack-adjustments -fcommon
  32              	@ -fcompare-elim -fcprop-registers -fcrossjumping -fcse-follow-jumps
  33              	@ -fdata-sections -fdefer-pop -fdelete-null-pointer-checks -fdevirtualize
  34              	@ -fdevirtualize-speculatively -fdwarf2-cfi-asm -fearly-inlining
  35              	@ -feliminate-unused-debug-types -fexpensive-optimizations
  36              	@ -fforward-propagate -ffunction-cse -ffunction-sections -fgcse -fgcse-lm
  37              	@ -fgnu-runtime -fgnu-unique -fguess-branch-probability
  38              	@ -fhoist-adjacent-loads -fident -fif-conversion -fif-conversion2
  39              	@ -findirect-inlining -finline -finline-atomics -finline-functions
  40              	@ -finline-functions-called-once -finline-small-functions -fipa-cp
  41              	@ -fipa-profile -fipa-pure-const -fipa-reference -fipa-sra
  42              	@ -fira-hoist-pressure -fira-share-save-slots -fira-share-spill-slots
  43              	@ -fisolate-erroneous-paths-dereference -fivopts -fkeep-static-consts
  44              	@ -fleading-underscore -fmath-errno -fmerge-constants -fmerge-debug-strings
  45              	@ -fomit-frame-pointer -foptimize-sibling-calls -fpartial-inlining
  46              	@ -fpeephole -fpeephole2 -fprefetch-loop-arrays -freg-struct-return
  47              	@ -freorder-blocks -freorder-functions -frerun-cse-after-loop
  48              	@ -fsched-critical-path-heuristic -fsched-dep-count-heuristic
  49              	@ -fsched-group-heuristic -fsched-interblock -fsched-last-insn-heuristic
  50              	@ -fsched-pressure -fsched-rank-heuristic -fsched-spec
  51              	@ -fsched-spec-insn-heuristic -fsched-stalled-insns-dep -fschedule-insns2
  52              	@ -fsection-anchors -fshow-column -fsigned-zeros -fsplit-ivs-in-unroller
  53              	@ -fsplit-wide-types -fstrict-aliasing -fstrict-overflow
  54              	@ -fstrict-volatile-bitfields -fsync-libcalls -fthread-jumps
  55              	@ -ftoplevel-reorder -ftrapping-math -ftree-bit-ccp -ftree-builtin-call-dce
  56              	@ -ftree-ccp -ftree-ch -ftree-coalesce-vars -ftree-copy-prop
  57              	@ -ftree-copyrename -ftree-cselim -ftree-dce -ftree-dominator-opts
ARM GAS  C:\cygwin\tmp\ccQCqKXj.s 			page 2


  58              	@ -ftree-dse -ftree-forwprop -ftree-fre -ftree-loop-if-convert
  59              	@ -ftree-loop-im -ftree-loop-ivcanon -ftree-loop-optimize
  60              	@ -ftree-parallelize-loops= -ftree-phiprop -ftree-pre -ftree-pta
  61              	@ -ftree-reassoc -ftree-scev-cprop -ftree-sink -ftree-slsr -ftree-sra
  62              	@ -ftree-switch-conversion -ftree-tail-merge -ftree-ter -ftree-vrp
  63              	@ -funit-at-a-time -fvar-tracking -fvar-tracking-assignments -fverbose-asm
  64              	@ -fzero-initialized-in-bss -mlittle-endian -mlra
  65              	@ -mpic-data-is-text-relative -msched-prolog -mthumb -munaligned-access
  66              	@ -mvectorize-with-neon-quad
  67              	
  68              		.text
  69              	.Ltext0:
  70              		.cfi_sections	.debug_frame
  71              		.section	.text.eMBRTUInit,"ax",%progbits
  72              		.align	1
  73              		.global	eMBRTUInit
  74              		.thumb
  75              		.thumb_func
  76              		.type	eMBRTUInit, %function
  77              	eMBRTUInit:
  78              	.LFB0:
  79              		.file 1 "modbus/rtu/mbrtu.c"
   1:modbus/rtu/mbrtu.c **** /* 
   2:modbus/rtu/mbrtu.c ****  * FreeModbus Libary: A portable Modbus implementation for Modbus ASCII/RTU.
   3:modbus/rtu/mbrtu.c ****  * Copyright (c) 2006 Christian Walter <wolti@sil.at>
   4:modbus/rtu/mbrtu.c ****  * All rights reserved.
   5:modbus/rtu/mbrtu.c ****  *
   6:modbus/rtu/mbrtu.c ****  * Redistribution and use in source and binary forms, with or without
   7:modbus/rtu/mbrtu.c ****  * modification, are permitted provided that the following conditions
   8:modbus/rtu/mbrtu.c ****  * are met:
   9:modbus/rtu/mbrtu.c ****  * 1. Redistributions of source code must retain the above copyright
  10:modbus/rtu/mbrtu.c ****  *    notice, this list of conditions and the following disclaimer.
  11:modbus/rtu/mbrtu.c ****  * 2. Redistributions in binary form must reproduce the above copyright
  12:modbus/rtu/mbrtu.c ****  *    notice, this list of conditions and the following disclaimer in the
  13:modbus/rtu/mbrtu.c ****  *    documentation and/or other materials provided with the distribution.
  14:modbus/rtu/mbrtu.c ****  * 3. The name of the author may not be used to endorse or promote products
  15:modbus/rtu/mbrtu.c ****  *    derived from this software without specific prior written permission.
  16:modbus/rtu/mbrtu.c ****  *
  17:modbus/rtu/mbrtu.c ****  * THIS SOFTWARE IS PROVIDED BY THE AUTHOR ``AS IS'' AND ANY EXPRESS OR
  18:modbus/rtu/mbrtu.c ****  * IMPLIED WARRANTIES, INCLUDING, BUT NOT LIMITED TO, THE IMPLIED WARRANTIES
  19:modbus/rtu/mbrtu.c ****  * OF MERCHANTABILITY AND FITNESS FOR A PARTICULAR PURPOSE ARE DISCLAIMED.
  20:modbus/rtu/mbrtu.c ****  * IN NO EVENT SHALL THE AUTHOR BE LIABLE FOR ANY DIRECT, INDIRECT,
  21:modbus/rtu/mbrtu.c ****  * INCIDENTAL, SPECIAL, EXEMPLARY, OR CONSEQUENTIAL DAMAGES (INCLUDING, BUT
  22:modbus/rtu/mbrtu.c ****  * NOT LIMITED TO, PROCUREMENT OF SUBSTITUTE GOODS OR SERVICES; LOSS OF USE,
  23:modbus/rtu/mbrtu.c ****  * DATA, OR PROFITS; OR BUSINESS INTERRUPTION) HOWEVER CAUSED AND ON ANY
  24:modbus/rtu/mbrtu.c ****  * THEORY OF LIABILITY, WHETHER IN CONTRACT, STRICT LIABILITY, OR TORT
  25:modbus/rtu/mbrtu.c ****  * (INCLUDING NEGLIGENCE OR OTHERWISE) ARISING IN ANY WAY OUT OF THE USE OF
  26:modbus/rtu/mbrtu.c ****  * THIS SOFTWARE, EVEN IF ADVISED OF THE POSSIBILITY OF SUCH DAMAGE.
  27:modbus/rtu/mbrtu.c ****  *
  28:modbus/rtu/mbrtu.c ****  * File: $Id: mbrtu.c,v 1.18 2007/09/12 10:15:56 wolti Exp $
  29:modbus/rtu/mbrtu.c ****  */
  30:modbus/rtu/mbrtu.c **** 
  31:modbus/rtu/mbrtu.c **** /* ----------------------- System includes ----------------------------------*/
  32:modbus/rtu/mbrtu.c **** #include "stdlib.h"
  33:modbus/rtu/mbrtu.c **** #include "string.h"
  34:modbus/rtu/mbrtu.c **** 
  35:modbus/rtu/mbrtu.c **** /* ----------------------- Platform includes --------------------------------*/
ARM GAS  C:\cygwin\tmp\ccQCqKXj.s 			page 3


  36:modbus/rtu/mbrtu.c **** #include "port.h"
  37:modbus/rtu/mbrtu.c **** 
  38:modbus/rtu/mbrtu.c **** /* ----------------------- Modbus includes ----------------------------------*/
  39:modbus/rtu/mbrtu.c **** #include "mb.h"
  40:modbus/rtu/mbrtu.c **** #include "mbrtu.h"
  41:modbus/rtu/mbrtu.c **** #include "mbframe.h"
  42:modbus/rtu/mbrtu.c **** 
  43:modbus/rtu/mbrtu.c **** #include "mbcrc.h"
  44:modbus/rtu/mbrtu.c **** #include "mbport.h"
  45:modbus/rtu/mbrtu.c **** 
  46:modbus/rtu/mbrtu.c **** /* ----------------------- Defines ------------------------------------------*/
  47:modbus/rtu/mbrtu.c **** #define MB_SER_PDU_SIZE_MIN     4       /*!< Minimum size of a Modbus RTU frame. */
  48:modbus/rtu/mbrtu.c **** #define MB_SER_PDU_SIZE_MAX     256     /*!< Maximum size of a Modbus RTU frame. */
  49:modbus/rtu/mbrtu.c **** #define MB_SER_PDU_SIZE_CRC     2       /*!< Size of CRC field in PDU. */
  50:modbus/rtu/mbrtu.c **** #define MB_SER_PDU_ADDR_OFF     0       /*!< Offset of slave address in Ser-PDU. */
  51:modbus/rtu/mbrtu.c **** #define MB_SER_PDU_PDU_OFF      1       /*!< Offset of Modbus-PDU in Ser-PDU. */
  52:modbus/rtu/mbrtu.c **** 
  53:modbus/rtu/mbrtu.c **** /* ----------------------- Type definitions ---------------------------------*/
  54:modbus/rtu/mbrtu.c **** typedef enum
  55:modbus/rtu/mbrtu.c **** {
  56:modbus/rtu/mbrtu.c ****     STATE_RX_INIT,              /*!< Receiver is in initial state. */
  57:modbus/rtu/mbrtu.c ****     STATE_RX_IDLE,              /*!< Receiver is in idle state. */
  58:modbus/rtu/mbrtu.c ****     STATE_RX_RCV,               /*!< Frame is beeing received. */
  59:modbus/rtu/mbrtu.c ****     STATE_RX_ERROR              /*!< If the frame is invalid. */
  60:modbus/rtu/mbrtu.c **** } eMBRcvState;
  61:modbus/rtu/mbrtu.c **** 
  62:modbus/rtu/mbrtu.c **** typedef enum
  63:modbus/rtu/mbrtu.c **** {
  64:modbus/rtu/mbrtu.c ****     STATE_TX_IDLE,              /*!< Transmitter is in idle state. */
  65:modbus/rtu/mbrtu.c ****     STATE_TX_XMIT               /*!< Transmitter is in transfer state. */
  66:modbus/rtu/mbrtu.c **** } eMBSndState;
  67:modbus/rtu/mbrtu.c **** 
  68:modbus/rtu/mbrtu.c **** /* ----------------------- Static variables ---------------------------------*/
  69:modbus/rtu/mbrtu.c **** static volatile eMBSndState eSndState;
  70:modbus/rtu/mbrtu.c **** static volatile eMBRcvState eRcvState;
  71:modbus/rtu/mbrtu.c **** 
  72:modbus/rtu/mbrtu.c **** volatile UCHAR  ucRTUBuf[MB_SER_PDU_SIZE_MAX];
  73:modbus/rtu/mbrtu.c **** 
  74:modbus/rtu/mbrtu.c **** static volatile UCHAR *pucSndBufferCur;
  75:modbus/rtu/mbrtu.c **** static volatile USHORT usSndBufferCount;
  76:modbus/rtu/mbrtu.c **** 
  77:modbus/rtu/mbrtu.c **** static volatile USHORT usRcvBufferPos;
  78:modbus/rtu/mbrtu.c **** 
  79:modbus/rtu/mbrtu.c **** /* ----------------------- Start implementation -----------------------------*/
  80:modbus/rtu/mbrtu.c **** eMBErrorCode
  81:modbus/rtu/mbrtu.c **** eMBRTUInit( UCHAR ucSlaveAddress, UCHAR ucPort, ULONG ulBaudRate, eMBParity eParity )
  82:modbus/rtu/mbrtu.c **** {
  80              		.loc 1 82 0
  81              		.cfi_startproc
  82              		@ args = 0, pretend = 0, frame = 0
  83              		@ frame_needed = 0, uses_anonymous_args = 0
  84              	.LVL0:
  85 0000 70B5     		push	{r4, r5, r6, lr}	@
  86              		.cfi_def_cfa_offset 16
  87              		.cfi_offset 4, -16
  88              		.cfi_offset 5, -12
  89              		.cfi_offset 6, -8
ARM GAS  C:\cygwin\tmp\ccQCqKXj.s 			page 4


  90              		.cfi_offset 14, -4
  91              		.loc 1 82 0
  92 0002 0E46     		mov	r6, r1	@ ucPort, ucPort
  93 0004 1446     		mov	r4, r2	@ ulBaudRate, ulBaudRate
  94 0006 1D46     		mov	r5, r3	@ eParity, eParity
  83:modbus/rtu/mbrtu.c ****     eMBErrorCode    eStatus = MB_ENOERR;
  84:modbus/rtu/mbrtu.c ****     ULONG           usTimerT35_50us;
  85:modbus/rtu/mbrtu.c **** 
  86:modbus/rtu/mbrtu.c ****     ( void )ucSlaveAddress;
  87:modbus/rtu/mbrtu.c ****     ENTER_CRITICAL_SECTION(  );
  95              		.loc 1 87 0
  96 0008 FFF7FEFF 		bl	EnterCriticalSection	@
  97              	.LVL1:
  88:modbus/rtu/mbrtu.c **** 
  89:modbus/rtu/mbrtu.c ****     /* Modbus RTU uses 8 Databits. */
  90:modbus/rtu/mbrtu.c ****     if( xMBPortSerialInit( ucPort, ulBaudRate, 8, eParity ) != TRUE )
  98              		.loc 1 90 0
  99 000c 3046     		mov	r0, r6	@, ucPort
 100 000e 2146     		mov	r1, r4	@, ulBaudRate
 101 0010 0822     		movs	r2, #8	@,
 102 0012 2B46     		mov	r3, r5	@, eParity
 103 0014 FFF7FEFF 		bl	xMBPortSerialInit	@
 104              	.LVL2:
 105 0018 0128     		cmp	r0, #1	@,
 106 001a 0FD1     		bne	.L4	@,
  91:modbus/rtu/mbrtu.c ****     {
  92:modbus/rtu/mbrtu.c ****         eStatus = MB_EPORTERR;
  93:modbus/rtu/mbrtu.c ****     }
  94:modbus/rtu/mbrtu.c ****     else
  95:modbus/rtu/mbrtu.c ****     {
  96:modbus/rtu/mbrtu.c ****         /* If baudrate > 19200 then we should use the fixed timer values
  97:modbus/rtu/mbrtu.c ****          * t35 = 1750us. Otherwise t35 must be 3.5 times the character time.
  98:modbus/rtu/mbrtu.c ****          */
  99:modbus/rtu/mbrtu.c ****         if( ulBaudRate > 19200 )
 107              		.loc 1 99 0
 108 001c B4F5964F 		cmp	r4, #19200	@ ulBaudRate,
 100:modbus/rtu/mbrtu.c ****         {
 101:modbus/rtu/mbrtu.c ****             usTimerT35_50us = 35;       /* 1800us. */
 102:modbus/rtu/mbrtu.c ****         }
 103:modbus/rtu/mbrtu.c ****         else
 104:modbus/rtu/mbrtu.c ****         {
 105:modbus/rtu/mbrtu.c ****             /* The timer reload value for a character is given by:
 106:modbus/rtu/mbrtu.c ****              *
 107:modbus/rtu/mbrtu.c ****              * ChTimeValue = Ticks_per_1s / ( Baudrate / 11 )
 108:modbus/rtu/mbrtu.c ****              *             = 11 * Ticks_per_1s / Baudrate
 109:modbus/rtu/mbrtu.c ****              *             = 220000 / Baudrate
 110:modbus/rtu/mbrtu.c ****              * The reload for t3.5 is 1.5 times this value and similary
 111:modbus/rtu/mbrtu.c ****              * for t3.5.
 112:modbus/rtu/mbrtu.c ****              */
 113:modbus/rtu/mbrtu.c ****             usTimerT35_50us = ( 7UL * 220000UL ) / ( 2UL * ulBaudRate );
 109              		.loc 1 113 0
 110 0020 97BF     		itett	ls
 111 0022 0948     		ldrls	r0, .L8	@ tmp123,
 101:modbus/rtu/mbrtu.c ****         }
 112              		.loc 1 101 0
 113 0024 2320     		movhi	r0, #35	@ usTimerT35_50us,
 114              		.loc 1 113 0
ARM GAS  C:\cygwin\tmp\ccQCqKXj.s 			page 5


 115 0026 6400     		lslls	r4, r4, #1	@ D.5271, ulBaudRate,
 116              	.LVL3:
 117 0028 B0FBF4F0 		udivls	r0, r0, r4	@ usTimerT35_50us, tmp123, D.5271
 118              	.LVL4:
 114:modbus/rtu/mbrtu.c ****         }
 115:modbus/rtu/mbrtu.c ****         if( xMBPortTimersInit( ( USHORT ) usTimerT35_50us ) != TRUE )
 119              		.loc 1 115 0
 120 002c 80B2     		uxth	r0, r0	@, usTimerT35_50us
 121              	.LVL5:
 122 002e FFF7FEFF 		bl	xMBPortTimersInit	@
 123              	.LVL6:
 124 0032 0128     		cmp	r0, #1	@,
 116:modbus/rtu/mbrtu.c ****         {
 117:modbus/rtu/mbrtu.c ****             eStatus = MB_EPORTERR;
 125              		.loc 1 117 0
 126 0034 0CBF     		ite	eq
 127 0036 0024     		moveq	r4, #0	@ eStatus,
 128 0038 0324     		movne	r4, #3	@ eStatus,
 129 003a 00E0     		b	.L2	@
 130              	.LVL7:
 131              	.L4:
  92:modbus/rtu/mbrtu.c ****     }
 132              		.loc 1 92 0
 133 003c 0324     		movs	r4, #3	@ eStatus,
 134              	.LVL8:
 135              	.L2:
 118:modbus/rtu/mbrtu.c ****         }
 119:modbus/rtu/mbrtu.c ****     }
 120:modbus/rtu/mbrtu.c ****     EXIT_CRITICAL_SECTION(  );
 136              		.loc 1 120 0
 137 003e FFF7FEFF 		bl	ExitCriticalSection	@
 138              	.LVL9:
 121:modbus/rtu/mbrtu.c **** 
 122:modbus/rtu/mbrtu.c ****     return eStatus;
 123:modbus/rtu/mbrtu.c **** }
 139              		.loc 1 123 0
 140 0042 2046     		mov	r0, r4	@, eStatus
 141 0044 70BD     		pop	{r4, r5, r6, pc}	@
 142              	.LVL10:
 143              	.L9:
 144 0046 00BF     		.align	2
 145              	.L8:
 146 0048 A07F1700 		.word	1540000
 147              		.cfi_endproc
 148              	.LFE0:
 149              		.size	eMBRTUInit, .-eMBRTUInit
 150              		.section	.text.eMBRTUStart,"ax",%progbits
 151              		.align	1
 152              		.global	eMBRTUStart
 153              		.thumb
 154              		.thumb_func
 155              		.type	eMBRTUStart, %function
 156              	eMBRTUStart:
 157              	.LFB1:
 124:modbus/rtu/mbrtu.c **** 
 125:modbus/rtu/mbrtu.c **** void
 126:modbus/rtu/mbrtu.c **** eMBRTUStart( void )
ARM GAS  C:\cygwin\tmp\ccQCqKXj.s 			page 6


 127:modbus/rtu/mbrtu.c **** {
 158              		.loc 1 127 0
 159              		.cfi_startproc
 160              		@ args = 0, pretend = 0, frame = 0
 161              		@ frame_needed = 0, uses_anonymous_args = 0
 162 0000 08B5     		push	{r3, lr}	@
 163              		.cfi_def_cfa_offset 8
 164              		.cfi_offset 3, -8
 165              		.cfi_offset 14, -4
 128:modbus/rtu/mbrtu.c ****     ENTER_CRITICAL_SECTION(  );
 166              		.loc 1 128 0
 167 0002 FFF7FEFF 		bl	EnterCriticalSection	@
 168              	.LVL11:
 129:modbus/rtu/mbrtu.c ****     /* Initially the receiver is in the state STATE_RX_INIT. we start
 130:modbus/rtu/mbrtu.c ****      * the timer and if no character is received within t3.5 we change
 131:modbus/rtu/mbrtu.c ****      * to STATE_RX_IDLE. This makes sure that we delay startup of the
 132:modbus/rtu/mbrtu.c ****      * modbus protocol stack until the bus is free.
 133:modbus/rtu/mbrtu.c ****      */
 134:modbus/rtu/mbrtu.c ****     eRcvState = STATE_RX_INIT;
 169              		.loc 1 134 0
 170 0006 064B     		ldr	r3, .L11	@ tmp110,
 171 0008 0021     		movs	r1, #0	@ tmp111,
 135:modbus/rtu/mbrtu.c ****     vMBPortSerialEnable( TRUE, FALSE );
 172              		.loc 1 135 0
 173 000a 0120     		movs	r0, #1	@,
 134:modbus/rtu/mbrtu.c ****     vMBPortSerialEnable( TRUE, FALSE );
 174              		.loc 1 134 0
 175 000c 1970     		strb	r1, [r3]	@ tmp111, eRcvState
 176              		.loc 1 135 0
 177 000e FFF7FEFF 		bl	vMBPortSerialEnable	@
 178              	.LVL12:
 136:modbus/rtu/mbrtu.c ****     vMBPortTimersEnable(  );
 179              		.loc 1 136 0
 180 0012 FFF7FEFF 		bl	vMBPortTimersEnable	@
 181              	.LVL13:
 137:modbus/rtu/mbrtu.c **** 
 138:modbus/rtu/mbrtu.c ****     EXIT_CRITICAL_SECTION(  );
 139:modbus/rtu/mbrtu.c **** }
 182              		.loc 1 139 0
 183 0016 BDE80840 		pop	{r3, lr}	@
 184              		.cfi_restore 14
 185              		.cfi_restore 3
 186              		.cfi_def_cfa_offset 0
 138:modbus/rtu/mbrtu.c **** }
 187              		.loc 1 138 0
 188 001a FFF7FEBF 		b	ExitCriticalSection	@
 189              	.LVL14:
 190              	.L12:
 191 001e 00BF     		.align	2
 192              	.L11:
 193 0020 00000000 		.word	.LANCHOR0
 194              		.cfi_endproc
 195              	.LFE1:
 196              		.size	eMBRTUStart, .-eMBRTUStart
 197              		.section	.text.eMBRTUStop,"ax",%progbits
 198              		.align	1
 199              		.global	eMBRTUStop
ARM GAS  C:\cygwin\tmp\ccQCqKXj.s 			page 7


 200              		.thumb
 201              		.thumb_func
 202              		.type	eMBRTUStop, %function
 203              	eMBRTUStop:
 204              	.LFB2:
 140:modbus/rtu/mbrtu.c **** 
 141:modbus/rtu/mbrtu.c **** void
 142:modbus/rtu/mbrtu.c **** eMBRTUStop( void )
 143:modbus/rtu/mbrtu.c **** {
 205              		.loc 1 143 0
 206              		.cfi_startproc
 207              		@ args = 0, pretend = 0, frame = 0
 208              		@ frame_needed = 0, uses_anonymous_args = 0
 209 0000 08B5     		push	{r3, lr}	@
 210              		.cfi_def_cfa_offset 8
 211              		.cfi_offset 3, -8
 212              		.cfi_offset 14, -4
 144:modbus/rtu/mbrtu.c ****     ENTER_CRITICAL_SECTION(  );
 213              		.loc 1 144 0
 214 0002 FFF7FEFF 		bl	EnterCriticalSection	@
 215              	.LVL15:
 145:modbus/rtu/mbrtu.c ****     vMBPortSerialEnable( FALSE, FALSE );
 216              		.loc 1 145 0
 217 0006 0020     		movs	r0, #0	@,
 218 0008 0146     		mov	r1, r0	@,
 219 000a FFF7FEFF 		bl	vMBPortSerialEnable	@
 220              	.LVL16:
 146:modbus/rtu/mbrtu.c ****     vMBPortTimersDisable(  );
 221              		.loc 1 146 0
 222 000e FFF7FEFF 		bl	vMBPortTimersDisable	@
 223              	.LVL17:
 147:modbus/rtu/mbrtu.c ****     EXIT_CRITICAL_SECTION(  );
 148:modbus/rtu/mbrtu.c **** }
 224              		.loc 1 148 0
 225 0012 BDE80840 		pop	{r3, lr}	@
 226              		.cfi_restore 14
 227              		.cfi_restore 3
 228              		.cfi_def_cfa_offset 0
 147:modbus/rtu/mbrtu.c ****     EXIT_CRITICAL_SECTION(  );
 229              		.loc 1 147 0
 230 0016 FFF7FEBF 		b	ExitCriticalSection	@
 231              	.LVL18:
 232              		.cfi_endproc
 233              	.LFE2:
 234              		.size	eMBRTUStop, .-eMBRTUStop
 235              		.section	.text.eMBRTUReceive,"ax",%progbits
 236              		.align	1
 237              		.global	eMBRTUReceive
 238              		.thumb
 239              		.thumb_func
 240              		.type	eMBRTUReceive, %function
 241              	eMBRTUReceive:
 242              	.LFB3:
 149:modbus/rtu/mbrtu.c **** 
 150:modbus/rtu/mbrtu.c **** eMBErrorCode
 151:modbus/rtu/mbrtu.c **** eMBRTUReceive(UCHAR * pucRcvAddress, UCHAR ** pucFrame, USHORT * pusLength)
 152:modbus/rtu/mbrtu.c **** {
ARM GAS  C:\cygwin\tmp\ccQCqKXj.s 			page 8


 243              		.loc 1 152 0
 244              		.cfi_startproc
 245              		@ args = 0, pretend = 0, frame = 0
 246              		@ frame_needed = 0, uses_anonymous_args = 0
 247              	.LVL19:
 248 0000 2DE9F041 		push	{r4, r5, r6, r7, r8, lr}	@
 249              		.cfi_def_cfa_offset 24
 250              		.cfi_offset 4, -24
 251              		.cfi_offset 5, -20
 252              		.cfi_offset 6, -16
 253              		.cfi_offset 7, -12
 254              		.cfi_offset 8, -8
 255              		.cfi_offset 14, -4
 153:modbus/rtu/mbrtu.c ****     BOOL            xFrameReceived = FALSE;
 154:modbus/rtu/mbrtu.c ****     eMBErrorCode    eStatus = MB_ENOERR;
 155:modbus/rtu/mbrtu.c **** 
 156:modbus/rtu/mbrtu.c ****     ENTER_CRITICAL_SECTION();
 157:modbus/rtu/mbrtu.c ****     assert( usRcvBufferPos < MB_SER_PDU_SIZE_MAX );
 256              		.loc 1 157 0
 257 0004 164D     		ldr	r5, .L19	@ tmp122,
 152:modbus/rtu/mbrtu.c ****     BOOL            xFrameReceived = FALSE;
 258              		.loc 1 152 0
 259 0006 8046     		mov	r8, r0	@ pucRcvAddress, pucRcvAddress
 260 0008 0E46     		mov	r6, r1	@ pucFrame, pucFrame
 261 000a 1746     		mov	r7, r2	@ pusLength, pusLength
 156:modbus/rtu/mbrtu.c ****     assert( usRcvBufferPos < MB_SER_PDU_SIZE_MAX );
 262              		.loc 1 156 0
 263 000c FFF7FEFF 		bl	EnterCriticalSection	@
 264              	.LVL20:
 265              		.loc 1 157 0
 266 0010 2B88     		ldrh	r3, [r5]	@, usRcvBufferPos
 267 0012 9BB2     		uxth	r3, r3	@ D.5279, usRcvBufferPos
 268 0014 FF2B     		cmp	r3, #255	@ D.5279,
 269 0016 05D9     		bls	.L15	@,
 270              		.loc 1 157 0 is_stmt 0 discriminator 1
 271 0018 1248     		ldr	r0, .L19+4	@,
 272 001a 134A     		ldr	r2, .L19+8	@,
 273 001c 134B     		ldr	r3, .L19+12	@,
 274 001e 9D21     		movs	r1, #157	@,
 275 0020 FFF7FEFF 		bl	__assert_func	@
 276              	.LVL21:
 277              	.L15:
 158:modbus/rtu/mbrtu.c **** 	//printf("ucRTUBuf[%d]: %d\n", usRcvBufferPos, ucRTUBuf[usRcvBufferPos]);
 159:modbus/rtu/mbrtu.c **** 
 160:modbus/rtu/mbrtu.c ****     /* Length and CRC check */
 161:modbus/rtu/mbrtu.c ****     if( (usRcvBufferPos >= MB_SER_PDU_SIZE_MIN)
 278              		.loc 1 161 0 is_stmt 1
 279 0024 2B88     		ldrh	r3, [r5]	@, usRcvBufferPos
 280 0026 9BB2     		uxth	r3, r3	@ D.5279, usRcvBufferPos
 281 0028 032B     		cmp	r3, #3	@ D.5279,
 282 002a 01D8     		bhi	.L16	@,
 283              	.L18:
 162:modbus/rtu/mbrtu.c ****         && (usMBCRC16((UCHAR *)ucRTUBuf, usRcvBufferPos) == 0))
 163:modbus/rtu/mbrtu.c ****     {
 164:modbus/rtu/mbrtu.c ****         /* Save the address field. All frames are passed to the upper layed
 165:modbus/rtu/mbrtu.c ****          * and the decision if a frame is used is done there.
 166:modbus/rtu/mbrtu.c ****          */
ARM GAS  C:\cygwin\tmp\ccQCqKXj.s 			page 9


 167:modbus/rtu/mbrtu.c **** 		//printf("ucRTUBuf[%d]: %d\n", MB_SER_PDU_ADDR_OFF, ucRTUBuf[MB_SER_PDU_ADDR_OFF]);
 168:modbus/rtu/mbrtu.c ****         *pucRcvAddress = ucRTUBuf[MB_SER_PDU_ADDR_OFF];
 169:modbus/rtu/mbrtu.c **** 
 170:modbus/rtu/mbrtu.c ****         /* Total length of Modbus-PDU is Modbus-Serial-Line-PDU minus
 171:modbus/rtu/mbrtu.c ****          * size of address field and CRC checksum.
 172:modbus/rtu/mbrtu.c ****          */
 173:modbus/rtu/mbrtu.c ****         *pusLength = ( USHORT )( usRcvBufferPos - MB_SER_PDU_PDU_OFF - MB_SER_PDU_SIZE_CRC );
 174:modbus/rtu/mbrtu.c **** 
 175:modbus/rtu/mbrtu.c ****         /* Return the start of the Modbus PDU to the caller. */
 176:modbus/rtu/mbrtu.c **** 		//printf("ucRTUBuf[%d]: %d\n", MB_SER_PDU_PDU_OFF, ucRTUBuf[MB_SER_PDU_PDU_OFF]);
 177:modbus/rtu/mbrtu.c ****         *pucFrame = (UCHAR *)&ucRTUBuf[MB_SER_PDU_PDU_OFF];
 178:modbus/rtu/mbrtu.c ****         xFrameReceived = TRUE;
 179:modbus/rtu/mbrtu.c ****     }
 180:modbus/rtu/mbrtu.c ****     else
 181:modbus/rtu/mbrtu.c ****     {
 182:modbus/rtu/mbrtu.c ****         eStatus = MB_EIO;
 284              		.loc 1 182 0
 285 002c 0524     		movs	r4, #5	@ eStatus,
 286 002e 11E0     		b	.L17	@
 287              	.L16:
 162:modbus/rtu/mbrtu.c ****         && (usMBCRC16((UCHAR *)ucRTUBuf, usRcvBufferPos) == 0))
 288              		.loc 1 162 0
 289 0030 2988     		ldrh	r1, [r5]	@, usRcvBufferPos
 290 0032 0F4C     		ldr	r4, .L19+16	@ tmp131,
 291 0034 89B2     		uxth	r1, r1	@, usRcvBufferPos
 292 0036 2046     		mov	r0, r4	@, tmp131
 293 0038 FFF7FEFF 		bl	usMBCRC16	@
 294              	.LVL22:
 295 003c 0028     		cmp	r0, #0	@ tmp132
 296 003e F5D1     		bne	.L18	@
 168:modbus/rtu/mbrtu.c **** 
 297              		.loc 1 168 0
 298 0040 2346     		mov	r3, r4	@ tmp141, tmp131
 154:modbus/rtu/mbrtu.c **** 
 299              		.loc 1 154 0
 300 0042 0446     		mov	r4, r0	@ eStatus, tmp132
 168:modbus/rtu/mbrtu.c **** 
 301              		.loc 1 168 0
 302 0044 13F8012B 		ldrb	r2, [r3], #1	@ zero_extendqisi2	@ ucRTUBuf, ucRTUBuf
 303 0048 88F80020 		strb	r2, [r8]	@ ucRTUBuf, *pucRcvAddress_11(D)
 173:modbus/rtu/mbrtu.c **** 
 304              		.loc 1 173 0
 305 004c 2A88     		ldrh	r2, [r5]	@, usRcvBufferPos
 306 004e 033A     		subs	r2, r2, #3	@ tmp139, usRcvBufferPos,
 307 0050 3A80     		strh	r2, [r7]	@ movhi	@ tmp139, *pusLength_15(D)
 177:modbus/rtu/mbrtu.c ****         xFrameReceived = TRUE;
 308              		.loc 1 177 0
 309 0052 3360     		str	r3, [r6]	@ tmp141, *pucFrame_17(D)
 310              	.LVL23:
 311              	.L17:
 183:modbus/rtu/mbrtu.c ****     }
 184:modbus/rtu/mbrtu.c **** 
 185:modbus/rtu/mbrtu.c ****     EXIT_CRITICAL_SECTION();
 312              		.loc 1 185 0
 313 0054 FFF7FEFF 		bl	ExitCriticalSection	@
 314              	.LVL24:
 186:modbus/rtu/mbrtu.c ****     return eStatus;
ARM GAS  C:\cygwin\tmp\ccQCqKXj.s 			page 10


 187:modbus/rtu/mbrtu.c **** }
 315              		.loc 1 187 0
 316 0058 2046     		mov	r0, r4	@, eStatus
 317 005a BDE8F081 		pop	{r4, r5, r6, r7, r8, pc}	@
 318              	.LVL25:
 319              	.L20:
 320 005e 00BF     		.align	2
 321              	.L19:
 322 0060 00000000 		.word	.LANCHOR1
 323 0064 00000000 		.word	.LC0
 324 0068 00000000 		.word	.LANCHOR2
 325 006c 13000000 		.word	.LC1
 326 0070 00000000 		.word	ucRTUBuf
 327              		.cfi_endproc
 328              	.LFE3:
 329              		.size	eMBRTUReceive, .-eMBRTUReceive
 330              		.section	.text.eMBRTUSend,"ax",%progbits
 331              		.align	1
 332              		.global	eMBRTUSend
 333              		.thumb
 334              		.thumb_func
 335              		.type	eMBRTUSend, %function
 336              	eMBRTUSend:
 337              	.LFB4:
 188:modbus/rtu/mbrtu.c **** 
 189:modbus/rtu/mbrtu.c **** eMBErrorCode
 190:modbus/rtu/mbrtu.c **** eMBRTUSend( UCHAR ucSlaveAddress, const UCHAR * pucFrame, USHORT usLength )
 191:modbus/rtu/mbrtu.c **** {
 338              		.loc 1 191 0
 339              		.cfi_startproc
 340              		@ args = 0, pretend = 0, frame = 0
 341              		@ frame_needed = 0, uses_anonymous_args = 0
 342              	.LVL26:
 343 0000 2DE9F041 		push	{r4, r5, r6, r7, r8, lr}	@
 344              		.cfi_def_cfa_offset 24
 345              		.cfi_offset 4, -24
 346              		.cfi_offset 5, -20
 347              		.cfi_offset 6, -16
 348              		.cfi_offset 7, -12
 349              		.cfi_offset 8, -8
 350              		.cfi_offset 14, -4
 351              		.loc 1 191 0
 352 0004 8046     		mov	r8, r0	@ ucSlaveAddress, ucSlaveAddress
 353 0006 0E46     		mov	r6, r1	@ pucFrame, pucFrame
 354 0008 1746     		mov	r7, r2	@ usLength, usLength
 192:modbus/rtu/mbrtu.c ****     eMBErrorCode    eStatus = MB_ENOERR;
 193:modbus/rtu/mbrtu.c ****     USHORT          usCRC16;
 194:modbus/rtu/mbrtu.c **** 
 195:modbus/rtu/mbrtu.c ****     ENTER_CRITICAL_SECTION();
 355              		.loc 1 195 0
 356 000a FFF7FEFF 		bl	EnterCriticalSection	@
 357              	.LVL27:
 196:modbus/rtu/mbrtu.c **** 
 197:modbus/rtu/mbrtu.c ****     /* Check if the receiver is still in idle state. If not we where to
 198:modbus/rtu/mbrtu.c ****      * slow with processing the received frame and the master sent another
 199:modbus/rtu/mbrtu.c ****      * frame on the network. We have to abort sending the frame.
 200:modbus/rtu/mbrtu.c ****      */
ARM GAS  C:\cygwin\tmp\ccQCqKXj.s 			page 11


 201:modbus/rtu/mbrtu.c ****     if( eRcvState == STATE_RX_IDLE )
 358              		.loc 1 201 0
 359 000e 194B     		ldr	r3, .L24	@ tmp130,
 360 0010 1D78     		ldrb	r5, [r3]	@ zero_extendqisi2	@ eRcvState, eRcvState
 361 0012 EDB2     		uxtb	r5, r5	@ D.5285, eRcvState
 362 0014 012D     		cmp	r5, #1	@ D.5285,
 363 0016 27D1     		bne	.L23	@,
 202:modbus/rtu/mbrtu.c ****     {
 203:modbus/rtu/mbrtu.c ****         /* First byte before the Modbus-PDU is the slave address. */
 204:modbus/rtu/mbrtu.c ****         pucSndBufferCur = ( UCHAR * ) pucFrame - 1;
 205:modbus/rtu/mbrtu.c ****         usSndBufferCount = 1;
 364              		.loc 1 205 0
 365 0018 174C     		ldr	r4, .L24+4	@ tmp134,
 204:modbus/rtu/mbrtu.c ****         usSndBufferCount = 1;
 366              		.loc 1 204 0
 367 001a 184B     		ldr	r3, .L24+8	@ tmp133,
 368              		.loc 1 205 0
 369 001c 2580     		strh	r5, [r4]	@ movhi	@ D.5285, usSndBufferCount
 204:modbus/rtu/mbrtu.c ****         usSndBufferCount = 1;
 370              		.loc 1 204 0
 371 001e 701E     		subs	r0, r6, #1	@ D.5286, pucFrame,
 206:modbus/rtu/mbrtu.c **** 
 207:modbus/rtu/mbrtu.c ****         /* Now copy the Modbus-PDU into the Modbus-Serial-Line-PDU. */
 208:modbus/rtu/mbrtu.c ****         pucSndBufferCur[MB_SER_PDU_ADDR_OFF] = ucSlaveAddress;
 372              		.loc 1 208 0
 373 0020 06F8018C 		strb	r8, [r6, #-1]	@ ucSlaveAddress, MEM[(volatile UCHAR *)pucFrame_6(D) + 4294967295B]
 204:modbus/rtu/mbrtu.c ****         usSndBufferCount = 1;
 374              		.loc 1 204 0
 375 0024 1860     		str	r0, [r3]	@ D.5286, pucSndBufferCur
 209:modbus/rtu/mbrtu.c ****         usSndBufferCount += usLength;
 376              		.loc 1 209 0
 377 0026 2388     		ldrh	r3, [r4]	@, usSndBufferCount
 378 0028 17FA83F2 		uxtah	r2, r7, r3	@ tmp140, usLength, usSndBufferCount
 379 002c 92B2     		uxth	r2, r2	@ D.5287, tmp140
 380 002e 2280     		strh	r2, [r4]	@ movhi	@ D.5287, usSndBufferCount
 210:modbus/rtu/mbrtu.c **** 
 211:modbus/rtu/mbrtu.c ****         /* Calculate CRC16 checksum for Modbus-Serial-Line-PDU. */
 212:modbus/rtu/mbrtu.c ****         usCRC16 = usMBCRC16( ( UCHAR * ) pucSndBufferCur, usSndBufferCount );
 381              		.loc 1 212 0
 382 0030 2188     		ldrh	r1, [r4]	@, usSndBufferCount
 383 0032 89B2     		uxth	r1, r1	@, usSndBufferCount
 384 0034 FFF7FEFF 		bl	usMBCRC16	@
 385              	.LVL28:
 213:modbus/rtu/mbrtu.c ****         ucRTUBuf[usSndBufferCount++] = ( UCHAR )( usCRC16 & 0xFF );
 386              		.loc 1 213 0
 387 0038 2388     		ldrh	r3, [r4]	@, usSndBufferCount
 388 003a 1149     		ldr	r1, .L24+12	@ tmp151,
 389 003c 9BB2     		uxth	r3, r3	@ D.5287, usSndBufferCount
 390 003e 5A1C     		adds	r2, r3, #1	@ tmp148, D.5287,
 391 0040 92B2     		uxth	r2, r2	@ D.5287, tmp148
 392 0042 2280     		strh	r2, [r4]	@ movhi	@ D.5287, usSndBufferCount
 393 0044 C2B2     		uxtb	r2, r0	@ D.5289, tmp145
 394 0046 CA54     		strb	r2, [r1, r3]	@ D.5289, ucRTUBuf
 214:modbus/rtu/mbrtu.c ****         ucRTUBuf[usSndBufferCount++] = ( UCHAR )( usCRC16 >> 8 );
 395              		.loc 1 214 0
 396 0048 2388     		ldrh	r3, [r4]	@, usSndBufferCount
 397 004a 9BB2     		uxth	r3, r3	@ D.5287, usSndBufferCount
ARM GAS  C:\cygwin\tmp\ccQCqKXj.s 			page 12


 398 004c 5A1C     		adds	r2, r3, #1	@ tmp155, D.5287,
 399 004e 92B2     		uxth	r2, r2	@ D.5287, tmp155
 400 0050 C0F30720 		ubfx	r0, r0, #8, #8	@ D.5289, tmp145,,
 401              	.LVL29:
 402 0054 2280     		strh	r2, [r4]	@ movhi	@ D.5287, usSndBufferCount
 403 0056 C854     		strb	r0, [r1, r3]	@ D.5289, ucRTUBuf
 215:modbus/rtu/mbrtu.c **** 
 216:modbus/rtu/mbrtu.c ****         /* Activate the transmitter. */
 217:modbus/rtu/mbrtu.c ****         eSndState = STATE_TX_XMIT;
 404              		.loc 1 217 0
 405 0058 0A4B     		ldr	r3, .L24+16	@ tmp162,
 218:modbus/rtu/mbrtu.c ****         vMBPortSerialEnable( FALSE, TRUE );
 406              		.loc 1 218 0
 407 005a 0020     		movs	r0, #0	@,
 408 005c 2946     		mov	r1, r5	@, D.5285
 217:modbus/rtu/mbrtu.c ****         vMBPortSerialEnable( FALSE, TRUE );
 409              		.loc 1 217 0
 410 005e 1D70     		strb	r5, [r3]	@ D.5285, eSndState
 192:modbus/rtu/mbrtu.c ****     USHORT          usCRC16;
 411              		.loc 1 192 0
 412 0060 0024     		movs	r4, #0	@ eStatus,
 413              		.loc 1 218 0
 414 0062 FFF7FEFF 		bl	vMBPortSerialEnable	@
 415              	.LVL30:
 416 0066 00E0     		b	.L22	@
 417              	.L23:
 219:modbus/rtu/mbrtu.c ****     }
 220:modbus/rtu/mbrtu.c ****     else
 221:modbus/rtu/mbrtu.c ****     {
 222:modbus/rtu/mbrtu.c ****         eStatus = MB_EIO;
 418              		.loc 1 222 0
 419 0068 0524     		movs	r4, #5	@ eStatus,
 420              	.L22:
 421              	.LVL31:
 223:modbus/rtu/mbrtu.c ****     }
 224:modbus/rtu/mbrtu.c ****     EXIT_CRITICAL_SECTION();
 422              		.loc 1 224 0
 423 006a FFF7FEFF 		bl	ExitCriticalSection	@
 424              	.LVL32:
 225:modbus/rtu/mbrtu.c ****     return eStatus;
 226:modbus/rtu/mbrtu.c **** }
 425              		.loc 1 226 0
 426 006e 2046     		mov	r0, r4	@, eStatus
 427 0070 BDE8F081 		pop	{r4, r5, r6, r7, r8, pc}	@
 428              	.LVL33:
 429              	.L25:
 430              		.align	2
 431              	.L24:
 432 0074 00000000 		.word	.LANCHOR0
 433 0078 00000000 		.word	.LANCHOR4
 434 007c 00000000 		.word	.LANCHOR3
 435 0080 00000000 		.word	ucRTUBuf
 436 0084 00000000 		.word	.LANCHOR5
 437              		.cfi_endproc
 438              	.LFE4:
 439              		.size	eMBRTUSend, .-eMBRTUSend
 440              		.section	.text.xMBRTUReceiveFSM,"ax",%progbits
ARM GAS  C:\cygwin\tmp\ccQCqKXj.s 			page 13


 441              		.align	1
 442              		.global	xMBRTUReceiveFSM
 443              		.thumb
 444              		.thumb_func
 445              		.type	xMBRTUReceiveFSM, %function
 446              	xMBRTUReceiveFSM:
 447              	.LFB5:
 227:modbus/rtu/mbrtu.c **** 
 228:modbus/rtu/mbrtu.c **** BOOL
 229:modbus/rtu/mbrtu.c **** xMBRTUReceiveFSM( void )
 230:modbus/rtu/mbrtu.c **** {
 448              		.loc 1 230 0
 449              		.cfi_startproc
 450              		@ args = 0, pretend = 0, frame = 8
 451              		@ frame_needed = 0, uses_anonymous_args = 0
 452              	.LVL34:
 231:modbus/rtu/mbrtu.c ****     BOOL            xTaskNeedSwitch = FALSE;
 232:modbus/rtu/mbrtu.c ****     UCHAR           ucByte;
 233:modbus/rtu/mbrtu.c **** 
 234:modbus/rtu/mbrtu.c ****     assert( eSndState == STATE_TX_IDLE );
 453              		.loc 1 234 0
 454 0000 1D4B     		ldr	r3, .L37	@ tmp122,
 455 0002 1B78     		ldrb	r3, [r3]	@ zero_extendqisi2	@ eSndState, eSndState
 230:modbus/rtu/mbrtu.c ****     BOOL            xTaskNeedSwitch = FALSE;
 456              		.loc 1 230 0
 457 0004 07B5     		push	{r0, r1, r2, lr}	@
 458              		.cfi_def_cfa_offset 16
 459              		.cfi_offset 14, -4
 460              		.loc 1 234 0
 461 0006 2BB1     		cbz	r3, .L27	@ eSndState,
 462              		.loc 1 234 0 is_stmt 0 discriminator 1
 463 0008 1C48     		ldr	r0, .L37+4	@,
 464 000a 1D4A     		ldr	r2, .L37+8	@,
 465 000c 1D4B     		ldr	r3, .L37+12	@,
 466 000e EA21     		movs	r1, #234	@,
 467 0010 FFF7FEFF 		bl	__assert_func	@
 468              	.LVL35:
 469              	.L27:
 235:modbus/rtu/mbrtu.c **** 
 236:modbus/rtu/mbrtu.c ****     /* Always read the character. */
 237:modbus/rtu/mbrtu.c ****     ( void )xMBPortSerialGetByte( ( CHAR * ) & ucByte );
 470              		.loc 1 237 0 is_stmt 1
 471 0014 0DF10700 		add	r0, sp, #7	@,,
 472 0018 FFF7FEFF 		bl	xMBPortSerialGetByte	@
 473              	.LVL36:
 238:modbus/rtu/mbrtu.c ****     switch ( eRcvState )
 474              		.loc 1 238 0
 475 001c 1A4B     		ldr	r3, .L37+16	@ tmp129,
 476 001e 1A78     		ldrb	r2, [r3]	@ zero_extendqisi2	@ eRcvState, eRcvState
 477 0020 032A     		cmp	r2, #3	@ eRcvState,
 478 0022 24D8     		bhi	.L28	@
 479 0024 DFE802F0 		tbb	[pc, r2]	@ eRcvState
 480              	.L30:
 481 0028 21       		.byte	(.L35-.L30)/2
 482 0029 02       		.byte	(.L31-.L30)/2
 483 002a 10       		.byte	(.L32-.L30)/2
 484 002b 21       		.byte	(.L35-.L30)/2
ARM GAS  C:\cygwin\tmp\ccQCqKXj.s 			page 14


 485              		.p2align 1
 486              	.L31:
 239:modbus/rtu/mbrtu.c ****     {
 240:modbus/rtu/mbrtu.c ****         /* If we have received a character in the init state we have to
 241:modbus/rtu/mbrtu.c ****          * wait until the frame is finished.
 242:modbus/rtu/mbrtu.c ****          */
 243:modbus/rtu/mbrtu.c ****     case STATE_RX_INIT:
 244:modbus/rtu/mbrtu.c ****         vMBPortTimersEnable(  );
 245:modbus/rtu/mbrtu.c ****         break;
 246:modbus/rtu/mbrtu.c **** 
 247:modbus/rtu/mbrtu.c ****         /* In the error state we wait until all characters in the
 248:modbus/rtu/mbrtu.c ****          * damaged frame are transmitted.
 249:modbus/rtu/mbrtu.c ****          */
 250:modbus/rtu/mbrtu.c ****     case STATE_RX_ERROR:
 251:modbus/rtu/mbrtu.c ****         vMBPortTimersEnable(  );
 252:modbus/rtu/mbrtu.c ****         break;
 253:modbus/rtu/mbrtu.c **** 
 254:modbus/rtu/mbrtu.c ****         /* In the idle state we wait for a new character. If a character
 255:modbus/rtu/mbrtu.c ****          * is received the t1.5 and t3.5 timers are started and the
 256:modbus/rtu/mbrtu.c ****          * receiver is in the state STATE_RX_RECEIVCE.
 257:modbus/rtu/mbrtu.c ****          */
 258:modbus/rtu/mbrtu.c ****     case STATE_RX_IDLE:
 259:modbus/rtu/mbrtu.c ****         usRcvBufferPos = 0;
 487              		.loc 1 259 0
 488 002c 1749     		ldr	r1, .L37+20	@ tmp132,
 489 002e 0022     		movs	r2, #0	@ tmp134,
 490 0030 0A80     		strh	r2, [r1]	@ movhi	@ tmp134, usRcvBufferPos
 260:modbus/rtu/mbrtu.c **** 
 261:modbus/rtu/mbrtu.c ****         ucRTUBuf[usRcvBufferPos++] = ucByte;
 491              		.loc 1 261 0
 492 0032 0A88     		ldrh	r2, [r1]	@, usRcvBufferPos
 493 0034 92B2     		uxth	r2, r2	@ D.5296, usRcvBufferPos
 494 0036 501C     		adds	r0, r2, #1	@ tmp137, D.5296,
 495 0038 80B2     		uxth	r0, r0	@ D.5296, tmp137
 496 003a 0880     		strh	r0, [r1]	@ movhi	@ D.5296, usRcvBufferPos
 497 003c 1449     		ldr	r1, .L37+24	@ tmp140,
 498 003e 9DF80700 		ldrb	r0, [sp, #7]	@ zero_extendqisi2	@ D.5298, ucByte
 499 0042 8854     		strb	r0, [r1, r2]	@ D.5298, ucRTUBuf
 262:modbus/rtu/mbrtu.c ****         eRcvState = STATE_RX_RCV;
 500              		.loc 1 262 0
 501 0044 0222     		movs	r2, #2	@ tmp143,
 502 0046 0FE0     		b	.L36	@
 503              	.L32:
 263:modbus/rtu/mbrtu.c **** 
 264:modbus/rtu/mbrtu.c ****         /* Enable t3.5 timers. */
 265:modbus/rtu/mbrtu.c ****         vMBPortTimersEnable();
 266:modbus/rtu/mbrtu.c ****         break;
 267:modbus/rtu/mbrtu.c **** 
 268:modbus/rtu/mbrtu.c ****         /* We are currently receiving a frame. Reset the timer after
 269:modbus/rtu/mbrtu.c ****          * every character received. If more than the maximum possible
 270:modbus/rtu/mbrtu.c ****          * number of bytes in a modbus frame is received the frame is
 271:modbus/rtu/mbrtu.c ****          * ignored.
 272:modbus/rtu/mbrtu.c ****          */
 273:modbus/rtu/mbrtu.c ****     case STATE_RX_RCV:
 274:modbus/rtu/mbrtu.c ****         if( usRcvBufferPos < MB_SER_PDU_SIZE_MAX )
 504              		.loc 1 274 0
 505 0048 104A     		ldr	r2, .L37+20	@ tmp145,
ARM GAS  C:\cygwin\tmp\ccQCqKXj.s 			page 15


 506 004a 1188     		ldrh	r1, [r2]	@, usRcvBufferPos
 507 004c 89B2     		uxth	r1, r1	@ D.5296, usRcvBufferPos
 508 004e FF29     		cmp	r1, #255	@ D.5296,
 509 0050 09D8     		bhi	.L34	@,
 275:modbus/rtu/mbrtu.c ****         {
 276:modbus/rtu/mbrtu.c ****             ucRTUBuf[usRcvBufferPos++] = ucByte;
 510              		.loc 1 276 0
 511 0052 1388     		ldrh	r3, [r2]	@, usRcvBufferPos
 512 0054 9BB2     		uxth	r3, r3	@ D.5296, usRcvBufferPos
 513 0056 591C     		adds	r1, r3, #1	@ tmp149, D.5296,
 514 0058 89B2     		uxth	r1, r1	@ D.5296, tmp149
 515 005a 1180     		strh	r1, [r2]	@ movhi	@ D.5296, usRcvBufferPos
 516 005c 0C4A     		ldr	r2, .L37+24	@ tmp152,
 517 005e 9DF80710 		ldrb	r1, [sp, #7]	@ zero_extendqisi2	@ D.5298, ucByte
 518 0062 D154     		strb	r1, [r2, r3]	@ D.5298, ucRTUBuf
 519 0064 01E0     		b	.L35	@
 520              	.L34:
 277:modbus/rtu/mbrtu.c ****         }
 278:modbus/rtu/mbrtu.c ****         else
 279:modbus/rtu/mbrtu.c ****         {
 280:modbus/rtu/mbrtu.c ****             eRcvState = STATE_RX_ERROR;
 521              		.loc 1 280 0
 522 0066 0322     		movs	r2, #3	@ tmp155,
 523              	.L36:
 524 0068 1A70     		strb	r2, [r3]	@ tmp155, eRcvState
 525              	.L35:
 281:modbus/rtu/mbrtu.c ****         }
 282:modbus/rtu/mbrtu.c **** 
 283:modbus/rtu/mbrtu.c ****         vMBPortTimersEnable();
 526              		.loc 1 283 0
 527 006a FFF7FEFF 		bl	vMBPortTimersEnable	@
 528              	.LVL37:
 529              	.L28:
 284:modbus/rtu/mbrtu.c ****         break;
 285:modbus/rtu/mbrtu.c ****     }
 286:modbus/rtu/mbrtu.c ****     return xTaskNeedSwitch;
 287:modbus/rtu/mbrtu.c **** }
 530              		.loc 1 287 0
 531 006e 0020     		movs	r0, #0	@,
 532 0070 03B0     		add	sp, sp, #12	@,,
 533              		.cfi_def_cfa_offset 4
 534              		@ sp needed	@
 535 0072 5DF804FB 		ldr	pc, [sp], #4	@
 536              	.L38:
 537 0076 00BF     		.align	2
 538              	.L37:
 539 0078 00000000 		.word	.LANCHOR5
 540 007c 00000000 		.word	.LC0
 541 0080 00000000 		.word	.LANCHOR6
 542 0084 38000000 		.word	.LC2
 543 0088 00000000 		.word	.LANCHOR0
 544 008c 00000000 		.word	.LANCHOR1
 545 0090 00000000 		.word	ucRTUBuf
 546              		.cfi_endproc
 547              	.LFE5:
 548              		.size	xMBRTUReceiveFSM, .-xMBRTUReceiveFSM
 549              		.section	.text.xMBRTUTransmitFSM,"ax",%progbits
ARM GAS  C:\cygwin\tmp\ccQCqKXj.s 			page 16


 550              		.align	1
 551              		.global	xMBRTUTransmitFSM
 552              		.thumb
 553              		.thumb_func
 554              		.type	xMBRTUTransmitFSM, %function
 555              	xMBRTUTransmitFSM:
 556              	.LFB6:
 288:modbus/rtu/mbrtu.c **** 
 289:modbus/rtu/mbrtu.c **** BOOL
 290:modbus/rtu/mbrtu.c **** xMBRTUTransmitFSM( void )
 291:modbus/rtu/mbrtu.c **** {
 557              		.loc 1 291 0
 558              		.cfi_startproc
 559              		@ args = 0, pretend = 0, frame = 0
 560              		@ frame_needed = 0, uses_anonymous_args = 0
 561              	.LVL38:
 562 0000 F8B5     		push	{r3, r4, r5, r6, r7, lr}	@
 563              		.cfi_def_cfa_offset 24
 564              		.cfi_offset 3, -24
 565              		.cfi_offset 4, -20
 566              		.cfi_offset 5, -16
 567              		.cfi_offset 6, -12
 568              		.cfi_offset 7, -8
 569              		.cfi_offset 14, -4
 292:modbus/rtu/mbrtu.c ****     BOOL            xNeedPoll = FALSE;
 293:modbus/rtu/mbrtu.c **** 
 294:modbus/rtu/mbrtu.c ****     assert( eRcvState == STATE_RX_IDLE );
 570              		.loc 1 294 0
 571 0002 1B4B     		ldr	r3, .L47	@ tmp121,
 572 0004 1878     		ldrb	r0, [r3]	@ zero_extendqisi2	@ eRcvState, eRcvState
 573 0006 C0B2     		uxtb	r0, r0	@ D.5304, eRcvState
 574 0008 0128     		cmp	r0, #1	@ D.5304,
 575 000a 06D0     		beq	.L40	@,
 576              		.loc 1 294 0 is_stmt 0 discriminator 1
 577 000c 1948     		ldr	r0, .L47+4	@,
 578 000e 1A4A     		ldr	r2, .L47+8	@,
 579 0010 1A4B     		ldr	r3, .L47+12	@,
 580 0012 4FF49371 		mov	r1, #294	@,
 581 0016 FFF7FEFF 		bl	__assert_func	@
 582              	.LVL39:
 583              	.L40:
 295:modbus/rtu/mbrtu.c **** 
 296:modbus/rtu/mbrtu.c ****     switch ( eSndState )
 584              		.loc 1 296 0 is_stmt 1
 585 001a 194F     		ldr	r7, .L47+16	@ tmp127,
 586 001c 3B78     		ldrb	r3, [r7]	@ zero_extendqisi2	@ eSndState, eSndState
 587 001e 03F0FF06 		and	r6, r3, #255	@ D.5305, eSndState,
 588 0022 13B1     		cbz	r3, .L42	@ eSndState,
 589 0024 012E     		cmp	r6, #1	@ D.5305,
 590 0026 05D0     		beq	.L43	@,
 591 0028 1FE0     		b	.L46	@
 592              	.L42:
 297:modbus/rtu/mbrtu.c ****     {
 298:modbus/rtu/mbrtu.c ****         /* We should not get a transmitter event if the transmitter is in
 299:modbus/rtu/mbrtu.c ****          * idle state.  */
 300:modbus/rtu/mbrtu.c ****     case STATE_TX_IDLE:
 301:modbus/rtu/mbrtu.c ****         /* enable receiver/disable transmitter. */
ARM GAS  C:\cygwin\tmp\ccQCqKXj.s 			page 17


 302:modbus/rtu/mbrtu.c ****         vMBPortSerialEnable( TRUE, FALSE );
 593              		.loc 1 302 0
 594 002a 3146     		mov	r1, r6	@, D.5305
 595 002c FFF7FEFF 		bl	vMBPortSerialEnable	@
 596              	.LVL40:
 292:modbus/rtu/mbrtu.c **** 
 597              		.loc 1 292 0
 598 0030 3546     		mov	r5, r6	@ xNeedPoll, D.5305
 303:modbus/rtu/mbrtu.c ****         break;
 599              		.loc 1 303 0
 600 0032 1BE0     		b	.L41	@
 601              	.L43:
 304:modbus/rtu/mbrtu.c **** 
 305:modbus/rtu/mbrtu.c ****     case STATE_TX_XMIT:
 306:modbus/rtu/mbrtu.c ****         /* check if we are finished. */
 307:modbus/rtu/mbrtu.c ****         if( usSndBufferCount != 0 )
 602              		.loc 1 307 0
 603 0034 134D     		ldr	r5, .L47+20	@ tmp130,
 604 0036 2C88     		ldrh	r4, [r5]	@, usSndBufferCount
 605 0038 A4B2     		uxth	r4, r4	@ D.5306, usSndBufferCount
 606 003a 64B1     		cbz	r4, .L44	@ D.5306,
 308:modbus/rtu/mbrtu.c ****         {
 309:modbus/rtu/mbrtu.c ****             xMBPortSerialPutByte( ( CHAR )*pucSndBufferCur );
 607              		.loc 1 309 0
 608 003c 124C     		ldr	r4, .L47+24	@ tmp132,
 609 003e 2368     		ldr	r3, [r4]	@ D.5307, pucSndBufferCur
 610 0040 1878     		ldrb	r0, [r3]	@ zero_extendqisi2	@ *_12, *_12
 611 0042 FFF7FEFF 		bl	xMBPortSerialPutByte	@
 612              	.LVL41:
 310:modbus/rtu/mbrtu.c ****             pucSndBufferCur++;  /* next byte in sendbuffer. */
 613              		.loc 1 310 0
 614 0046 2368     		ldr	r3, [r4]	@ pucSndBufferCur, pucSndBufferCur
 615 0048 0133     		adds	r3, r3, #1	@ D.5307, pucSndBufferCur,
 616 004a 2360     		str	r3, [r4]	@ D.5307, pucSndBufferCur
 311:modbus/rtu/mbrtu.c ****             usSndBufferCount--;
 617              		.loc 1 311 0
 618 004c 2B88     		ldrh	r3, [r5]	@, usSndBufferCount
 619 004e 013B     		subs	r3, r3, #1	@ tmp141, usSndBufferCount,
 620 0050 9BB2     		uxth	r3, r3	@ D.5306, tmp141
 621 0052 2B80     		strh	r3, [r5]	@ movhi	@ D.5306, usSndBufferCount
 622 0054 09E0     		b	.L46	@
 623              	.L44:
 312:modbus/rtu/mbrtu.c ****         }
 313:modbus/rtu/mbrtu.c ****         else
 314:modbus/rtu/mbrtu.c ****         {
 315:modbus/rtu/mbrtu.c ****             xNeedPoll = xMBPortEventPost( EV_FRAME_SENT );
 624              		.loc 1 315 0
 625 0056 0320     		movs	r0, #3	@,
 626 0058 FFF7FEFF 		bl	xMBPortEventPost	@
 627              	.LVL42:
 316:modbus/rtu/mbrtu.c ****             /* Disable transmitter. This prevents another transmit buffer
 317:modbus/rtu/mbrtu.c ****              * empty interrupt. */
 318:modbus/rtu/mbrtu.c ****             vMBPortSerialEnable( TRUE, FALSE );
 628              		.loc 1 318 0
 629 005c 2146     		mov	r1, r4	@, D.5306
 315:modbus/rtu/mbrtu.c ****             /* Disable transmitter. This prevents another transmit buffer
 630              		.loc 1 315 0
ARM GAS  C:\cygwin\tmp\ccQCqKXj.s 			page 18


 631 005e 0546     		mov	r5, r0	@ xNeedPoll,
 632              	.LVL43:
 633              		.loc 1 318 0
 634 0060 3046     		mov	r0, r6	@, D.5305
 635 0062 FFF7FEFF 		bl	vMBPortSerialEnable	@
 636              	.LVL44:
 319:modbus/rtu/mbrtu.c ****             eSndState = STATE_TX_IDLE;
 637              		.loc 1 319 0
 638 0066 3C70     		strb	r4, [r7]	@ D.5306, eSndState
 639 0068 00E0     		b	.L41	@
 640              	.LVL45:
 641              	.L46:
 292:modbus/rtu/mbrtu.c **** 
 642              		.loc 1 292 0
 643 006a 0025     		movs	r5, #0	@ xNeedPoll,
 644              	.LVL46:
 645              	.L41:
 320:modbus/rtu/mbrtu.c ****         }
 321:modbus/rtu/mbrtu.c ****         break;
 322:modbus/rtu/mbrtu.c ****     }
 323:modbus/rtu/mbrtu.c **** 
 324:modbus/rtu/mbrtu.c ****     return xNeedPoll;
 325:modbus/rtu/mbrtu.c **** }
 646              		.loc 1 325 0
 647 006c 2846     		mov	r0, r5	@, xNeedPoll
 648 006e F8BD     		pop	{r3, r4, r5, r6, r7, pc}	@
 649              	.LVL47:
 650              	.L48:
 651              		.align	2
 652              	.L47:
 653 0070 00000000 		.word	.LANCHOR0
 654 0074 00000000 		.word	.LC0
 655 0078 00000000 		.word	.LANCHOR7
 656 007c 53000000 		.word	.LC3
 657 0080 00000000 		.word	.LANCHOR5
 658 0084 00000000 		.word	.LANCHOR4
 659 0088 00000000 		.word	.LANCHOR3
 660              		.cfi_endproc
 661              	.LFE6:
 662              		.size	xMBRTUTransmitFSM, .-xMBRTUTransmitFSM
 663              		.section	.text.xMBRTUTimerT35Expired,"ax",%progbits
 664              		.align	1
 665              		.global	xMBRTUTimerT35Expired
 666              		.thumb
 667              		.thumb_func
 668              		.type	xMBRTUTimerT35Expired, %function
 669              	xMBRTUTimerT35Expired:
 670              	.LFB7:
 326:modbus/rtu/mbrtu.c **** 
 327:modbus/rtu/mbrtu.c **** BOOL
 328:modbus/rtu/mbrtu.c **** xMBRTUTimerT35Expired( void )
 329:modbus/rtu/mbrtu.c **** {
 671              		.loc 1 329 0
 672              		.cfi_startproc
 673              		@ args = 0, pretend = 0, frame = 0
 674              		@ frame_needed = 0, uses_anonymous_args = 0
 675              	.LVL48:
ARM GAS  C:\cygwin\tmp\ccQCqKXj.s 			page 19


 676 0000 38B5     		push	{r3, r4, r5, lr}	@
 677              		.cfi_def_cfa_offset 16
 678              		.cfi_offset 3, -16
 679              		.cfi_offset 4, -12
 680              		.cfi_offset 5, -8
 681              		.cfi_offset 14, -4
 330:modbus/rtu/mbrtu.c ****     BOOL            xNeedPoll = FALSE;
 331:modbus/rtu/mbrtu.c **** 
 332:modbus/rtu/mbrtu.c ****     switch ( eRcvState )
 682              		.loc 1 332 0
 683 0002 134B     		ldr	r3, .L60	@ tmp116,
 684 0004 1878     		ldrb	r0, [r3]	@ zero_extendqisi2	@ eRcvState, eRcvState
 685 0006 C0B2     		uxtb	r0, r0	@ D.5314, eRcvState
 686 0008 0228     		cmp	r0, #2	@ D.5314,
 687 000a 1D46     		mov	r5, r3	@ tmp137, tmp116
 688 000c 03D0     		beq	.L51	@,
 689 000e 0328     		cmp	r0, #3	@ D.5314,
 690 0010 17D0     		beq	.L57	@,
 691 0012 28B9     		cbnz	r0, .L58	@ D.5314,
 692 0014 00E0     		b	.L59	@
 693              	.L51:
 333:modbus/rtu/mbrtu.c ****     {
 334:modbus/rtu/mbrtu.c ****         /* Timer t35 expired. Startup phase is finished. */
 335:modbus/rtu/mbrtu.c ****     case STATE_RX_INIT:
 336:modbus/rtu/mbrtu.c ****         xNeedPoll = xMBPortEventPost( EV_READY );
 337:modbus/rtu/mbrtu.c ****         break;
 338:modbus/rtu/mbrtu.c **** 
 339:modbus/rtu/mbrtu.c ****         /* A frame was received and t35 expired. Notify the listener that
 340:modbus/rtu/mbrtu.c ****          * a new frame was received. */
 341:modbus/rtu/mbrtu.c ****     case STATE_RX_RCV:
 342:modbus/rtu/mbrtu.c ****         xNeedPoll = xMBPortEventPost( EV_FRAME_RECEIVED );
 694              		.loc 1 342 0
 695 0016 0120     		movs	r0, #1	@,
 696              	.L59:
 697 0018 FFF7FEFF 		bl	xMBPortEventPost	@
 698              	.LVL49:
 699 001c 0446     		mov	r4, r0	@ xNeedPoll,
 700              	.LVL50:
 343:modbus/rtu/mbrtu.c ****         break;
 701              		.loc 1 343 0
 702 001e 11E0     		b	.L52	@
 703              	.LVL51:
 704              	.L58:
 344:modbus/rtu/mbrtu.c **** 
 345:modbus/rtu/mbrtu.c ****         /* An error occured while receiving the frame. */
 346:modbus/rtu/mbrtu.c ****     case STATE_RX_ERROR:
 347:modbus/rtu/mbrtu.c ****         break;
 348:modbus/rtu/mbrtu.c **** 
 349:modbus/rtu/mbrtu.c ****         /* Function called in an illegal state. */
 350:modbus/rtu/mbrtu.c ****     default:
 351:modbus/rtu/mbrtu.c ****         assert( ( eRcvState == STATE_RX_INIT ) ||
 705              		.loc 1 351 0
 706 0020 1A78     		ldrb	r2, [r3]	@ zero_extendqisi2	@ eRcvState, eRcvState
 707 0022 02F0FF04 		and	r4, r2, #255	@ D.5314, eRcvState,
 708 0026 6AB1     		cbz	r2, .L52	@ eRcvState,
 709              		.loc 1 351 0 is_stmt 0 discriminator 1
 710 0028 1A78     		ldrb	r2, [r3]	@ zero_extendqisi2	@ eRcvState, eRcvState
ARM GAS  C:\cygwin\tmp\ccQCqKXj.s 			page 20


 711 002a 022A     		cmp	r2, #2	@ eRcvState,
 712 002c 09D0     		beq	.L57	@,
 713              		.loc 1 351 0 discriminator 2
 714 002e 1B78     		ldrb	r3, [r3]	@ zero_extendqisi2	@ eRcvState, eRcvState
 715 0030 032B     		cmp	r3, #3	@ eRcvState,
 716 0032 06D0     		beq	.L57	@,
 717              		.loc 1 351 0 discriminator 3
 718 0034 0748     		ldr	r0, .L60+4	@,
 719 0036 084A     		ldr	r2, .L60+8	@,
 720 0038 084B     		ldr	r3, .L60+12	@,
 721 003a 4FF4B071 		mov	r1, #352	@,
 722 003e FFF7FEFF 		bl	__assert_func	@
 723              	.LVL52:
 724              	.L57:
 330:modbus/rtu/mbrtu.c **** 
 725              		.loc 1 330 0 is_stmt 1
 726 0042 0024     		movs	r4, #0	@ xNeedPoll,
 727              	.LVL53:
 728              	.L52:
 352:modbus/rtu/mbrtu.c ****                 ( eRcvState == STATE_RX_RCV ) || ( eRcvState == STATE_RX_ERROR ) );
 353:modbus/rtu/mbrtu.c ****     }
 354:modbus/rtu/mbrtu.c **** 
 355:modbus/rtu/mbrtu.c ****     vMBPortTimersDisable();
 729              		.loc 1 355 0
 730 0044 FFF7FEFF 		bl	vMBPortTimersDisable	@
 731              	.LVL54:
 356:modbus/rtu/mbrtu.c ****     eRcvState = STATE_RX_IDLE;
 732              		.loc 1 356 0
 733 0048 0123     		movs	r3, #1	@ tmp134,
 734 004a 2B70     		strb	r3, [r5]	@ tmp134, eRcvState
 357:modbus/rtu/mbrtu.c **** 
 358:modbus/rtu/mbrtu.c ****     return xNeedPoll;
 359:modbus/rtu/mbrtu.c **** }
 735              		.loc 1 359 0
 736 004c 2046     		mov	r0, r4	@, xNeedPoll
 737 004e 38BD     		pop	{r3, r4, r5, pc}	@
 738              	.LVL55:
 739              	.L61:
 740              		.align	2
 741              	.L60:
 742 0050 00000000 		.word	.LANCHOR0
 743 0054 00000000 		.word	.LC0
 744 0058 00000000 		.word	.LANCHOR8
 745 005c 6E000000 		.word	.LC4
 746              		.cfi_endproc
 747              	.LFE7:
 748              		.size	xMBRTUTimerT35Expired, .-xMBRTUTimerT35Expired
 749              		.comm	ucRTUBuf,256,1
 750              		.section	.bss.pucSndBufferCur,"aw",%nobits
 751              		.align	2
 752              		.set	.LANCHOR3,. + 0
 753              		.type	pucSndBufferCur, %object
 754              		.size	pucSndBufferCur, 4
 755              	pucSndBufferCur:
 756 0000 00000000 		.space	4
 757              		.section	.bss.usSndBufferCount,"aw",%nobits
 758              		.align	1
ARM GAS  C:\cygwin\tmp\ccQCqKXj.s 			page 21


 759              		.set	.LANCHOR4,. + 0
 760              		.type	usSndBufferCount, %object
 761              		.size	usSndBufferCount, 2
 762              	usSndBufferCount:
 763 0000 0000     		.space	2
 764              		.section	.bss.usRcvBufferPos,"aw",%nobits
 765              		.align	1
 766              		.set	.LANCHOR1,. + 0
 767              		.type	usRcvBufferPos, %object
 768              		.size	usRcvBufferPos, 2
 769              	usRcvBufferPos:
 770 0000 0000     		.space	2
 771              		.section	.rodata.str1.1,"aMS",%progbits,1
 772              	.LC0:
 773 0000 6D6F6462 		.ascii	"modbus/rtu/mbrtu.c\000"
 773      75732F72 
 773      74752F6D 
 773      62727475 
 773      2E6300
 774              	.LC1:
 775 0013 75735263 		.ascii	"usRcvBufferPos < MB_SER_PDU_SIZE_MAX\000"
 775      76427566 
 775      66657250 
 775      6F73203C 
 775      204D425F 
 776              	.LC2:
 777 0038 65536E64 		.ascii	"eSndState == STATE_TX_IDLE\000"
 777      53746174 
 777      65203D3D 
 777      20535441 
 777      54455F54 
 778              	.LC3:
 779 0053 65526376 		.ascii	"eRcvState == STATE_RX_IDLE\000"
 779      53746174 
 779      65203D3D 
 779      20535441 
 779      54455F52 
 780              	.LC4:
 781 006e 28206552 		.ascii	"( eRcvState == STATE_RX_INIT ) || ( eRcvState == ST"
 781      63765374 
 781      61746520 
 781      3D3D2053 
 781      54415445 
 782 00a1 4154455F 		.ascii	"ATE_RX_RCV ) || ( eRcvState == STATE_RX_ERROR )\000"
 782      52585F52 
 782      43562029 
 782      207C7C20 
 782      28206552 
 783              		.section	.rodata.__FUNCTION__.5130,"a",%progbits
 784              		.set	.LANCHOR7,. + 0
 785              		.type	__FUNCTION__.5130, %object
 786              		.size	__FUNCTION__.5130, 18
 787              	__FUNCTION__.5130:
 788 0000 784D4252 		.ascii	"xMBRTUTransmitFSM\000"
 788      54555472 
 788      616E736D 
 788      69744653 
ARM GAS  C:\cygwin\tmp\ccQCqKXj.s 			page 22


 788      4D00
 789              		.section	.bss.eSndState,"aw",%nobits
 790              		.set	.LANCHOR5,. + 0
 791              		.type	eSndState, %object
 792              		.size	eSndState, 1
 793              	eSndState:
 794 0000 00       		.space	1
 795              		.section	.rodata.__FUNCTION__.5107,"a",%progbits
 796              		.set	.LANCHOR2,. + 0
 797              		.type	__FUNCTION__.5107, %object
 798              		.size	__FUNCTION__.5107, 14
 799              	__FUNCTION__.5107:
 800 0000 654D4252 		.ascii	"eMBRTUReceive\000"
 800      54555265 
 800      63656976 
 800      6500
 801              		.section	.bss.eRcvState,"aw",%nobits
 802              		.set	.LANCHOR0,. + 0
 803              		.type	eRcvState, %object
 804              		.size	eRcvState, 1
 805              	eRcvState:
 806 0000 00       		.space	1
 807              		.section	.rodata.__FUNCTION__.5120,"a",%progbits
 808              		.set	.LANCHOR6,. + 0
 809              		.type	__FUNCTION__.5120, %object
 810              		.size	__FUNCTION__.5120, 17
 811              	__FUNCTION__.5120:
 812 0000 784D4252 		.ascii	"xMBRTUReceiveFSM\000"
 812      54555265 
 812      63656976 
 812      6546534D 
 812      00
 813              		.section	.rodata.__FUNCTION__.5143,"a",%progbits
 814              		.set	.LANCHOR8,. + 0
 815              		.type	__FUNCTION__.5143, %object
 816              		.size	__FUNCTION__.5143, 22
 817              	__FUNCTION__.5143:
 818 0000 784D4252 		.ascii	"xMBRTUTimerT35Expired\000"
 818      54555469 
 818      6D657254 
 818      33354578 
 818      70697265 
 819              		.text
 820              	.Letext0:
 821              		.file 2 "c:\\program files\\gcc-arm-none-eabi-4_9-2014\\arm-none-eabi\\include\\machine\\_default_
 822              		.file 3 "c:\\program files\\gcc-arm-none-eabi-4_9-2014\\arm-none-eabi\\include\\stdint.h"
 823              		.file 4 "port/port.h"
 824              		.file 5 "modbus/include/mbport.h"
 825              		.file 6 "modbus/include/mb.h"
 826              		.file 7 "c:\\program files\\gcc-arm-none-eabi-4_9-2014\\arm-none-eabi\\include\\assert.h"
 827              		.file 8 "modbus/rtu/mbcrc.h"