ARM GAS  C:\cygwin\tmp\cczYE0L8.s 			page 1


   1              		.syntax unified
   2              		.cpu cortex-m4
   3              		.fpu softvfp
   4              		.eabi_attribute 20, 1	@ Tag_ABI_FP_denormal
   5              		.eabi_attribute 21, 1	@ Tag_ABI_FP_exceptions
   6              		.eabi_attribute 23, 3	@ Tag_ABI_FP_number_model
   7              		.eabi_attribute 24, 1	@ Tag_ABI_align8_needed
   8              		.eabi_attribute 25, 1	@ Tag_ABI_align8_preserved
   9              		.eabi_attribute 26, 1	@ Tag_ABI_enum_size
  10              		.eabi_attribute 30, 4	@ Tag_ABI_optimization_goals
  11              		.eabi_attribute 34, 1	@ Tag_CPU_unaligned_access
  12              		.eabi_attribute 18, 4	@ Tag_ABI_PCS_wchar_t
  13              		.file	"portserial.c"
  14              	@ GNU C (GNU Tools for ARM Embedded Processors) version 4.9.3 20141119 (release) [ARM/embedded-4_9-
  15              	@	compiled by GNU C version 4.7.4, GMP version 4.3.2, MPFR version 2.4.2, MPC version 0.8.1
  16              	@ GGC heuristics: --param ggc-min-expand=100 --param ggc-min-heapsize=131072
  17              	@ options passed:  -I . -I Inc -I port -I modbus/rtu -I modbus/ascii
  18              	@ -I modbus/include -I ../STM32Cube_FW_F4_V1.4.0/Drivers/CMSIS/Include
  19              	@ -I ../STM32Cube_FW_F4_V1.4.0/Drivers/CMSIS/Device/ST/STM32F4xx/Include
  20              	@ -I ../STM32Cube_FW_F4_V1.4.0/Drivers/STM32F4xx_HAL_Driver/Inc
  21              	@ -I ../STM32Cube_FW_F4_V1.4.0/Drivers/CMSIS/Include -imultilib armv7e-m
  22              	@ -iprefix c:\program files\gcc-arm-none-eabi-4_9-2014\bin\../lib/gcc/arm-none-eabi/4.9.3/
  23              	@ -isysroot c:\program files\gcc-arm-none-eabi-4_9-2014\bin\../arm-none-eabi
  24              	@ -MD out/portserial.d -MF out/portserial.d -MP -MQ out/portserial.o
  25              	@ -D__USES_INITFINI__ -D USE_HAL_DRIVER -D STM32F4XX -D HSE_VALUE=8000000
  26              	@ -D __STARTUP_CLEAR_BSS -D STM32F411RE -D USE_FULL_ASSERT -D __FPU_USED
  27              	@ port/portserial.c -mcpu=cortex-m4 -mthumb -auxbase-strip out/portserial.o
  28              	@ -g -ggdb3 -Os -Os -Wall -Wstrict-prototypes -Wextra -std=gnu90
  29              	@ -ffunction-sections -fdata-sections -fverbose-asm
  30              	@ options enabled:  -faggressive-loop-optimizations -fauto-inc-dec
  31              	@ -fbranch-count-reg -fcaller-saves -fcombine-stack-adjustments -fcommon
  32              	@ -fcompare-elim -fcprop-registers -fcrossjumping -fcse-follow-jumps
  33              	@ -fdata-sections -fdefer-pop -fdelete-null-pointer-checks -fdevirtualize
  34              	@ -fdevirtualize-speculatively -fdwarf2-cfi-asm -fearly-inlining
  35              	@ -feliminate-unused-debug-types -fexpensive-optimizations
  36              	@ -fforward-propagate -ffunction-cse -ffunction-sections -fgcse -fgcse-lm
  37              	@ -fgnu-runtime -fgnu-unique -fguess-branch-probability
  38              	@ -fhoist-adjacent-loads -fident -fif-conversion -fif-conversion2
  39              	@ -findirect-inlining -finline -finline-atomics -finline-functions
  40              	@ -finline-functions-called-once -finline-small-functions -fipa-cp
  41              	@ -fipa-profile -fipa-pure-const -fipa-reference -fipa-sra
  42              	@ -fira-hoist-pressure -fira-share-save-slots -fira-share-spill-slots
  43              	@ -fisolate-erroneous-paths-dereference -fivopts -fkeep-static-consts
  44              	@ -fleading-underscore -fmath-errno -fmerge-constants -fmerge-debug-strings
  45              	@ -fomit-frame-pointer -foptimize-sibling-calls -fpartial-inlining
  46              	@ -fpeephole -fpeephole2 -fprefetch-loop-arrays -freg-struct-return
  47              	@ -freorder-blocks -freorder-functions -frerun-cse-after-loop
  48              	@ -fsched-critical-path-heuristic -fsched-dep-count-heuristic
  49              	@ -fsched-group-heuristic -fsched-interblock -fsched-last-insn-heuristic
  50              	@ -fsched-pressure -fsched-rank-heuristic -fsched-spec
  51              	@ -fsched-spec-insn-heuristic -fsched-stalled-insns-dep -fschedule-insns2
  52              	@ -fsection-anchors -fshow-column -fsigned-zeros -fsplit-ivs-in-unroller
  53              	@ -fsplit-wide-types -fstrict-aliasing -fstrict-overflow
  54              	@ -fstrict-volatile-bitfields -fsync-libcalls -fthread-jumps
  55              	@ -ftoplevel-reorder -ftrapping-math -ftree-bit-ccp -ftree-builtin-call-dce
  56              	@ -ftree-ccp -ftree-ch -ftree-coalesce-vars -ftree-copy-prop
  57              	@ -ftree-copyrename -ftree-cselim -ftree-dce -ftree-dominator-opts
ARM GAS  C:\cygwin\tmp\cczYE0L8.s 			page 2


  58              	@ -ftree-dse -ftree-forwprop -ftree-fre -ftree-loop-if-convert
  59              	@ -ftree-loop-im -ftree-loop-ivcanon -ftree-loop-optimize
  60              	@ -ftree-parallelize-loops= -ftree-phiprop -ftree-pre -ftree-pta
  61              	@ -ftree-reassoc -ftree-scev-cprop -ftree-sink -ftree-slsr -ftree-sra
  62              	@ -ftree-switch-conversion -ftree-tail-merge -ftree-ter -ftree-vrp
  63              	@ -funit-at-a-time -fvar-tracking -fvar-tracking-assignments -fverbose-asm
  64              	@ -fzero-initialized-in-bss -mlittle-endian -mlra
  65              	@ -mpic-data-is-text-relative -msched-prolog -mthumb -munaligned-access
  66              	@ -mvectorize-with-neon-quad
  67              	
  68              		.text
  69              	.Ltext0:
  70              		.cfi_sections	.debug_frame
  71              		.section	.text.vMBPortSerialEnable,"ax",%progbits
  72              		.align	1
  73              		.global	vMBPortSerialEnable
  74              		.thumb
  75              		.thumb_func
  76              		.type	vMBPortSerialEnable, %function
  77              	vMBPortSerialEnable:
  78              	.LFB123:
  79              		.file 1 "port/portserial.c"
   1:port/portserial.c **** /*
   2:port/portserial.c ****   * FreeModbus Libary: stm32f4 Port
   3:port/portserial.c ****   * Copyright (C) 2007 Tiago Prado Lone <tiago@maxwellbohr.com.br>
   4:port/portserial.c ****  *
   5:port/portserial.c ****  * This library is free software; you can redistribute it and/or
   6:port/portserial.c ****  * modify it under the terms of the GNU Lesser General Public
   7:port/portserial.c ****  * License as published by the Free Software Foundation; either
   8:port/portserial.c ****  * version 2.1 of the License, or (at your option) any later version.
   9:port/portserial.c ****  *
  10:port/portserial.c ****  * This library is distributed in the hope that it will be useful,
  11:port/portserial.c ****  * but WITHOUT ANY WARRANTY; without even the implied warranty of
  12:port/portserial.c ****  * MERCHANTABILITY or FITNESS FOR A PARTICULAR PURPOSE.  See the GNU
  13:port/portserial.c ****  * Lesser General Public License for more details.
  14:port/portserial.c ****  *
  15:port/portserial.c ****  * You should have received a copy of the GNU Lesser General Public
  16:port/portserial.c ****  * License along with this library; if not, write to the Free Software
  17:port/portserial.c ****  * Foundation, Inc., 51 Franklin St, Fifth Floor, Boston, MA  02110-1301  USA
  18:port/portserial.c ****  *
  19:port/portserial.c ****  * File: $Id: portserial.c,v 1.1 2007/04/24 23:15:18 wolti Exp $
  20:port/portserial.c ****  */
  21:port/portserial.c **** #include "main.h"
  22:port/portserial.c **** #include "port.h"
  23:port/portserial.c **** #include "stm32f4xx_it.h"
  24:port/portserial.c **** 
  25:port/portserial.c **** /*	Modbus includes ---------------------------------------------------------*/
  26:port/portserial.c **** #include "mb.h"
  27:port/portserial.c **** #include "mbport.h"
  28:port/portserial.c **** 
  29:port/portserial.c **** /*	static functions --------------------------------------------------------*/
  30:port/portserial.c **** static void     prvvUARTTxReadyISR( void );
  31:port/portserial.c **** static void     prvvUARTRxISR( void );
  32:port/portserial.c **** 
  33:port/portserial.c **** /*	exported variables ------------------------------------------------------*/
  34:port/portserial.c **** extern UART_HandleTypeDef UartHandle;
  35:port/portserial.c **** 
ARM GAS  C:\cygwin\tmp\cczYE0L8.s 			page 3


  36:port/portserial.c **** /*	Private variables -------------------------------------------------------*/
  37:port/portserial.c **** /*static volatile*/ uint8_t aTxBuffer_Usart[]= "serial Port up!";
  38:port/portserial.c **** /*static volatile*/ uint8_t aRxBuffer_Usart[RXBUFFERSIZEUSART];
  39:port/portserial.c **** 
  40:port/portserial.c **** __IO ITStatus UartReady_Transmit = RESET;
  41:port/portserial.c **** __IO ITStatus UartReady_Receive = RESET;
  42:port/portserial.c **** 
  43:port/portserial.c **** /* ----------------------- Start implementation -----------------------------*/
  44:port/portserial.c **** void vMBPortSerialEnable( BOOL xRxEnable, BOOL xTxEnable )
  45:port/portserial.c **** {
  80              		.loc 1 45 0
  81              		.cfi_startproc
  82              		@ args = 0, pretend = 0, frame = 0
  83              		@ frame_needed = 0, uses_anonymous_args = 0
  84              	.LVL0:
  85 0000 70B5     		push	{r4, r5, r6, lr}	@
  86              		.cfi_def_cfa_offset 16
  87              		.cfi_offset 4, -16
  88              		.cfi_offset 5, -12
  89              		.cfi_offset 6, -8
  90              		.cfi_offset 14, -4
  91 0002 0F4C     		ldr	r4, .L6	@ tmp132,
  92              	.LBB5:
  46:port/portserial.c ****     if( xRxEnable )
  47:port/portserial.c ****     {
  48:port/portserial.c **** 		/* Enable the UART Data Register not empty Interrupt */
  49:port/portserial.c **** 		__HAL_UART_ENABLE_IT(&UartHandle, UART_IT_RXNE);
  93              		.loc 1 49 0
  94 0004 2268     		ldr	r2, [r4]	@ D.7720, UartHandle.Instance
  95              	.LBE5:
  45:port/portserial.c ****     if( xRxEnable )
  96              		.loc 1 45 0
  97 0006 0D46     		mov	r5, r1	@ xTxEnable, xTxEnable
  98              	.LBB6:
  99              		.loc 1 49 0
 100 0008 D368     		ldr	r3, [r2, #12]	@ D.7721,
 101              	.LBE6:
  46:port/portserial.c ****     if( xRxEnable )
 102              		.loc 1 46 0
 103 000a 30B1     		cbz	r0, .L2	@ xRxEnable,
 104              	.LBB7:
 105              		.loc 1 49 0
 106 000c 43F02003 		orr	r3, r3, #32	@ D.7721, D.7721,
 107 0010 D360     		str	r3, [r2, #12]	@ D.7721, _5->CR1
  50:port/portserial.c **** 		printf("Receive enabled\n");
 108              		.loc 1 50 0
 109 0012 0C48     		ldr	r0, .L6+4	@,
 110              	.LVL1:
 111 0014 FFF7FEFF 		bl	puts	@
 112              	.LVL2:
 113              	.LBE7:
 114 0018 02E0     		b	.L3	@
 115              	.LVL3:
 116              	.L2:
  51:port/portserial.c ****     }
  52:port/portserial.c ****     else
  53:port/portserial.c ****     {
ARM GAS  C:\cygwin\tmp\cczYE0L8.s 			page 4


  54:port/portserial.c **** 		/* Disable the UART Data Register not empty Interrupt */
  55:port/portserial.c **** 		__HAL_UART_DISABLE_IT(&UartHandle, UART_IT_RXNE);
 117              		.loc 1 55 0
 118 001a 23F02003 		bic	r3, r3, #32	@ D.7721, D.7721,
 119 001e D360     		str	r3, [r2, #12]	@ D.7721, _10->CR1
 120              	.LVL4:
 121              	.L3:
  56:port/portserial.c ****     }
  57:port/portserial.c ****     if( xTxEnable )
  58:port/portserial.c ****     {
  59:port/portserial.c **** 		/* Enable the UART Transmit data register empty Interrupt */
  60:port/portserial.c **** 		__HAL_UART_ENABLE_IT(&UartHandle, UART_IT_TXE);
 122              		.loc 1 60 0
 123 0020 2268     		ldr	r2, [r4]	@ D.7720, UartHandle.Instance
 124 0022 D368     		ldr	r3, [r2, #12]	@ D.7721,
  57:port/portserial.c ****     {
 125              		.loc 1 57 0
 126 0024 3DB1     		cbz	r5, .L4	@ xTxEnable,
 127              		.loc 1 60 0
 128 0026 43F08003 		orr	r3, r3, #128	@ D.7721, D.7721,
 129 002a D360     		str	r3, [r2, #12]	@ D.7721, _15->CR1
 130              	.LBB8:
 131              	.LBB9:
  61:port/portserial.c ****         prvvUARTTxReadyISR();
  62:port/portserial.c ****     }
  63:port/portserial.c ****     else
  64:port/portserial.c ****     {
  65:port/portserial.c **** 		/* Disable the UART Transmit data register empty Interrupt */
  66:port/portserial.c **** 		__HAL_UART_DISABLE_IT(&UartHandle, UART_IT_TXE);
  67:port/portserial.c ****     }
  68:port/portserial.c **** }
  69:port/portserial.c **** 
  70:port/portserial.c **** void
  71:port/portserial.c **** vMBPortClose( void )
  72:port/portserial.c **** {
  73:port/portserial.c **** }
  74:port/portserial.c **** 
  75:port/portserial.c **** BOOL
  76:port/portserial.c **** xMBPortSerialInit( UCHAR ucPORT, ULONG ulBaudRate, UCHAR ucDataBits, eMBParity eParity )
  77:port/portserial.c **** {
  78:port/portserial.c ****     BOOL            bInitialized = TRUE;
  79:port/portserial.c ****     //USHORT          cfg = 0;
  80:port/portserial.c ****     //ULONG           reload = ( ( PCLK / ulBaudRate ) / 16UL );
  81:port/portserial.c **** 	//uint32_t Uart_Error;
  82:port/portserial.c ****     //volatile char   dummy;
  83:port/portserial.c **** 	
  84:port/portserial.c **** 	//printf("USART sending ok\n");
  85:port/portserial.c **** 	
  86:port/portserial.c **** 	/*if(HAL_UART_Transmit_IT(&UartHandle, (uint8_t*)aTxBuffer_Usart, TXBUFFERSIZEUSART)!= HAL_OK){
  87:port/portserial.c **** 		printf("USART Transmit Error\n");
  88:port/portserial.c **** 	}*/
  89:port/portserial.c **** 	
  90:port/portserial.c **** 	//Uart_Error = HAL_UART_GetError(&UartHandle);
  91:port/portserial.c **** 	//printf("Uart_Error: %d\n", Uart_Error);
  92:port/portserial.c **** 
  93:port/portserial.c ****     return bInitialized;
  94:port/portserial.c **** }
ARM GAS  C:\cygwin\tmp\cczYE0L8.s 			page 5


  95:port/portserial.c **** 
  96:port/portserial.c **** BOOL
  97:port/portserial.c **** xMBPortSerialPutByte(CHAR ucByte)
  98:port/portserial.c **** {
  99:port/portserial.c **** 	UART_HandleTypeDef *huart;
 100:port/portserial.c **** 	
 101:port/portserial.c **** 	huart = &UartHandle;
 102:port/portserial.c **** 	
 103:port/portserial.c **** 	huart->Instance->DR = (uint8_t)ucByte;
 104:port/portserial.c ****     return TRUE;
 105:port/portserial.c **** }
 106:port/portserial.c **** 
 107:port/portserial.c **** BOOL
 108:port/portserial.c **** xMBPortSerialGetByte(CHAR * pucByte)
 109:port/portserial.c **** {
 110:port/portserial.c **** 	UART_HandleTypeDef *huart;
 111:port/portserial.c **** 	
 112:port/portserial.c **** 	huart = &UartHandle;
 113:port/portserial.c **** 	
 114:port/portserial.c **** 	*pucByte = (uint8_t)(huart->Instance->DR & (uint8_t)0x00FF);
 115:port/portserial.c **** 	
 116:port/portserial.c ****     return TRUE;
 117:port/portserial.c **** }
 118:port/portserial.c **** 
 119:port/portserial.c **** /**
 120:port/portserial.c ****   * @brief  This function handles USARTx interrupt request.
 121:port/portserial.c ****   * @param  None
 122:port/portserial.c ****   * @retval None
 123:port/portserial.c ****   */
 124:port/portserial.c **** void USARTx_IRQHandler(void)
 125:port/portserial.c **** {
 126:port/portserial.c **** 	//uint8_t vRxBuffer_Usart[256];
 127:port/portserial.c **** 	uint32_t tmp1 = 0, tmp2 = 0;
 128:port/portserial.c **** 	//uint8_t index = 0;
 129:port/portserial.c **** 	UART_HandleTypeDef *huart;
 130:port/portserial.c **** 	//printf("IRQ event\n");
 131:port/portserial.c **** 	//HAL_UART_IRQHandler(&UartHandle);
 132:port/portserial.c **** 	huart = &UartHandle;
 133:port/portserial.c **** 	
 134:port/portserial.c **** 	tmp1 = __HAL_UART_GET_FLAG(huart, UART_FLAG_PE);
 135:port/portserial.c **** 	tmp2 = __HAL_UART_GET_IT_SOURCE(huart, UART_IT_PE);  
 136:port/portserial.c **** 	/* UART parity error interrupt occurred ------------------------------------*/
 137:port/portserial.c **** 	if((tmp1 != RESET) && (tmp2 != RESET))
 138:port/portserial.c **** 	{
 139:port/portserial.c **** 		__HAL_UART_CLEAR_PEFLAG(huart);
 140:port/portserial.c **** 		
 141:port/portserial.c **** 		huart->ErrorCode |= HAL_UART_ERROR_PE;
 142:port/portserial.c **** 	}
 143:port/portserial.c **** 	
 144:port/portserial.c **** 	tmp1 = __HAL_UART_GET_FLAG(huart, UART_FLAG_FE);
 145:port/portserial.c **** 	tmp2 = __HAL_UART_GET_IT_SOURCE(huart, UART_IT_ERR);
 146:port/portserial.c **** 	/* UART frame error interrupt occurred -------------------------------------*/
 147:port/portserial.c **** 	if((tmp1 != RESET) && (tmp2 != RESET))
 148:port/portserial.c **** 	{
 149:port/portserial.c **** 		__HAL_UART_CLEAR_FEFLAG(huart);
 150:port/portserial.c **** 
 151:port/portserial.c **** 		huart->ErrorCode |= HAL_UART_ERROR_FE;
ARM GAS  C:\cygwin\tmp\cczYE0L8.s 			page 6


 152:port/portserial.c **** 	}
 153:port/portserial.c **** 	
 154:port/portserial.c **** 	tmp1 = __HAL_UART_GET_FLAG(huart, UART_FLAG_NE);
 155:port/portserial.c **** 	tmp2 = __HAL_UART_GET_IT_SOURCE(huart, UART_IT_ERR);
 156:port/portserial.c **** 	/* UART noise error interrupt occurred -------------------------------------*/
 157:port/portserial.c **** 	if((tmp1 != RESET) && (tmp2 != RESET))
 158:port/portserial.c **** 	{ 
 159:port/portserial.c **** 		__HAL_UART_CLEAR_NEFLAG(huart);
 160:port/portserial.c **** 
 161:port/portserial.c **** 		huart->ErrorCode |= HAL_UART_ERROR_NE;
 162:port/portserial.c **** 	}
 163:port/portserial.c ****   
 164:port/portserial.c **** 	tmp1 = __HAL_UART_GET_FLAG(huart, UART_FLAG_ORE);
 165:port/portserial.c **** 	tmp2 = __HAL_UART_GET_IT_SOURCE(huart, UART_IT_ERR);
 166:port/portserial.c **** 	/* UART Over-Run interrupt occurred ----------------------------------------*/
 167:port/portserial.c **** 	if((tmp1 != RESET) && (tmp2 != RESET))
 168:port/portserial.c **** 	{ 
 169:port/portserial.c **** 		__HAL_UART_CLEAR_OREFLAG(huart);
 170:port/portserial.c **** 
 171:port/portserial.c **** 		huart->ErrorCode |= HAL_UART_ERROR_ORE;
 172:port/portserial.c **** 	}
 173:port/portserial.c **** 	
 174:port/portserial.c **** 	tmp1 = __HAL_UART_GET_FLAG(&UartHandle, UART_FLAG_RXNE);
 175:port/portserial.c **** 	tmp2 = __HAL_UART_GET_IT_SOURCE(&UartHandle, UART_IT_RXNE);
 176:port/portserial.c **** 	//printf("Flag_RxNE : %s\n", tmp1 ? "SET" : "RESET");
 177:port/portserial.c **** 	//printf("IT_RxNE : %s\n", tmp2 ? "SET" : "RESET");
 178:port/portserial.c **** 	/* UART in mode Receiver ---------------------------------------------------*/
 179:port/portserial.c **** 	if((tmp1 != RESET) && (tmp2 != RESET))
 180:port/portserial.c **** 	{
 181:port/portserial.c **** 		//vRxBuffer_Usart[index] = (uint8_t)(huart->Instance->DR & (uint8_t)0x00FF);
 182:port/portserial.c **** 		//printf("aRxBuffer[%d]: %d\n", index, vRxBuffer_Usart[index]);
 183:port/portserial.c **** 		
 184:port/portserial.c **** 		//prvvUARTRxISR();
 185:port/portserial.c **** 		pxMBFrameCBByteReceived();
 186:port/portserial.c **** 	}
 187:port/portserial.c **** 	
 188:port/portserial.c **** 	tmp1 = __HAL_UART_GET_FLAG(huart, UART_FLAG_TXE);
 189:port/portserial.c **** 	tmp2 = __HAL_UART_GET_IT_SOURCE(huart, UART_IT_TXE);
 190:port/portserial.c **** 	/* UART in mode Transmitter ------------------------------------------------*/
 191:port/portserial.c **** 	if((tmp1 != RESET) && (tmp2 != RESET))
 192:port/portserial.c **** 	{
 193:port/portserial.c **** 		pxMBFrameCBTransmitterEmpty();
 194:port/portserial.c **** 	}
 195:port/portserial.c **** 	
 196:port/portserial.c **** 	if(huart->ErrorCode != HAL_UART_ERROR_NONE)
 197:port/portserial.c **** 	{
 198:port/portserial.c **** 		HAL_UART_ErrorCallback(huart);
 199:port/portserial.c **** 		printf("Uart_ErrCode: %d\n", huart->ErrorCode);
 200:port/portserial.c **** 	}
 201:port/portserial.c **** }
 202:port/portserial.c **** 
 203:port/portserial.c **** /* 
 204:port/portserial.c ****  * Create an interrupt handler for the transmit buffer empty interrupt
 205:port/portserial.c ****  * (or an equivalent) for your target processor. This function should then
 206:port/portserial.c ****  * call pxMBFrameCBTransmitterEmpty( ) which tells the protocol stack that
 207:port/portserial.c ****  * a new character can be sent. The protocol stack will then call 
 208:port/portserial.c ****  * xMBPortSerialPutByte( ) to send the character.
ARM GAS  C:\cygwin\tmp\cczYE0L8.s 			page 7


 209:port/portserial.c ****  */
 210:port/portserial.c **** static void
 211:port/portserial.c **** prvvUARTTxReadyISR( void )
 212:port/portserial.c **** {
 213:port/portserial.c ****     pxMBFrameCBTransmitterEmpty();
 132              		.loc 1 213 0
 133 002c 064B     		ldr	r3, .L6+8	@ tmp129,
 134              	.LBE9:
 135              	.LBE8:
  68:port/portserial.c **** 
 136              		.loc 1 68 0
 137 002e BDE87040 		pop	{r4, r5, r6, lr}	@
 138              		.cfi_remember_state
 139              		.cfi_restore 14
 140              		.cfi_restore 6
 141              		.cfi_restore 5
 142              		.cfi_restore 4
 143              		.cfi_def_cfa_offset 0
 144              	.LBB11:
 145              	.LBB10:
 146              		.loc 1 213 0
 147 0032 1B68     		ldr	r3, [r3]	@ pxMBFrameCBTransmitterEmpty, pxMBFrameCBTransmitterEmpty
 148 0034 1847     		bx	r3	@ pxMBFrameCBTransmitterEmpty
 149              	.LVL5:
 150              	.L4:
 151              		.cfi_restore_state
 152              	.LBE10:
 153              	.LBE11:
  66:port/portserial.c ****     }
 154              		.loc 1 66 0
 155 0036 23F08003 		bic	r3, r3, #128	@ D.7721, D.7721,
 156 003a D360     		str	r3, [r2, #12]	@ D.7721, _20->CR1
 157 003c 70BD     		pop	{r4, r5, r6, pc}	@
 158              	.L7:
 159 003e 00BF     		.align	2
 160              	.L6:
 161 0040 00000000 		.word	UartHandle
 162 0044 00000000 		.word	.LC0
 163 0048 00000000 		.word	pxMBFrameCBTransmitterEmpty
 164              		.cfi_endproc
 165              	.LFE123:
 166              		.size	vMBPortSerialEnable, .-vMBPortSerialEnable
 167              		.section	.text.vMBPortClose,"ax",%progbits
 168              		.align	1
 169              		.global	vMBPortClose
 170              		.thumb
 171              		.thumb_func
 172              		.type	vMBPortClose, %function
 173              	vMBPortClose:
 174              	.LFB124:
  72:port/portserial.c **** }
 175              		.loc 1 72 0
 176              		.cfi_startproc
 177              		@ args = 0, pretend = 0, frame = 0
 178              		@ frame_needed = 0, uses_anonymous_args = 0
 179              		@ link register save eliminated.
 180 0000 7047     		bx	lr	@
ARM GAS  C:\cygwin\tmp\cczYE0L8.s 			page 8


 181              		.cfi_endproc
 182              	.LFE124:
 183              		.size	vMBPortClose, .-vMBPortClose
 184              		.section	.text.xMBPortSerialInit,"ax",%progbits
 185              		.align	1
 186              		.global	xMBPortSerialInit
 187              		.thumb
 188              		.thumb_func
 189              		.type	xMBPortSerialInit, %function
 190              	xMBPortSerialInit:
 191              	.LFB125:
  77:port/portserial.c ****     BOOL            bInitialized = TRUE;
 192              		.loc 1 77 0
 193              		.cfi_startproc
 194              		@ args = 0, pretend = 0, frame = 0
 195              		@ frame_needed = 0, uses_anonymous_args = 0
 196              		@ link register save eliminated.
 197              	.LVL6:
  94:port/portserial.c **** 
 198              		.loc 1 94 0
 199 0000 0120     		movs	r0, #1	@,
 200              	.LVL7:
 201 0002 7047     		bx	lr	@
 202              		.cfi_endproc
 203              	.LFE125:
 204              		.size	xMBPortSerialInit, .-xMBPortSerialInit
 205              		.section	.text.xMBPortSerialPutByte,"ax",%progbits
 206              		.align	1
 207              		.global	xMBPortSerialPutByte
 208              		.thumb
 209              		.thumb_func
 210              		.type	xMBPortSerialPutByte, %function
 211              	xMBPortSerialPutByte:
 212              	.LFB126:
  98:port/portserial.c **** 	UART_HandleTypeDef *huart;
 213              		.loc 1 98 0
 214              		.cfi_startproc
 215              		@ args = 0, pretend = 0, frame = 0
 216              		@ frame_needed = 0, uses_anonymous_args = 0
 217              		@ link register save eliminated.
 218              	.LVL8:
 103:port/portserial.c ****     return TRUE;
 219              		.loc 1 103 0
 220 0000 024B     		ldr	r3, .L11	@ tmp114,
 221 0002 1B68     		ldr	r3, [r3]	@ D.7730, UartHandle.Instance
 222 0004 5860     		str	r0, [r3, #4]	@ ucByte, _2->DR
 105:port/portserial.c **** 
 223              		.loc 1 105 0
 224 0006 0120     		movs	r0, #1	@,
 225              	.LVL9:
 226 0008 7047     		bx	lr	@
 227              	.L12:
 228 000a 00BF     		.align	2
 229              	.L11:
 230 000c 00000000 		.word	UartHandle
 231              		.cfi_endproc
 232              	.LFE126:
ARM GAS  C:\cygwin\tmp\cczYE0L8.s 			page 9


 233              		.size	xMBPortSerialPutByte, .-xMBPortSerialPutByte
 234              		.section	.text.xMBPortSerialGetByte,"ax",%progbits
 235              		.align	1
 236              		.global	xMBPortSerialGetByte
 237              		.thumb
 238              		.thumb_func
 239              		.type	xMBPortSerialGetByte, %function
 240              	xMBPortSerialGetByte:
 241              	.LFB127:
 109:port/portserial.c **** 	UART_HandleTypeDef *huart;
 242              		.loc 1 109 0
 243              		.cfi_startproc
 244              		@ args = 0, pretend = 0, frame = 0
 245              		@ frame_needed = 0, uses_anonymous_args = 0
 246              		@ link register save eliminated.
 247              	.LVL10:
 114:port/portserial.c **** 	
 248              		.loc 1 114 0
 249 0000 024B     		ldr	r3, .L14	@ tmp115,
 250 0002 1B68     		ldr	r3, [r3]	@ D.7734, UartHandle.Instance
 251 0004 5B68     		ldr	r3, [r3, #4]	@ D.7735, _2->DR
 252 0006 0370     		strb	r3, [r0]	@ D.7735, *pucByte_5(D)
 117:port/portserial.c **** 
 253              		.loc 1 117 0
 254 0008 0120     		movs	r0, #1	@,
 255              	.LVL11:
 256 000a 7047     		bx	lr	@
 257              	.L15:
 258              		.align	2
 259              	.L14:
 260 000c 00000000 		.word	UartHandle
 261              		.cfi_endproc
 262              	.LFE127:
 263              		.size	xMBPortSerialGetByte, .-xMBPortSerialGetByte
 264              		.section	.text.HAL_UART_TxCpltCallback,"ax",%progbits
 265              		.align	1
 266              		.global	HAL_UART_TxCpltCallback
 267              		.thumb
 268              		.thumb_func
 269              		.type	HAL_UART_TxCpltCallback, %function
 270              	HAL_UART_TxCpltCallback:
 271              	.LFB131:
 214:port/portserial.c **** }
 215:port/portserial.c **** 
 216:port/portserial.c **** /* 
 217:port/portserial.c ****  * Create an interrupt handler for the receive interrupt for your target
 218:port/portserial.c ****  * processor. This function should then call pxMBFrameCBByteReceived( ). The
 219:port/portserial.c ****  * protocol stack will then call xMBPortSerialGetByte( ) to retrieve the
 220:port/portserial.c ****  * character.
 221:port/portserial.c ****  */
 222:port/portserial.c **** static void
 223:port/portserial.c **** prvvUARTRxISR( void )
 224:port/portserial.c **** {
 225:port/portserial.c ****     pxMBFrameCBByteReceived(  );
 226:port/portserial.c **** }
 227:port/portserial.c **** 
 228:port/portserial.c **** /**
ARM GAS  C:\cygwin\tmp\cczYE0L8.s 			page 10


 229:port/portserial.c ****   * @brief  Tx Transfer completed callback
 230:port/portserial.c ****   * @param  UartHandle: UART handle. 
 231:port/portserial.c ****   * @note   This example shows a simple way to report end of DMA Tx transfer, and 
 232:port/portserial.c ****   *         you can add your own implementation. 
 233:port/portserial.c ****   * @retval None
 234:port/portserial.c ****   */
 235:port/portserial.c **** void HAL_UART_TxCpltCallback(UART_HandleTypeDef *UartHandle){
 272              		.loc 1 235 0
 273              		.cfi_startproc
 274              		@ args = 0, pretend = 0, frame = 0
 275              		@ frame_needed = 0, uses_anonymous_args = 0
 276              		@ link register save eliminated.
 277              	.LVL12:
 236:port/portserial.c ****   /* Set transmission flag: transfer complete */
 237:port/portserial.c ****   UartReady_Transmit = SET;
 278              		.loc 1 237 0
 279 0000 024B     		ldr	r3, .L17	@ tmp111,
 238:port/portserial.c ****   printf("Byte is send\n");
 280              		.loc 1 238 0
 281 0002 0348     		ldr	r0, .L17+4	@,
 282              	.LVL13:
 237:port/portserial.c ****   printf("Byte is send\n");
 283              		.loc 1 237 0
 284 0004 0122     		movs	r2, #1	@ tmp112,
 285 0006 1A70     		strb	r2, [r3]	@ tmp112, UartReady_Transmit
 286              		.loc 1 238 0
 287 0008 FFF7FEBF 		b	puts	@
 288              	.LVL14:
 289              	.L18:
 290              		.align	2
 291              	.L17:
 292 000c 00000000 		.word	.LANCHOR0
 293 0010 10000000 		.word	.LC1
 294              		.cfi_endproc
 295              	.LFE131:
 296              		.size	HAL_UART_TxCpltCallback, .-HAL_UART_TxCpltCallback
 297              		.section	.text.HAL_UART_RxCpltCallback,"ax",%progbits
 298              		.align	1
 299              		.global	HAL_UART_RxCpltCallback
 300              		.thumb
 301              		.thumb_func
 302              		.type	HAL_UART_RxCpltCallback, %function
 303              	HAL_UART_RxCpltCallback:
 304              	.LFB132:
 239:port/portserial.c ****   
 240:port/portserial.c **** }
 241:port/portserial.c **** 
 242:port/portserial.c **** /**
 243:port/portserial.c ****   * @brief  Rx Transfer completed callback
 244:port/portserial.c ****   * @param  UartHandle: UART handle
 245:port/portserial.c ****   * @note   This example shows a simple way to report end of DMA Rx transfer, and 
 246:port/portserial.c ****   *         you can add your own implementation.
 247:port/portserial.c ****   * @retval None
 248:port/portserial.c ****   */
 249:port/portserial.c **** void HAL_UART_RxCpltCallback(UART_HandleTypeDef *UartHandle){
 305              		.loc 1 249 0
 306              		.cfi_startproc
ARM GAS  C:\cygwin\tmp\cczYE0L8.s 			page 11


 307              		@ args = 0, pretend = 0, frame = 0
 308              		@ frame_needed = 0, uses_anonymous_args = 0
 309              	.LVL15:
 310 0000 10B5     		push	{r4, lr}	@
 311              		.cfi_def_cfa_offset 8
 312              		.cfi_offset 4, -8
 313              		.cfi_offset 14, -4
 250:port/portserial.c ****   /* Set transmission flag: transfer complete */
 251:port/portserial.c ****   UartReady_Receive = SET;
 314              		.loc 1 251 0
 315 0002 054B     		ldr	r3, .L20	@ tmp112,
 252:port/portserial.c ****   printf("Byte received\n");
 316              		.loc 1 252 0
 317 0004 0548     		ldr	r0, .L20+4	@,
 318              	.LVL16:
 251:port/portserial.c ****   printf("Byte received\n");
 319              		.loc 1 251 0
 320 0006 0122     		movs	r2, #1	@ tmp113,
 321 0008 1A70     		strb	r2, [r3]	@ tmp113, UartReady_Receive
 322              		.loc 1 252 0
 323 000a FFF7FEFF 		bl	puts	@
 324              	.LVL17:
 325              	.LBB14:
 326              	.LBB15:
 225:port/portserial.c **** }
 327              		.loc 1 225 0
 328 000e 044B     		ldr	r3, .L20+8	@ tmp116,
 329              	.LBE15:
 330              	.LBE14:
 253:port/portserial.c ****   
 254:port/portserial.c ****   prvvUARTRxISR();
 255:port/portserial.c ****   
 256:port/portserial.c **** }
 331              		.loc 1 256 0
 332 0010 BDE81040 		pop	{r4, lr}	@
 333              		.cfi_restore 14
 334              		.cfi_restore 4
 335              		.cfi_def_cfa_offset 0
 336              	.LBB17:
 337              	.LBB16:
 225:port/portserial.c **** }
 338              		.loc 1 225 0
 339 0014 1B68     		ldr	r3, [r3]	@ pxMBFrameCBByteReceived, pxMBFrameCBByteReceived
 340 0016 1847     		bx	r3	@ pxMBFrameCBByteReceived
 341              	.LVL18:
 342              	.L21:
 343              		.align	2
 344              	.L20:
 345 0018 00000000 		.word	.LANCHOR1
 346 001c 1D000000 		.word	.LC2
 347 0020 00000000 		.word	pxMBFrameCBByteReceived
 348              	.LBE16:
 349              	.LBE17:
 350              		.cfi_endproc
 351              	.LFE132:
 352              		.size	HAL_UART_RxCpltCallback, .-HAL_UART_RxCpltCallback
 353              		.section	.text.HAL_UART_ErrorCallback,"ax",%progbits
ARM GAS  C:\cygwin\tmp\cczYE0L8.s 			page 12


 354              		.align	1
 355              		.global	HAL_UART_ErrorCallback
 356              		.thumb
 357              		.thumb_func
 358              		.type	HAL_UART_ErrorCallback, %function
 359              	HAL_UART_ErrorCallback:
 360              	.LFB133:
 257:port/portserial.c **** 
 258:port/portserial.c **** /**
 259:port/portserial.c ****   * @brief  UART error callbacks
 260:port/portserial.c ****   * @param  UartHandle: UART handle
 261:port/portserial.c ****   * @note   This example shows a simple way to report transfer error, and you can
 262:port/portserial.c ****   *         add your own implementation.
 263:port/portserial.c ****   * @retval None
 264:port/portserial.c ****   */
 265:port/portserial.c **** void HAL_UART_ErrorCallback(UART_HandleTypeDef *UartHandle){
 361              		.loc 1 265 0
 362              		.cfi_startproc
 363              		@ args = 0, pretend = 0, frame = 0
 364              		@ frame_needed = 0, uses_anonymous_args = 0
 365              	.LVL19:
 366 0000 10B5     		push	{r4, lr}	@
 367              		.cfi_def_cfa_offset 8
 368              		.cfi_offset 4, -8
 369              		.cfi_offset 14, -4
 370              		.loc 1 265 0
 371 0002 0446     		mov	r4, r0	@ UartHandle, UartHandle
 266:port/portserial.c ****   /* Transfer error in reception/transmission process */
 267:port/portserial.c **** 	printf("USART bus Error\n"); 
 372              		.loc 1 267 0
 373 0004 0448     		ldr	r0, .L23	@,
 374              	.LVL20:
 375 0006 FFF7FEFF 		bl	puts	@
 376              	.LVL21:
 268:port/portserial.c **** 	printf("Uart Error Code: %d\n", UartHandle->ErrorCode);
 377              		.loc 1 268 0
 378 000a E16B     		ldr	r1, [r4, #60]	@ D.7746, UartHandle_3(D)->ErrorCode
 379 000c 0348     		ldr	r0, .L23+4	@,
 269:port/portserial.c **** }
 380              		.loc 1 269 0
 381 000e BDE81040 		pop	{r4, lr}	@
 382              		.cfi_restore 14
 383              		.cfi_restore 4
 384              		.cfi_def_cfa_offset 0
 385              	.LVL22:
 268:port/portserial.c **** 	printf("Uart Error Code: %d\n", UartHandle->ErrorCode);
 386              		.loc 1 268 0
 387 0012 FFF7FEBF 		b	printf	@
 388              	.LVL23:
 389              	.L24:
 390 0016 00BF     		.align	2
 391              	.L23:
 392 0018 2B000000 		.word	.LC3
 393 001c 3B000000 		.word	.LC4
 394              		.cfi_endproc
 395              	.LFE133:
 396              		.size	HAL_UART_ErrorCallback, .-HAL_UART_ErrorCallback
ARM GAS  C:\cygwin\tmp\cczYE0L8.s 			page 13


 397              		.section	.text.USART1_IRQHandler,"ax",%progbits
 398              		.align	1
 399              		.global	USART1_IRQHandler
 400              		.thumb
 401              		.thumb_func
 402              		.type	USART1_IRQHandler, %function
 403              	USART1_IRQHandler:
 404              	.LFB128:
 125:port/portserial.c **** 	//uint8_t vRxBuffer_Usart[256];
 405              		.loc 1 125 0
 406              		.cfi_startproc
 407              		@ args = 0, pretend = 0, frame = 16
 408              		@ frame_needed = 0, uses_anonymous_args = 0
 409              	.LVL24:
 410 0000 30B5     		push	{r4, r5, lr}	@
 411              		.cfi_def_cfa_offset 12
 412              		.cfi_offset 4, -12
 413              		.cfi_offset 5, -8
 414              		.cfi_offset 14, -4
 134:port/portserial.c **** 	tmp2 = __HAL_UART_GET_IT_SOURCE(huart, UART_IT_PE);  
 415              		.loc 1 134 0
 416 0002 2F4C     		ldr	r4, .L72	@ tmp160,
 417 0004 2368     		ldr	r3, [r4]	@ D.7751, UartHandle.Instance
 418 0006 1968     		ldr	r1, [r3]	@ D.7752, _9->SR
 419              	.LVL25:
 135:port/portserial.c **** 	/* UART parity error interrupt occurred ------------------------------------*/
 420              		.loc 1 135 0
 421 0008 DA68     		ldr	r2, [r3, #12]	@ D.7752, _9->CR1
 422              	.LVL26:
 137:port/portserial.c **** 	{
 423              		.loc 1 137 0
 424 000a CD07     		lsls	r5, r1, #31	@, D.7752,
 125:port/portserial.c **** 	//uint8_t vRxBuffer_Usart[256];
 425              		.loc 1 125 0
 426 000c 85B0     		sub	sp, sp, #20	@,,
 427              		.cfi_def_cfa_offset 32
 137:port/portserial.c **** 	{
 428              		.loc 1 137 0
 429 000e 0AD5     		bpl	.L26	@,
 137:port/portserial.c **** 	{
 430              		.loc 1 137 0 is_stmt 0 discriminator 1
 431 0010 D005     		lsls	r0, r2, #23	@, D.7752,
 432 0012 08D5     		bpl	.L26	@,
 433              	.LBB18:
 139:port/portserial.c **** 		
 434              		.loc 1 139 0 is_stmt 1
 435 0014 1A68     		ldr	r2, [r3]	@ D.7752, _9->SR
 436              	.LVL27:
 437 0016 0092     		str	r2, [sp]	@ D.7752, tmpreg
 438 0018 5A68     		ldr	r2, [r3, #4]	@ D.7752, _9->DR
 439 001a 0092     		str	r2, [sp]	@ D.7752, tmpreg
 440 001c 009A     		ldr	r2, [sp]	@ D.7752, tmpreg
 441              	.LBE18:
 141:port/portserial.c **** 	}
 442              		.loc 1 141 0
 443 001e E26B     		ldr	r2, [r4, #60]	@ D.7752, UartHandle.ErrorCode
 444 0020 42F00102 		orr	r2, r2, #1	@ D.7752, D.7752,
ARM GAS  C:\cygwin\tmp\cczYE0L8.s 			page 14


 445 0024 E263     		str	r2, [r4, #60]	@ D.7752, UartHandle.ErrorCode
 446              	.L26:
 144:port/portserial.c **** 	tmp2 = __HAL_UART_GET_IT_SOURCE(huart, UART_IT_ERR);
 447              		.loc 1 144 0
 448 0026 1968     		ldr	r1, [r3]	@ D.7752, _9->SR
 449              	.LVL28:
 145:port/portserial.c **** 	/* UART frame error interrupt occurred -------------------------------------*/
 450              		.loc 1 145 0
 451 0028 5A69     		ldr	r2, [r3, #20]	@ D.7752, _9->CR3
 452              	.LVL29:
 147:port/portserial.c **** 	{
 453              		.loc 1 147 0
 454 002a 8907     		lsls	r1, r1, #30	@, D.7752,
 455              	.LVL30:
 456 002c 0AD5     		bpl	.L27	@,
 147:port/portserial.c **** 	{
 457              		.loc 1 147 0 is_stmt 0 discriminator 1
 458 002e D207     		lsls	r2, r2, #31	@, D.7752,
 459              	.LVL31:
 460 0030 08D5     		bpl	.L27	@,
 461              	.LBB19:
 149:port/portserial.c **** 
 462              		.loc 1 149 0 is_stmt 1
 463 0032 1A68     		ldr	r2, [r3]	@ D.7752, _9->SR
 464 0034 0192     		str	r2, [sp, #4]	@ D.7752, tmpreg
 465 0036 5A68     		ldr	r2, [r3, #4]	@ D.7752, _9->DR
 466 0038 0192     		str	r2, [sp, #4]	@ D.7752, tmpreg
 467 003a 019A     		ldr	r2, [sp, #4]	@ D.7752, tmpreg
 468              	.LBE19:
 151:port/portserial.c **** 	}
 469              		.loc 1 151 0
 470 003c E26B     		ldr	r2, [r4, #60]	@ D.7752, UartHandle.ErrorCode
 471 003e 42F00402 		orr	r2, r2, #4	@ D.7752, D.7752,
 472 0042 E263     		str	r2, [r4, #60]	@ D.7752, UartHandle.ErrorCode
 473              	.L27:
 154:port/portserial.c **** 	tmp2 = __HAL_UART_GET_IT_SOURCE(huart, UART_IT_ERR);
 474              		.loc 1 154 0
 475 0044 1968     		ldr	r1, [r3]	@ D.7752, _9->SR
 476              	.LVL32:
 155:port/portserial.c **** 	/* UART noise error interrupt occurred -------------------------------------*/
 477              		.loc 1 155 0
 478 0046 5A69     		ldr	r2, [r3, #20]	@ D.7752, _9->CR3
 479              	.LVL33:
 157:port/portserial.c **** 	{ 
 480              		.loc 1 157 0
 481 0048 4D07     		lsls	r5, r1, #29	@, D.7752,
 482 004a 0AD5     		bpl	.L28	@,
 157:port/portserial.c **** 	{ 
 483              		.loc 1 157 0 is_stmt 0 discriminator 1
 484 004c D007     		lsls	r0, r2, #31	@, D.7752,
 485 004e 08D5     		bpl	.L28	@,
 486              	.LBB20:
 159:port/portserial.c **** 
 487              		.loc 1 159 0 is_stmt 1
 488 0050 1A68     		ldr	r2, [r3]	@ D.7752, _9->SR
 489              	.LVL34:
 490 0052 0292     		str	r2, [sp, #8]	@ D.7752, tmpreg
ARM GAS  C:\cygwin\tmp\cczYE0L8.s 			page 15


 491 0054 5A68     		ldr	r2, [r3, #4]	@ D.7752, _9->DR
 492 0056 0292     		str	r2, [sp, #8]	@ D.7752, tmpreg
 493 0058 029A     		ldr	r2, [sp, #8]	@ D.7752, tmpreg
 494              	.LBE20:
 161:port/portserial.c **** 	}
 495              		.loc 1 161 0
 496 005a E26B     		ldr	r2, [r4, #60]	@ D.7752, UartHandle.ErrorCode
 497 005c 42F00202 		orr	r2, r2, #2	@ D.7752, D.7752,
 498 0060 E263     		str	r2, [r4, #60]	@ D.7752, UartHandle.ErrorCode
 499              	.L28:
 164:port/portserial.c **** 	tmp2 = __HAL_UART_GET_IT_SOURCE(huart, UART_IT_ERR);
 500              		.loc 1 164 0
 501 0062 1968     		ldr	r1, [r3]	@ D.7752, _9->SR
 502              	.LVL35:
 165:port/portserial.c **** 	/* UART Over-Run interrupt occurred ----------------------------------------*/
 503              		.loc 1 165 0
 504 0064 5A69     		ldr	r2, [r3, #20]	@ D.7752, _9->CR3
 505              	.LVL36:
 167:port/portserial.c **** 	{ 
 506              		.loc 1 167 0
 507 0066 0907     		lsls	r1, r1, #28	@, D.7752,
 508              	.LVL37:
 509 0068 0AD5     		bpl	.L29	@,
 167:port/portserial.c **** 	{ 
 510              		.loc 1 167 0 is_stmt 0 discriminator 1
 511 006a D507     		lsls	r5, r2, #31	@, D.7752,
 512 006c 08D5     		bpl	.L29	@,
 513              	.LBB21:
 169:port/portserial.c **** 
 514              		.loc 1 169 0 is_stmt 1
 515 006e 1A68     		ldr	r2, [r3]	@ D.7752, _9->SR
 516              	.LVL38:
 517 0070 0392     		str	r2, [sp, #12]	@ D.7752, tmpreg
 518 0072 5A68     		ldr	r2, [r3, #4]	@ D.7752, _9->DR
 519 0074 0392     		str	r2, [sp, #12]	@ D.7752, tmpreg
 520 0076 039A     		ldr	r2, [sp, #12]	@ D.7752, tmpreg
 521              	.LBE21:
 171:port/portserial.c **** 	}
 522              		.loc 1 171 0
 523 0078 E26B     		ldr	r2, [r4, #60]	@ D.7752, UartHandle.ErrorCode
 524 007a 42F00802 		orr	r2, r2, #8	@ D.7752, D.7752,
 525 007e E263     		str	r2, [r4, #60]	@ D.7752, UartHandle.ErrorCode
 526              	.L29:
 174:port/portserial.c **** 	tmp2 = __HAL_UART_GET_IT_SOURCE(&UartHandle, UART_IT_RXNE);
 527              		.loc 1 174 0
 528 0080 1A68     		ldr	r2, [r3]	@ D.7752, _9->SR
 529              	.LVL39:
 175:port/portserial.c **** 	//printf("Flag_RxNE : %s\n", tmp1 ? "SET" : "RESET");
 530              		.loc 1 175 0
 531 0082 DB68     		ldr	r3, [r3, #12]	@ D.7752, _9->CR1
 532              	.LVL40:
 179:port/portserial.c **** 	{
 533              		.loc 1 179 0
 534 0084 9006     		lsls	r0, r2, #26	@, D.7752,
 535 0086 04D5     		bpl	.L30	@,
 179:port/portserial.c **** 	{
 536              		.loc 1 179 0 is_stmt 0 discriminator 1
ARM GAS  C:\cygwin\tmp\cczYE0L8.s 			page 16


 537 0088 9906     		lsls	r1, r3, #26	@, D.7752,
 538 008a 02D5     		bpl	.L30	@,
 185:port/portserial.c **** 	}
 539              		.loc 1 185 0 is_stmt 1
 540 008c 0D4B     		ldr	r3, .L72+4	@ tmp179,
 541              	.LVL41:
 542 008e 1B68     		ldr	r3, [r3]	@ pxMBFrameCBByteReceived, pxMBFrameCBByteReceived
 543 0090 9847     		blx	r3	@ pxMBFrameCBByteReceived
 544              	.LVL42:
 545              	.L30:
 188:port/portserial.c **** 	tmp2 = __HAL_UART_GET_IT_SOURCE(huart, UART_IT_TXE);
 546              		.loc 1 188 0
 547 0092 2368     		ldr	r3, [r4]	@ D.7751, UartHandle.Instance
 548 0094 1A68     		ldr	r2, [r3]	@ D.7752, _64->SR
 549              	.LVL43:
 189:port/portserial.c **** 	/* UART in mode Transmitter ------------------------------------------------*/
 550              		.loc 1 189 0
 551 0096 DB68     		ldr	r3, [r3, #12]	@ D.7752, _64->CR1
 552              	.LVL44:
 191:port/portserial.c **** 	{
 553              		.loc 1 191 0
 554 0098 1206     		lsls	r2, r2, #24	@, D.7752,
 555              	.LVL45:
 556 009a 04D5     		bpl	.L31	@,
 191:port/portserial.c **** 	{
 557              		.loc 1 191 0 is_stmt 0 discriminator 1
 558 009c 1B06     		lsls	r3, r3, #24	@, D.7752,
 559              	.LVL46:
 560 009e 02D5     		bpl	.L31	@,
 193:port/portserial.c **** 	}
 561              		.loc 1 193 0 is_stmt 1
 562 00a0 094B     		ldr	r3, .L72+8	@ tmp184,
 563 00a2 1B68     		ldr	r3, [r3]	@ pxMBFrameCBTransmitterEmpty, pxMBFrameCBTransmitterEmpty
 564 00a4 9847     		blx	r3	@ pxMBFrameCBTransmitterEmpty
 565              	.LVL47:
 566              	.L31:
 196:port/portserial.c **** 	{
 567              		.loc 1 196 0
 568 00a6 E36B     		ldr	r3, [r4, #60]	@ D.7752, UartHandle.ErrorCode
 569 00a8 054D     		ldr	r5, .L72	@ tmp186,
 570 00aa 33B1     		cbz	r3, .L25	@ D.7752,
 571              	.LBB22:
 198:port/portserial.c **** 		printf("Uart_ErrCode: %d\n", huart->ErrorCode);
 572              		.loc 1 198 0
 573 00ac 2846     		mov	r0, r5	@, tmp186
 574 00ae FFF7FEFF 		bl	HAL_UART_ErrorCallback	@
 575              	.LVL48:
 199:port/portserial.c **** 	}
 576              		.loc 1 199 0
 577 00b2 E96B     		ldr	r1, [r5, #60]	@ D.7752, UartHandle.ErrorCode
 578 00b4 0548     		ldr	r0, .L72+12	@,
 579 00b6 FFF7FEFF 		bl	printf	@
 580              	.LVL49:
 581              	.L25:
 582              	.LBE22:
 201:port/portserial.c **** 
 583              		.loc 1 201 0
ARM GAS  C:\cygwin\tmp\cczYE0L8.s 			page 17


 584 00ba 05B0     		add	sp, sp, #20	@,,
 585              		.cfi_def_cfa_offset 12
 586              		@ sp needed	@
 587 00bc 30BD     		pop	{r4, r5, pc}	@
 588              	.L73:
 589 00be 00BF     		.align	2
 590              	.L72:
 591 00c0 00000000 		.word	UartHandle
 592 00c4 00000000 		.word	pxMBFrameCBByteReceived
 593 00c8 00000000 		.word	pxMBFrameCBTransmitterEmpty
 594 00cc 50000000 		.word	.LC5
 595              		.cfi_endproc
 596              	.LFE128:
 597              		.size	USART1_IRQHandler, .-USART1_IRQHandler
 598              		.global	UartReady_Receive
 599              		.global	UartReady_Transmit
 600              		.comm	aRxBuffer_Usart,15,1
 601              		.global	aTxBuffer_Usart
 602              		.section	.bss.UartReady_Receive,"aw",%nobits
 603              		.set	.LANCHOR1,. + 0
 604              		.type	UartReady_Receive, %object
 605              		.size	UartReady_Receive, 1
 606              	UartReady_Receive:
 607 0000 00       		.space	1
 608              		.section	.rodata.str1.1,"aMS",%progbits,1
 609              	.LC0:
 610 0000 52656365 		.ascii	"Receive enabled\000"
 610      69766520 
 610      656E6162 
 610      6C656400 
 611              	.LC1:
 612 0010 42797465 		.ascii	"Byte is send\000"
 612      20697320 
 612      73656E64 
 612      00
 613              	.LC2:
 614 001d 42797465 		.ascii	"Byte received\000"
 614      20726563 
 614      65697665 
 614      6400
 615              	.LC3:
 616 002b 55534152 		.ascii	"USART bus Error\000"
 616      54206275 
 616      73204572 
 616      726F7200 
 617              	.LC4:
 618 003b 55617274 		.ascii	"Uart Error Code: %d\012\000"
 618      20457272 
 618      6F722043 
 618      6F64653A 
 618      2025640A 
 619              	.LC5:
 620 0050 55617274 		.ascii	"Uart_ErrCode: %d\012\000"
 620      5F457272 
 620      436F6465 
 620      3A202564 
 620      0A00
ARM GAS  C:\cygwin\tmp\cczYE0L8.s 			page 18


 621              		.section	.data.aTxBuffer_Usart,"aw",%progbits
 622              		.type	aTxBuffer_Usart, %object
 623              		.size	aTxBuffer_Usart, 16
 624              	aTxBuffer_Usart:
 625 0000 73657269 		.ascii	"serial Port up!\000"
 625      616C2050 
 625      6F727420 
 625      75702100 
 626              		.section	.bss.UartReady_Transmit,"aw",%nobits
 627              		.set	.LANCHOR0,. + 0
 628              		.type	UartReady_Transmit, %object
 629              		.size	UartReady_Transmit, 1
 630              	UartReady_Transmit:
 631 0000 00       		.space	1
 632              		.text
 633              	.Letext0:
 634              		.file 2 "c:\\program files\\gcc-arm-none-eabi-4_9-2014\\arm-none-eabi\\include\\machine\\_default_
 635              		.file 3 "c:\\program files\\gcc-arm-none-eabi-4_9-2014\\arm-none-eabi\\include\\stdint.h"
 636              		.file 4 "../STM32Cube_FW_F4_V1.4.0/Drivers/CMSIS/Device/ST/STM32F4xx/Include/stm32f407xx.h"
 637              		.file 5 "../STM32Cube_FW_F4_V1.4.0/Drivers/CMSIS/Device/ST/STM32F4xx/Include/stm32f4xx.h"
 638              		.file 6 "../STM32Cube_FW_F4_V1.4.0/Drivers/STM32F4xx_HAL_Driver/Inc/stm32f4xx_hal_def.h"
 639              		.file 7 "../STM32Cube_FW_F4_V1.4.0/Drivers/STM32F4xx_HAL_Driver/Inc/stm32f4xx_hal_dma.h"
 640              		.file 8 "../STM32Cube_FW_F4_V1.4.0/Drivers/STM32F4xx_HAL_Driver/Inc/stm32f4xx_hal_uart.h"
 641              		.file 9 "port/port.h"
 642              		.file 10 "modbus/include/mbport.h"
 643              		.file 11 "<built-in>"
 644              		.file 12 "../STM32Cube_FW_F4_V1.4.0/Drivers/CMSIS/Include/core_cm4.h"