ARM GAS  C:\cygwin\tmp\cc817PJM.s 			page 1


   1              		.syntax unified
   2              		.cpu cortex-m4
   3              		.fpu softvfp
   4              		.eabi_attribute 20, 1	@ Tag_ABI_FP_denormal
   5              		.eabi_attribute 21, 1	@ Tag_ABI_FP_exceptions
   6              		.eabi_attribute 23, 3	@ Tag_ABI_FP_number_model
   7              		.eabi_attribute 24, 1	@ Tag_ABI_align8_needed
   8              		.eabi_attribute 25, 1	@ Tag_ABI_align8_preserved
   9              		.eabi_attribute 26, 1	@ Tag_ABI_enum_size
  10              		.eabi_attribute 30, 4	@ Tag_ABI_optimization_goals
  11              		.eabi_attribute 34, 1	@ Tag_CPU_unaligned_access
  12              		.eabi_attribute 18, 4	@ Tag_ABI_PCS_wchar_t
  13              		.file	"porttimer.c"
  14              	@ GNU C (GNU Tools for ARM Embedded Processors) version 4.9.3 20141119 (release) [ARM/embedded-4_9-
  15              	@	compiled by GNU C version 4.7.4, GMP version 4.3.2, MPFR version 2.4.2, MPC version 0.8.1
  16              	@ GGC heuristics: --param ggc-min-expand=100 --param ggc-min-heapsize=131072
  17              	@ options passed:  -I . -I Inc -I port -I modbus/rtu -I modbus/ascii
  18              	@ -I modbus/include -I ../STM32Cube_FW_F4_V1.4.0/Drivers/CMSIS/Include
  19              	@ -I ../STM32Cube_FW_F4_V1.4.0/Drivers/CMSIS/Device/ST/STM32F4xx/Include
  20              	@ -I ../STM32Cube_FW_F4_V1.4.0/Drivers/STM32F4xx_HAL_Driver/Inc
  21              	@ -I ../STM32Cube_FW_F4_V1.4.0/Drivers/CMSIS/Include -imultilib armv7e-m
  22              	@ -iprefix c:\program files\gcc-arm-none-eabi-4_9-2014\bin\../lib/gcc/arm-none-eabi/4.9.3/
  23              	@ -isysroot c:\program files\gcc-arm-none-eabi-4_9-2014\bin\../arm-none-eabi
  24              	@ -MD out/porttimer.d -MF out/porttimer.d -MP -MQ out/porttimer.o
  25              	@ -D__USES_INITFINI__ -D USE_HAL_DRIVER -D STM32F4XX -D HSE_VALUE=8000000
  26              	@ -D __STARTUP_CLEAR_BSS -D STM32F411RE -D USE_FULL_ASSERT -D __FPU_USED
  27              	@ port/porttimer.c -mcpu=cortex-m4 -mthumb -auxbase-strip out/porttimer.o
  28              	@ -g -ggdb3 -Os -Os -Wall -Wstrict-prototypes -Wextra -std=gnu90
  29              	@ -ffunction-sections -fdata-sections -fverbose-asm
  30              	@ options enabled:  -faggressive-loop-optimizations -fauto-inc-dec
  31              	@ -fbranch-count-reg -fcaller-saves -fcombine-stack-adjustments -fcommon
  32              	@ -fcompare-elim -fcprop-registers -fcrossjumping -fcse-follow-jumps
  33              	@ -fdata-sections -fdefer-pop -fdelete-null-pointer-checks -fdevirtualize
  34              	@ -fdevirtualize-speculatively -fdwarf2-cfi-asm -fearly-inlining
  35              	@ -feliminate-unused-debug-types -fexpensive-optimizations
  36              	@ -fforward-propagate -ffunction-cse -ffunction-sections -fgcse -fgcse-lm
  37              	@ -fgnu-runtime -fgnu-unique -fguess-branch-probability
  38              	@ -fhoist-adjacent-loads -fident -fif-conversion -fif-conversion2
  39              	@ -findirect-inlining -finline -finline-atomics -finline-functions
  40              	@ -finline-functions-called-once -finline-small-functions -fipa-cp
  41              	@ -fipa-profile -fipa-pure-const -fipa-reference -fipa-sra
  42              	@ -fira-hoist-pressure -fira-share-save-slots -fira-share-spill-slots
  43              	@ -fisolate-erroneous-paths-dereference -fivopts -fkeep-static-consts
  44              	@ -fleading-underscore -fmath-errno -fmerge-constants -fmerge-debug-strings
  45              	@ -fomit-frame-pointer -foptimize-sibling-calls -fpartial-inlining
  46              	@ -fpeephole -fpeephole2 -fprefetch-loop-arrays -freg-struct-return
  47              	@ -freorder-blocks -freorder-functions -frerun-cse-after-loop
  48              	@ -fsched-critical-path-heuristic -fsched-dep-count-heuristic
  49              	@ -fsched-group-heuristic -fsched-interblock -fsched-last-insn-heuristic
  50              	@ -fsched-pressure -fsched-rank-heuristic -fsched-spec
  51              	@ -fsched-spec-insn-heuristic -fsched-stalled-insns-dep -fschedule-insns2
  52              	@ -fsection-anchors -fshow-column -fsigned-zeros -fsplit-ivs-in-unroller
  53              	@ -fsplit-wide-types -fstrict-aliasing -fstrict-overflow
  54              	@ -fstrict-volatile-bitfields -fsync-libcalls -fthread-jumps
  55              	@ -ftoplevel-reorder -ftrapping-math -ftree-bit-ccp -ftree-builtin-call-dce
  56              	@ -ftree-ccp -ftree-ch -ftree-coalesce-vars -ftree-copy-prop
  57              	@ -ftree-copyrename -ftree-cselim -ftree-dce -ftree-dominator-opts
ARM GAS  C:\cygwin\tmp\cc817PJM.s 			page 2


  58              	@ -ftree-dse -ftree-forwprop -ftree-fre -ftree-loop-if-convert
  59              	@ -ftree-loop-im -ftree-loop-ivcanon -ftree-loop-optimize
  60              	@ -ftree-parallelize-loops= -ftree-phiprop -ftree-pre -ftree-pta
  61              	@ -ftree-reassoc -ftree-scev-cprop -ftree-sink -ftree-slsr -ftree-sra
  62              	@ -ftree-switch-conversion -ftree-tail-merge -ftree-ter -ftree-vrp
  63              	@ -funit-at-a-time -fvar-tracking -fvar-tracking-assignments -fverbose-asm
  64              	@ -fzero-initialized-in-bss -mlittle-endian -mlra
  65              	@ -mpic-data-is-text-relative -msched-prolog -mthumb -munaligned-access
  66              	@ -mvectorize-with-neon-quad
  67              	
  68              		.text
  69              	.Ltext0:
  70              		.cfi_sections	.debug_frame
  71              		.section	.text.xMBPortTimersInit,"ax",%progbits
  72              		.align	1
  73              		.global	xMBPortTimersInit
  74              		.thumb
  75              		.thumb_func
  76              		.type	xMBPortTimersInit, %function
  77              	xMBPortTimersInit:
  78              	.LFB123:
  79              		.file 1 "port/porttimer.c"
   1:port/porttimer.c **** /*
   2:port/porttimer.c ****  * FreeModbus Libary: LPC214X Port
   3:port/porttimer.c ****  * Copyright (C) 2007 Tiago Prado Lone <tiago@maxwellbohr.com.br>
   4:port/porttimer.c ****  *
   5:port/porttimer.c ****  * This library is free software; you can redistribute it and/or
   6:port/porttimer.c ****  * modify it under the terms of the GNU Lesser General Public
   7:port/porttimer.c ****  * License as published by the Free Software Foundation; either
   8:port/porttimer.c ****  * version 2.1 of the License, or (at your option) any later version.
   9:port/porttimer.c ****  *
  10:port/porttimer.c ****  * This library is distributed in the hope that it will be useful,
  11:port/porttimer.c ****  * but WITHOUT ANY WARRANTY; without even the implied warranty of
  12:port/porttimer.c ****  * MERCHANTABILITY or FITNESS FOR A PARTICULAR PURPOSE.  See the GNU
  13:port/porttimer.c ****  * Lesser General Public License for more details.
  14:port/porttimer.c ****  *
  15:port/porttimer.c ****  * You should have received a copy of the GNU Lesser General Public
  16:port/porttimer.c ****  * License along with this library; if not, write to the Free Software
  17:port/porttimer.c ****  * Foundation, Inc., 51 Franklin St, Fifth Floor, Boston, MA  02110-1301  USA
  18:port/porttimer.c ****  *
  19:port/porttimer.c ****  * File: $Id: porttimer.c,v 1.1 2007/04/24 23:15:18 wolti Exp $
  20:port/porttimer.c ****  */
  21:port/porttimer.c **** 
  22:port/porttimer.c **** /* ----------------------- Platform includes --------------------------------*/
  23:port/porttimer.c **** #include "main.h"
  24:port/porttimer.c **** #include "port.h"
  25:port/porttimer.c **** #include "stm32f4xx_it.h"
  26:port/porttimer.c **** 
  27:port/porttimer.c **** /* ----------------------- Modbus includes ----------------------------------*/
  28:port/porttimer.c **** #include "mb.h"
  29:port/porttimer.c **** #include "mbport.h"
  30:port/porttimer.c **** 
  31:port/porttimer.c **** /*	static functions --------------------------------------------------------*/
  32:port/porttimer.c **** /*	static variables --------------------------------------------------------*/
  33:port/porttimer.c **** uint32_t counter_val = 0;
  34:port/porttimer.c **** /*	exported variables ------------------------------------------------------*/
  35:port/porttimer.c **** extern TIM_HandleTypeDef TimHandle;
ARM GAS  C:\cygwin\tmp\cc817PJM.s 			page 3


  36:port/porttimer.c **** 
  37:port/porttimer.c **** /* ----------------------- Start implementation -----------------------------*/
  38:port/porttimer.c **** BOOL
  39:port/porttimer.c **** xMBPortTimersInit( USHORT usTim1Timerout50us )
  40:port/porttimer.c **** {
  80              		.loc 1 40 0
  81              		.cfi_startproc
  82              		@ args = 0, pretend = 0, frame = 0
  83              		@ frame_needed = 0, uses_anonymous_args = 0
  84              		@ link register save eliminated.
  85              	.LVL0:
  41:port/porttimer.c ****     return TRUE;
  42:port/porttimer.c **** }
  86              		.loc 1 42 0
  87 0000 0120     		movs	r0, #1	@,
  88              	.LVL1:
  89 0002 7047     		bx	lr	@
  90              		.cfi_endproc
  91              	.LFE123:
  92              		.size	xMBPortTimersInit, .-xMBPortTimersInit
  93              		.section	.text.vMBPortTimersEnable,"ax",%progbits
  94              		.align	1
  95              		.global	vMBPortTimersEnable
  96              		.thumb
  97              		.thumb_func
  98              		.type	vMBPortTimersEnable, %function
  99              	vMBPortTimersEnable:
 100              	.LFB124:
  43:port/porttimer.c **** 
  44:port/porttimer.c **** 
  45:port/porttimer.c **** void
  46:port/porttimer.c **** vMBPortTimersEnable(  )
  47:port/porttimer.c **** {
 101              		.loc 1 47 0
 102              		.cfi_startproc
 103              		@ args = 0, pretend = 0, frame = 0
 104              		@ frame_needed = 0, uses_anonymous_args = 0
 105 0000 10B5     		push	{r4, lr}	@
 106              		.cfi_def_cfa_offset 8
 107              		.cfi_offset 4, -8
 108              		.cfi_offset 14, -4
  48:port/porttimer.c **** 	HAL_TIM_Base_Stop_IT(&TimHandle);	// Disable Timer and Reset Counter
 109              		.loc 1 48 0
 110 0002 064C     		ldr	r4, .L3	@ tmp111,
 111 0004 2046     		mov	r0, r4	@, tmp111
 112 0006 FFF7FEFF 		bl	HAL_TIM_Base_Stop_IT	@
 113              	.LVL2:
  49:port/porttimer.c **** 	__HAL_TIM_SET_COUNTER(&TimHandle, 0);
 114              		.loc 1 49 0
 115 000a 2368     		ldr	r3, [r4]	@ D.7563, TimHandle.Instance
 116 000c 0022     		movs	r2, #0	@ tmp113,
  50:port/porttimer.c **** 	
  51:port/porttimer.c **** 	HAL_TIM_Base_Start_IT(&TimHandle);	// Enable Timer
 117              		.loc 1 51 0
 118 000e 2046     		mov	r0, r4	@, tmp111
  49:port/porttimer.c **** 	__HAL_TIM_SET_COUNTER(&TimHandle, 0);
 119              		.loc 1 49 0
ARM GAS  C:\cygwin\tmp\cc817PJM.s 			page 4


 120 0010 5A62     		str	r2, [r3, #36]	@ tmp113, _3->CNT
  52:port/porttimer.c **** }
 121              		.loc 1 52 0
 122 0012 BDE81040 		pop	{r4, lr}	@
 123              		.cfi_restore 14
 124              		.cfi_restore 4
 125              		.cfi_def_cfa_offset 0
  51:port/porttimer.c **** }
 126              		.loc 1 51 0
 127 0016 FFF7FEBF 		b	HAL_TIM_Base_Start_IT	@
 128              	.LVL3:
 129              	.L4:
 130 001a 00BF     		.align	2
 131              	.L3:
 132 001c 00000000 		.word	TimHandle
 133              		.cfi_endproc
 134              	.LFE124:
 135              		.size	vMBPortTimersEnable, .-vMBPortTimersEnable
 136              		.section	.text.vMBPortTimersDisable,"ax",%progbits
 137              		.align	1
 138              		.global	vMBPortTimersDisable
 139              		.thumb
 140              		.thumb_func
 141              		.type	vMBPortTimersDisable, %function
 142              	vMBPortTimersDisable:
 143              	.LFB125:
  53:port/porttimer.c **** 
  54:port/porttimer.c **** void
  55:port/porttimer.c **** vMBPortTimersDisable(  )
  56:port/porttimer.c **** {
 144              		.loc 1 56 0
 145              		.cfi_startproc
 146              		@ args = 0, pretend = 0, frame = 0
 147              		@ frame_needed = 0, uses_anonymous_args = 0
 148              		@ link register save eliminated.
  57:port/porttimer.c **** 	HAL_TIM_Base_Stop_IT(&TimHandle);		// Disable Timer and Reset Counter
 149              		.loc 1 57 0
 150 0000 0148     		ldr	r0, .L6	@,
 151 0002 FFF7FEBF 		b	HAL_TIM_Base_Stop_IT	@
 152              	.LVL4:
 153              	.L7:
 154 0006 00BF     		.align	2
 155              	.L6:
 156 0008 00000000 		.word	TimHandle
 157              		.cfi_endproc
 158              	.LFE125:
 159              		.size	vMBPortTimersDisable, .-vMBPortTimersDisable
 160              		.section	.text.TIM3_IRQHandler,"ax",%progbits
 161              		.align	1
 162              		.global	TIM3_IRQHandler
 163              		.thumb
 164              		.thumb_func
 165              		.type	TIM3_IRQHandler, %function
 166              	TIM3_IRQHandler:
 167              	.LFB126:
  58:port/porttimer.c **** }
  59:port/porttimer.c **** 
ARM GAS  C:\cygwin\tmp\cc817PJM.s 			page 5


  60:port/porttimer.c **** /**
  61:port/porttimer.c ****   * @brief  This function handles TIM interrupt request.
  62:port/porttimer.c ****   * @param  None
  63:port/porttimer.c ****   * @retval None
  64:port/porttimer.c ****   */
  65:port/porttimer.c **** void TIMx_IRQHandler(void)
  66:port/porttimer.c **** {
 168              		.loc 1 66 0
 169              		.cfi_startproc
 170              		@ args = 0, pretend = 0, frame = 0
 171              		@ frame_needed = 0, uses_anonymous_args = 0
 172              		@ link register save eliminated.
  67:port/porttimer.c **** 	HAL_TIM_IRQHandler(&TimHandle);
 173              		.loc 1 67 0
 174 0000 0148     		ldr	r0, .L9	@,
 175 0002 FFF7FEBF 		b	HAL_TIM_IRQHandler	@
 176              	.LVL5:
 177              	.L10:
 178 0006 00BF     		.align	2
 179              	.L9:
 180 0008 00000000 		.word	TimHandle
 181              		.cfi_endproc
 182              	.LFE126:
 183              		.size	TIM3_IRQHandler, .-TIM3_IRQHandler
 184              		.section	.text.HAL_TIM_PeriodElapsedCallback,"ax",%progbits
 185              		.align	1
 186              		.global	HAL_TIM_PeriodElapsedCallback
 187              		.thumb
 188              		.thumb_func
 189              		.type	HAL_TIM_PeriodElapsedCallback, %function
 190              	HAL_TIM_PeriodElapsedCallback:
 191              	.LFB127:
  68:port/porttimer.c **** }
  69:port/porttimer.c **** 
  70:port/porttimer.c **** /**
  71:port/porttimer.c ****   * @brief  Period elapsed callback in non blocking mode
  72:port/porttimer.c ****   * @param  htim: TIM handle
  73:port/porttimer.c ****   * @retval None
  74:port/porttimer.c ****   */
  75:port/porttimer.c **** void HAL_TIM_PeriodElapsedCallback(TIM_HandleTypeDef *htim)
  76:port/porttimer.c **** {
 192              		.loc 1 76 0
 193              		.cfi_startproc
 194              		@ args = 0, pretend = 0, frame = 0
 195              		@ frame_needed = 0, uses_anonymous_args = 0
 196              	.LVL6:
 197 0000 10B5     		push	{r4, lr}	@
 198              		.cfi_def_cfa_offset 8
 199              		.cfi_offset 4, -8
 200              		.cfi_offset 14, -4
  77:port/porttimer.c **** 	HAL_GPIO_TogglePin(GPIOC, GPIO_PIN_12);
 201              		.loc 1 77 0
 202 0002 0548     		ldr	r0, .L12	@,
 203              	.LVL7:
 204 0004 4FF48051 		mov	r1, #4096	@,
 205 0008 FFF7FEFF 		bl	HAL_GPIO_TogglePin	@
 206              	.LVL8:
ARM GAS  C:\cygwin\tmp\cc817PJM.s 			page 6


  78:port/porttimer.c **** 	//counter_val = __HAL_TIM_GET_COUNTER(&TimHandle);
  79:port/porttimer.c **** 	//printf("Counter at interrupt: %d\n", counter_val);
  80:port/porttimer.c **** 	pxMBPortCBTimerExpired();
 207              		.loc 1 80 0
 208 000c 034B     		ldr	r3, .L12+4	@ tmp113,
  81:port/porttimer.c **** }
 209              		.loc 1 81 0
 210 000e BDE81040 		pop	{r4, lr}	@
 211              		.cfi_restore 14
 212              		.cfi_restore 4
 213              		.cfi_def_cfa_offset 0
  80:port/porttimer.c **** }
 214              		.loc 1 80 0
 215 0012 1B68     		ldr	r3, [r3]	@ pxMBPortCBTimerExpired, pxMBPortCBTimerExpired
 216 0014 1847     		bx	r3	@ pxMBPortCBTimerExpired
 217              	.LVL9:
 218              	.L13:
 219 0016 00BF     		.align	2
 220              	.L12:
 221 0018 00080240 		.word	1073874944
 222 001c 00000000 		.word	pxMBPortCBTimerExpired
 223              		.cfi_endproc
 224              	.LFE127:
 225              		.size	HAL_TIM_PeriodElapsedCallback, .-HAL_TIM_PeriodElapsedCallback
 226              		.global	counter_val
 227              		.section	.bss.counter_val,"aw",%nobits
 228              		.align	2
 229              		.type	counter_val, %object
 230              		.size	counter_val, 4
 231              	counter_val:
 232 0000 00000000 		.space	4
 233              		.text
 234              	.Letext0:
 235              		.file 2 "c:\\program files\\gcc-arm-none-eabi-4_9-2014\\arm-none-eabi\\include\\machine\\_default_
 236              		.file 3 "c:\\program files\\gcc-arm-none-eabi-4_9-2014\\arm-none-eabi\\include\\stdint.h"
 237              		.file 4 "../STM32Cube_FW_F4_V1.4.0/Drivers/CMSIS/Device/ST/STM32F4xx/Include/stm32f407xx.h"
 238              		.file 5 "../STM32Cube_FW_F4_V1.4.0/Drivers/STM32F4xx_HAL_Driver/Inc/stm32f4xx_hal_def.h"
 239              		.file 6 "../STM32Cube_FW_F4_V1.4.0/Drivers/STM32F4xx_HAL_Driver/Inc/stm32f4xx_hal_dma.h"
 240              		.file 7 "../STM32Cube_FW_F4_V1.4.0/Drivers/STM32F4xx_HAL_Driver/Inc/stm32f4xx_hal_tim.h"
 241              		.file 8 "port/port.h"
 242              		.file 9 "../STM32Cube_FW_F4_V1.4.0/Drivers/CMSIS/Include/core_cm4.h"
 243              		.file 10 "modbus/include/mbport.h"
 244              		.file 11 "../STM32Cube_FW_F4_V1.4.0/Drivers/STM32F4xx_HAL_Driver/Inc/stm32f4xx_hal_gpio.h"