ARM GAS  C:\cygwin\tmp\cc71jJia.s 			page 1


   1              		.syntax unified
   2              		.cpu cortex-m4
   3              		.fpu softvfp
   4              		.eabi_attribute 20, 1	@ Tag_ABI_FP_denormal
   5              		.eabi_attribute 21, 1	@ Tag_ABI_FP_exceptions
   6              		.eabi_attribute 23, 3	@ Tag_ABI_FP_number_model
   7              		.eabi_attribute 24, 1	@ Tag_ABI_align8_needed
   8              		.eabi_attribute 25, 1	@ Tag_ABI_align8_preserved
   9              		.eabi_attribute 26, 1	@ Tag_ABI_enum_size
  10              		.eabi_attribute 30, 4	@ Tag_ABI_optimization_goals
  11              		.eabi_attribute 34, 1	@ Tag_CPU_unaligned_access
  12              		.eabi_attribute 18, 4	@ Tag_ABI_PCS_wchar_t
  13              		.file	"stm32f4xx_hal_msp.c"
  14              	@ GNU C (GNU Tools for ARM Embedded Processors) version 4.9.3 20141119 (release) [ARM/embedded-4_9-
  15              	@	compiled by GNU C version 4.7.4, GMP version 4.3.2, MPFR version 2.4.2, MPC version 0.8.1
  16              	@ GGC heuristics: --param ggc-min-expand=100 --param ggc-min-heapsize=131072
  17              	@ options passed:  -I . -I Inc -I port -I modbus/rtu -I modbus/ascii
  18              	@ -I modbus/include -I ../STM32Cube_FW_F4_V1.4.0/Drivers/CMSIS/Include
  19              	@ -I ../STM32Cube_FW_F4_V1.4.0/Drivers/CMSIS/Device/ST/STM32F4xx/Include
  20              	@ -I ../STM32Cube_FW_F4_V1.4.0/Drivers/STM32F4xx_HAL_Driver/Inc
  21              	@ -I ../STM32Cube_FW_F4_V1.4.0/Drivers/CMSIS/Include -imultilib armv7e-m
  22              	@ -iprefix c:\program files\gcc-arm-none-eabi-4_9-2014\bin\../lib/gcc/arm-none-eabi/4.9.3/
  23              	@ -isysroot c:\program files\gcc-arm-none-eabi-4_9-2014\bin\../arm-none-eabi
  24              	@ -MD out/stm32f4xx_hal_msp.d -MF out/stm32f4xx_hal_msp.d -MP
  25              	@ -MQ out/stm32f4xx_hal_msp.o -D__USES_INITFINI__ -D USE_HAL_DRIVER
  26              	@ -D STM32F4XX -D HSE_VALUE=8000000 -D __STARTUP_CLEAR_BSS -D STM32F411RE
  27              	@ -D USE_FULL_ASSERT -D __FPU_USED Src/stm32f4xx_hal_msp.c -mcpu=cortex-m4
  28              	@ -mthumb -auxbase-strip out/stm32f4xx_hal_msp.o -g -ggdb3 -Os -Os -Wall
  29              	@ -Wstrict-prototypes -Wextra -std=gnu90 -ffunction-sections
  30              	@ -fdata-sections -fverbose-asm
  31              	@ options enabled:  -faggressive-loop-optimizations -fauto-inc-dec
  32              	@ -fbranch-count-reg -fcaller-saves -fcombine-stack-adjustments -fcommon
  33              	@ -fcompare-elim -fcprop-registers -fcrossjumping -fcse-follow-jumps
  34              	@ -fdata-sections -fdefer-pop -fdelete-null-pointer-checks -fdevirtualize
  35              	@ -fdevirtualize-speculatively -fdwarf2-cfi-asm -fearly-inlining
  36              	@ -feliminate-unused-debug-types -fexpensive-optimizations
  37              	@ -fforward-propagate -ffunction-cse -ffunction-sections -fgcse -fgcse-lm
  38              	@ -fgnu-runtime -fgnu-unique -fguess-branch-probability
  39              	@ -fhoist-adjacent-loads -fident -fif-conversion -fif-conversion2
  40              	@ -findirect-inlining -finline -finline-atomics -finline-functions
  41              	@ -finline-functions-called-once -finline-small-functions -fipa-cp
  42              	@ -fipa-profile -fipa-pure-const -fipa-reference -fipa-sra
  43              	@ -fira-hoist-pressure -fira-share-save-slots -fira-share-spill-slots
  44              	@ -fisolate-erroneous-paths-dereference -fivopts -fkeep-static-consts
  45              	@ -fleading-underscore -fmath-errno -fmerge-constants -fmerge-debug-strings
  46              	@ -fomit-frame-pointer -foptimize-sibling-calls -fpartial-inlining
  47              	@ -fpeephole -fpeephole2 -fprefetch-loop-arrays -freg-struct-return
  48              	@ -freorder-blocks -freorder-functions -frerun-cse-after-loop
  49              	@ -fsched-critical-path-heuristic -fsched-dep-count-heuristic
  50              	@ -fsched-group-heuristic -fsched-interblock -fsched-last-insn-heuristic
  51              	@ -fsched-pressure -fsched-rank-heuristic -fsched-spec
  52              	@ -fsched-spec-insn-heuristic -fsched-stalled-insns-dep -fschedule-insns2
  53              	@ -fsection-anchors -fshow-column -fsigned-zeros -fsplit-ivs-in-unroller
  54              	@ -fsplit-wide-types -fstrict-aliasing -fstrict-overflow
  55              	@ -fstrict-volatile-bitfields -fsync-libcalls -fthread-jumps
  56              	@ -ftoplevel-reorder -ftrapping-math -ftree-bit-ccp -ftree-builtin-call-dce
  57              	@ -ftree-ccp -ftree-ch -ftree-coalesce-vars -ftree-copy-prop
ARM GAS  C:\cygwin\tmp\cc71jJia.s 			page 2


  58              	@ -ftree-copyrename -ftree-cselim -ftree-dce -ftree-dominator-opts
  59              	@ -ftree-dse -ftree-forwprop -ftree-fre -ftree-loop-if-convert
  60              	@ -ftree-loop-im -ftree-loop-ivcanon -ftree-loop-optimize
  61              	@ -ftree-parallelize-loops= -ftree-phiprop -ftree-pre -ftree-pta
  62              	@ -ftree-reassoc -ftree-scev-cprop -ftree-sink -ftree-slsr -ftree-sra
  63              	@ -ftree-switch-conversion -ftree-tail-merge -ftree-ter -ftree-vrp
  64              	@ -funit-at-a-time -fvar-tracking -fvar-tracking-assignments -fverbose-asm
  65              	@ -fzero-initialized-in-bss -mlittle-endian -mlra
  66              	@ -mpic-data-is-text-relative -msched-prolog -mthumb -munaligned-access
  67              	@ -mvectorize-with-neon-quad
  68              	
  69              		.text
  70              	.Ltext0:
  71              		.cfi_sections	.debug_frame
  72              		.section	.text.HAL_TIM_Base_MspInit,"ax",%progbits
  73              		.align	1
  74              		.global	HAL_TIM_Base_MspInit
  75              		.thumb
  76              		.thumb_func
  77              		.type	HAL_TIM_Base_MspInit, %function
  78              	HAL_TIM_Base_MspInit:
  79              	.LFB123:
  80              		.file 1 "Src/stm32f4xx_hal_msp.c"
   1:Src/stm32f4xx_hal_msp.c **** /**
   2:Src/stm32f4xx_hal_msp.c ****   ******************************************************************************
   3:Src/stm32f4xx_hal_msp.c ****   * @file    Templates/Src/stm32f4xx_hal_msp.c
   4:Src/stm32f4xx_hal_msp.c ****   * @author  MCD Application Team
   5:Src/stm32f4xx_hal_msp.c ****   * @version V1.2.0
   6:Src/stm32f4xx_hal_msp.c ****   * @date    26-December-2014
   7:Src/stm32f4xx_hal_msp.c ****   * @brief   HAL MSP module.
   8:Src/stm32f4xx_hal_msp.c ****   *         
   9:Src/stm32f4xx_hal_msp.c ****   @verbatim
  10:Src/stm32f4xx_hal_msp.c ****  ===============================================================================
  11:Src/stm32f4xx_hal_msp.c ****                      ##### How to use this driver #####
  12:Src/stm32f4xx_hal_msp.c ****  ===============================================================================
  13:Src/stm32f4xx_hal_msp.c ****     [..]
  14:Src/stm32f4xx_hal_msp.c ****     This file is generated automatically by MicroXplorer and eventually modified 
  15:Src/stm32f4xx_hal_msp.c ****     by the user
  16:Src/stm32f4xx_hal_msp.c **** 
  17:Src/stm32f4xx_hal_msp.c ****   @endverbatim
  18:Src/stm32f4xx_hal_msp.c ****   ******************************************************************************
  19:Src/stm32f4xx_hal_msp.c ****   * @attention
  20:Src/stm32f4xx_hal_msp.c ****   *
  21:Src/stm32f4xx_hal_msp.c ****   * <h2><center>&copy; COPYRIGHT(c) 2014 STMicroelectronics</center></h2>
  22:Src/stm32f4xx_hal_msp.c ****   *
  23:Src/stm32f4xx_hal_msp.c ****   * Redistribution and use in source and binary forms, with or without modification,
  24:Src/stm32f4xx_hal_msp.c ****   * are permitted provided that the following conditions are met:
  25:Src/stm32f4xx_hal_msp.c ****   *   1. Redistributions of source code must retain the above copyright notice,
  26:Src/stm32f4xx_hal_msp.c ****   *      this list of conditions and the following disclaimer.
  27:Src/stm32f4xx_hal_msp.c ****   *   2. Redistributions in binary form must reproduce the above copyright notice,
  28:Src/stm32f4xx_hal_msp.c ****   *      this list of conditions and the following disclaimer in the documentation
  29:Src/stm32f4xx_hal_msp.c ****   *      and/or other materials provided with the distribution.
  30:Src/stm32f4xx_hal_msp.c ****   *   3. Neither the name of STMicroelectronics nor the names of its contributors
  31:Src/stm32f4xx_hal_msp.c ****   *      may be used to endorse or promote products derived from this software
  32:Src/stm32f4xx_hal_msp.c ****   *      without specific prior written permission.
  33:Src/stm32f4xx_hal_msp.c ****   *
  34:Src/stm32f4xx_hal_msp.c ****   * THIS SOFTWARE IS PROVIDED BY THE COPYRIGHT HOLDERS AND CONTRIBUTORS "AS IS"
ARM GAS  C:\cygwin\tmp\cc71jJia.s 			page 3


  35:Src/stm32f4xx_hal_msp.c ****   * AND ANY EXPRESS OR IMPLIED WARRANTIES, INCLUDING, BUT NOT LIMITED TO, THE
  36:Src/stm32f4xx_hal_msp.c ****   * IMPLIED WARRANTIES OF MERCHANTABILITY AND FITNESS FOR A PARTICULAR PURPOSE ARE
  37:Src/stm32f4xx_hal_msp.c ****   * DISCLAIMED. IN NO EVENT SHALL THE COPYRIGHT HOLDER OR CONTRIBUTORS BE LIABLE
  38:Src/stm32f4xx_hal_msp.c ****   * FOR ANY DIRECT, INDIRECT, INCIDENTAL, SPECIAL, EXEMPLARY, OR CONSEQUENTIAL
  39:Src/stm32f4xx_hal_msp.c ****   * DAMAGES (INCLUDING, BUT NOT LIMITED TO, PROCUREMENT OF SUBSTITUTE GOODS OR
  40:Src/stm32f4xx_hal_msp.c ****   * SERVICES; LOSS OF USE, DATA, OR PROFITS; OR BUSINESS INTERRUPTION) HOWEVER
  41:Src/stm32f4xx_hal_msp.c ****   * CAUSED AND ON ANY THEORY OF LIABILITY, WHETHER IN CONTRACT, STRICT LIABILITY,
  42:Src/stm32f4xx_hal_msp.c ****   * OR TORT (INCLUDING NEGLIGENCE OR OTHERWISE) ARISING IN ANY WAY OUT OF THE USE
  43:Src/stm32f4xx_hal_msp.c ****   * OF THIS SOFTWARE, EVEN IF ADVISED OF THE POSSIBILITY OF SUCH DAMAGE.
  44:Src/stm32f4xx_hal_msp.c ****   *
  45:Src/stm32f4xx_hal_msp.c ****   ******************************************************************************
  46:Src/stm32f4xx_hal_msp.c ****   */ 
  47:Src/stm32f4xx_hal_msp.c **** 
  48:Src/stm32f4xx_hal_msp.c **** /* Includes ------------------------------------------------------------------*/
  49:Src/stm32f4xx_hal_msp.c **** #include "main.h"
  50:Src/stm32f4xx_hal_msp.c **** 
  51:Src/stm32f4xx_hal_msp.c **** /** @addtogroup STM32F4xx_HAL_Driver
  52:Src/stm32f4xx_hal_msp.c ****   * @{
  53:Src/stm32f4xx_hal_msp.c ****   */
  54:Src/stm32f4xx_hal_msp.c **** 
  55:Src/stm32f4xx_hal_msp.c **** /** @defgroup HAL_MSP
  56:Src/stm32f4xx_hal_msp.c ****   * @brief HAL MSP module.
  57:Src/stm32f4xx_hal_msp.c ****   * @{
  58:Src/stm32f4xx_hal_msp.c ****   */
  59:Src/stm32f4xx_hal_msp.c **** 
  60:Src/stm32f4xx_hal_msp.c **** /* Private typedef -----------------------------------------------------------*/
  61:Src/stm32f4xx_hal_msp.c **** /* Private define ------------------------------------------------------------*/
  62:Src/stm32f4xx_hal_msp.c **** /* Private macro -------------------------------------------------------------*/
  63:Src/stm32f4xx_hal_msp.c **** /* Private variables ---------------------------------------------------------*/
  64:Src/stm32f4xx_hal_msp.c **** /* Private function prototypes -----------------------------------------------*/
  65:Src/stm32f4xx_hal_msp.c **** /* Private functions ---------------------------------------------------------*/
  66:Src/stm32f4xx_hal_msp.c **** 
  67:Src/stm32f4xx_hal_msp.c **** /** @defgroup HAL_MSP_Private_Functions
  68:Src/stm32f4xx_hal_msp.c ****   * @{
  69:Src/stm32f4xx_hal_msp.c ****   */
  70:Src/stm32f4xx_hal_msp.c **** 
  71:Src/stm32f4xx_hal_msp.c **** /**
  72:Src/stm32f4xx_hal_msp.c ****   * @brief TIM MSP Initialization 
  73:Src/stm32f4xx_hal_msp.c ****   *        This function configures the hardware resources used in this example: 
  74:Src/stm32f4xx_hal_msp.c ****   *           - Peripheral's clock enable
  75:Src/stm32f4xx_hal_msp.c ****   *           - Peripheral's GPIO Configuration  
  76:Src/stm32f4xx_hal_msp.c ****   * @param htim: TIM handle pointer
  77:Src/stm32f4xx_hal_msp.c ****   * @retval None
  78:Src/stm32f4xx_hal_msp.c ****   */
  79:Src/stm32f4xx_hal_msp.c **** void HAL_TIM_Base_MspInit(TIM_HandleTypeDef *htim)
  80:Src/stm32f4xx_hal_msp.c **** {
  81              		.loc 1 80 0
  82              		.cfi_startproc
  83              		@ args = 0, pretend = 0, frame = 0
  84              		@ frame_needed = 0, uses_anonymous_args = 0
  85              	.LVL0:
  81:Src/stm32f4xx_hal_msp.c ****   /*##-1- Enable peripherals and GPIO Clocks #################################*/
  82:Src/stm32f4xx_hal_msp.c ****   /* TIMx Peripheral clock enable */
  83:Src/stm32f4xx_hal_msp.c ****   __HAL_RCC_TIM3_CLK_ENABLE();
  86              		.loc 1 83 0
  87 0000 074A     		ldr	r2, .L2	@ tmp113,
  80:Src/stm32f4xx_hal_msp.c ****   /*##-1- Enable peripherals and GPIO Clocks #################################*/
ARM GAS  C:\cygwin\tmp\cc71jJia.s 			page 4


  88              		.loc 1 80 0
  89 0002 08B5     		push	{r3, lr}	@
  90              		.cfi_def_cfa_offset 8
  91              		.cfi_offset 3, -8
  92              		.cfi_offset 14, -4
  93              		.loc 1 83 0
  94 0004 136C     		ldr	r3, [r2, #64]	@ D.7403, MEM[(struct RCC_TypeDef *)1073887232B].APB1ENR
  95 0006 43F00203 		orr	r3, r3, #2	@ D.7403, D.7403,
  96 000a 1364     		str	r3, [r2, #64]	@ D.7403, MEM[(struct RCC_TypeDef *)1073887232B].APB1ENR
  84:Src/stm32f4xx_hal_msp.c ****   
  85:Src/stm32f4xx_hal_msp.c ****   /*##-2- Configure the NVIC for TIMx ########################################*/
  86:Src/stm32f4xx_hal_msp.c ****   /* Set Interrupt Group Priority */ 
  87:Src/stm32f4xx_hal_msp.c ****   HAL_NVIC_SetPriority(TIMx_IRQn, 4, 0);
  97              		.loc 1 87 0
  98 000c 1D20     		movs	r0, #29	@,
  99              	.LVL1:
 100 000e 0421     		movs	r1, #4	@,
 101 0010 0022     		movs	r2, #0	@,
 102 0012 FFF7FEFF 		bl	HAL_NVIC_SetPriority	@
 103              	.LVL2:
  88:Src/stm32f4xx_hal_msp.c ****   
  89:Src/stm32f4xx_hal_msp.c ****   /* Enable the TIMx global Interrupt */
  90:Src/stm32f4xx_hal_msp.c ****   HAL_NVIC_EnableIRQ(TIMx_IRQn);
 104              		.loc 1 90 0
 105 0016 1D20     		movs	r0, #29	@,
  91:Src/stm32f4xx_hal_msp.c **** }
 106              		.loc 1 91 0
 107 0018 BDE80840 		pop	{r3, lr}	@
 108              		.cfi_restore 14
 109              		.cfi_restore 3
 110              		.cfi_def_cfa_offset 0
  90:Src/stm32f4xx_hal_msp.c **** }
 111              		.loc 1 90 0
 112 001c FFF7FEBF 		b	HAL_NVIC_EnableIRQ	@
 113              	.LVL3:
 114              	.L3:
 115              		.align	2
 116              	.L2:
 117 0020 00380240 		.word	1073887232
 118              		.cfi_endproc
 119              	.LFE123:
 120              		.size	HAL_TIM_Base_MspInit, .-HAL_TIM_Base_MspInit
 121              		.section	.text.HAL_UART_MspInit,"ax",%progbits
 122              		.align	1
 123              		.global	HAL_UART_MspInit
 124              		.thumb
 125              		.thumb_func
 126              		.type	HAL_UART_MspInit, %function
 127              	HAL_UART_MspInit:
 128              	.LFB124:
  92:Src/stm32f4xx_hal_msp.c ****   
  93:Src/stm32f4xx_hal_msp.c **** /**
  94:Src/stm32f4xx_hal_msp.c ****   * @brief UART MSP Initialization 
  95:Src/stm32f4xx_hal_msp.c ****   *        This function configures the hardware resources used in this example: 
  96:Src/stm32f4xx_hal_msp.c ****   *           - Peripheral's clock enable
  97:Src/stm32f4xx_hal_msp.c ****   *           - Peripheral's GPIO Configuration  
  98:Src/stm32f4xx_hal_msp.c ****   *           - DMA configuration for transmission request by peripheral 
ARM GAS  C:\cygwin\tmp\cc71jJia.s 			page 5


  99:Src/stm32f4xx_hal_msp.c ****   *           - NVIC configuration for DMA interrupt request enable
 100:Src/stm32f4xx_hal_msp.c ****   * @param huart: UART handle pointer
 101:Src/stm32f4xx_hal_msp.c ****   * @retval None
 102:Src/stm32f4xx_hal_msp.c ****   */
 103:Src/stm32f4xx_hal_msp.c **** void HAL_UART_MspInit(UART_HandleTypeDef *huart)
 104:Src/stm32f4xx_hal_msp.c **** {
 129              		.loc 1 104 0
 130              		.cfi_startproc
 131              		@ args = 0, pretend = 0, frame = 24
 132              		@ frame_needed = 0, uses_anonymous_args = 0
 133              	.LVL4:
 105:Src/stm32f4xx_hal_msp.c ****   //static DMA_HandleTypeDef hdma_tx;
 106:Src/stm32f4xx_hal_msp.c ****   //static DMA_HandleTypeDef hdma_rx;
 107:Src/stm32f4xx_hal_msp.c ****   
 108:Src/stm32f4xx_hal_msp.c ****   GPIO_InitTypeDef  GPIO_InitStruct;
 109:Src/stm32f4xx_hal_msp.c ****   
 110:Src/stm32f4xx_hal_msp.c ****   /*##-1- Enable peripherals and GPIO Clocks #################################*/
 111:Src/stm32f4xx_hal_msp.c ****   /* Enable GPIO TX/RX clock */
 112:Src/stm32f4xx_hal_msp.c ****   USARTx_TX_GPIO_CLK_ENABLE();
 134              		.loc 1 112 0
 135 0000 174B     		ldr	r3, .L5	@ tmp117,
 136 0002 1A6B     		ldr	r2, [r3, #48]	@ D.7406, MEM[(struct RCC_TypeDef *)1073887232B].AHB1ENR
 137 0004 42F00102 		orr	r2, r2, #1	@ D.7406, D.7406,
 104:Src/stm32f4xx_hal_msp.c ****   //static DMA_HandleTypeDef hdma_tx;
 138              		.loc 1 104 0
 139 0008 70B5     		push	{r4, r5, r6, lr}	@
 140              		.cfi_def_cfa_offset 16
 141              		.cfi_offset 4, -16
 142              		.cfi_offset 5, -12
 143              		.cfi_offset 6, -8
 144              		.cfi_offset 14, -4
 145              		.loc 1 112 0
 146 000a 1A63     		str	r2, [r3, #48]	@ D.7406, MEM[(struct RCC_TypeDef *)1073887232B].AHB1ENR
 113:Src/stm32f4xx_hal_msp.c ****   USARTx_RX_GPIO_CLK_ENABLE();
 147              		.loc 1 113 0
 148 000c 1A6B     		ldr	r2, [r3, #48]	@ D.7406, MEM[(struct RCC_TypeDef *)1073887232B].AHB1ENR
 114:Src/stm32f4xx_hal_msp.c ****   /* Enable USART2 clock */
 115:Src/stm32f4xx_hal_msp.c ****   USARTx_CLK_ENABLE(); 
 116:Src/stm32f4xx_hal_msp.c ****   /* Enable DMA1 clock */
 117:Src/stm32f4xx_hal_msp.c ****   //DMAx_CLK_ENABLE();   
 118:Src/stm32f4xx_hal_msp.c ****   
 119:Src/stm32f4xx_hal_msp.c ****   /*##-2- Configure peripheral GPIO ##########################################*/  
 120:Src/stm32f4xx_hal_msp.c ****   /* UART TX GPIO pin configuration  */
 121:Src/stm32f4xx_hal_msp.c ****   GPIO_InitStruct.Pin       = USARTx_TX_PIN;
 122:Src/stm32f4xx_hal_msp.c ****   GPIO_InitStruct.Mode      = GPIO_MODE_AF_PP;
 123:Src/stm32f4xx_hal_msp.c ****   GPIO_InitStruct.Pull      = GPIO_PULLUP;
 124:Src/stm32f4xx_hal_msp.c ****   GPIO_InitStruct.Speed     = GPIO_SPEED_FAST;
 125:Src/stm32f4xx_hal_msp.c ****   GPIO_InitStruct.Alternate = USARTx_TX_AF;
 126:Src/stm32f4xx_hal_msp.c ****   
 127:Src/stm32f4xx_hal_msp.c ****   HAL_GPIO_Init(USARTx_TX_GPIO_PORT, &GPIO_InitStruct);
 149              		.loc 1 127 0
 150 000e 154D     		ldr	r5, .L5+4	@ tmp128,
 113:Src/stm32f4xx_hal_msp.c ****   USARTx_RX_GPIO_CLK_ENABLE();
 151              		.loc 1 113 0
 152 0010 42F00102 		orr	r2, r2, #1	@ D.7406, D.7406,
 153 0014 1A63     		str	r2, [r3, #48]	@ D.7406, MEM[(struct RCC_TypeDef *)1073887232B].AHB1ENR
 115:Src/stm32f4xx_hal_msp.c ****   /* Enable DMA1 clock */
ARM GAS  C:\cygwin\tmp\cc71jJia.s 			page 6


 154              		.loc 1 115 0
 155 0016 5A6C     		ldr	r2, [r3, #68]	@ D.7406, MEM[(struct RCC_TypeDef *)1073887232B].APB2ENR
 104:Src/stm32f4xx_hal_msp.c ****   //static DMA_HandleTypeDef hdma_tx;
 156              		.loc 1 104 0
 157 0018 86B0     		sub	sp, sp, #24	@,,
 158              		.cfi_def_cfa_offset 40
 115:Src/stm32f4xx_hal_msp.c ****   /* Enable DMA1 clock */
 159              		.loc 1 115 0
 160 001a 42F01002 		orr	r2, r2, #16	@ D.7406, D.7406,
 161 001e 5A64     		str	r2, [r3, #68]	@ D.7406, MEM[(struct RCC_TypeDef *)1073887232B].APB2ENR
 121:Src/stm32f4xx_hal_msp.c ****   GPIO_InitStruct.Mode      = GPIO_MODE_AF_PP;
 162              		.loc 1 121 0
 163 0020 4FF40073 		mov	r3, #512	@ tmp123,
 164 0024 0193     		str	r3, [sp, #4]	@ tmp123, GPIO_InitStruct.Pin
 123:Src/stm32f4xx_hal_msp.c ****   GPIO_InitStruct.Speed     = GPIO_SPEED_FAST;
 165              		.loc 1 123 0
 166 0026 0124     		movs	r4, #1	@ tmp125,
 122:Src/stm32f4xx_hal_msp.c ****   GPIO_InitStruct.Pull      = GPIO_PULLUP;
 167              		.loc 1 122 0
 168 0028 0223     		movs	r3, #2	@ tmp124,
 125:Src/stm32f4xx_hal_msp.c ****   
 169              		.loc 1 125 0
 170 002a 0726     		movs	r6, #7	@ tmp127,
 171              		.loc 1 127 0
 172 002c 2846     		mov	r0, r5	@, tmp128
 173              	.LVL5:
 174 002e 01A9     		add	r1, sp, #4	@ tmp134,,
 122:Src/stm32f4xx_hal_msp.c ****   GPIO_InitStruct.Pull      = GPIO_PULLUP;
 175              		.loc 1 122 0
 176 0030 0293     		str	r3, [sp, #8]	@ tmp124, GPIO_InitStruct.Mode
 124:Src/stm32f4xx_hal_msp.c ****   GPIO_InitStruct.Alternate = USARTx_TX_AF;
 177              		.loc 1 124 0
 178 0032 0493     		str	r3, [sp, #16]	@ tmp124, GPIO_InitStruct.Speed
 123:Src/stm32f4xx_hal_msp.c ****   GPIO_InitStruct.Speed     = GPIO_SPEED_FAST;
 179              		.loc 1 123 0
 180 0034 0394     		str	r4, [sp, #12]	@ tmp125, GPIO_InitStruct.Pull
 125:Src/stm32f4xx_hal_msp.c ****   
 181              		.loc 1 125 0
 182 0036 0596     		str	r6, [sp, #20]	@ tmp127, GPIO_InitStruct.Alternate
 183              		.loc 1 127 0
 184 0038 FFF7FEFF 		bl	HAL_GPIO_Init	@
 185              	.LVL6:
 128:Src/stm32f4xx_hal_msp.c ****     
 129:Src/stm32f4xx_hal_msp.c ****   /* UART RX GPIO pin configuration  */
 130:Src/stm32f4xx_hal_msp.c ****   GPIO_InitStruct.Pin = USARTx_RX_PIN;
 186              		.loc 1 130 0
 187 003c 4FF48063 		mov	r3, #1024	@ tmp130,
 131:Src/stm32f4xx_hal_msp.c ****   GPIO_InitStruct.Alternate = USARTx_RX_AF;
 132:Src/stm32f4xx_hal_msp.c ****     
 133:Src/stm32f4xx_hal_msp.c ****   HAL_GPIO_Init(USARTx_RX_GPIO_PORT, &GPIO_InitStruct);
 188              		.loc 1 133 0
 189 0040 2846     		mov	r0, r5	@, tmp128
 190 0042 01A9     		add	r1, sp, #4	@ tmp135,,
 130:Src/stm32f4xx_hal_msp.c ****   GPIO_InitStruct.Alternate = USARTx_RX_AF;
 191              		.loc 1 130 0
 192 0044 0193     		str	r3, [sp, #4]	@ tmp130, GPIO_InitStruct.Pin
 131:Src/stm32f4xx_hal_msp.c ****   GPIO_InitStruct.Alternate = USARTx_RX_AF;
ARM GAS  C:\cygwin\tmp\cc71jJia.s 			page 7


 193              		.loc 1 131 0
 194 0046 0596     		str	r6, [sp, #20]	@ tmp127, GPIO_InitStruct.Alternate
 195              		.loc 1 133 0
 196 0048 FFF7FEFF 		bl	HAL_GPIO_Init	@
 197              	.LVL7:
 134:Src/stm32f4xx_hal_msp.c ****     
 135:Src/stm32f4xx_hal_msp.c ****   /*##-3- Configure the DMA streams ##########################################*/
 136:Src/stm32f4xx_hal_msp.c ****   /* Configure the DMA handler for Transmission process */
 137:Src/stm32f4xx_hal_msp.c ****   //hdma_tx.Instance                 = USARTx_TX_DMA_STREAM;
 138:Src/stm32f4xx_hal_msp.c ****   
 139:Src/stm32f4xx_hal_msp.c ****   //hdma_tx.Init.Channel             = USARTx_TX_DMA_CHANNEL;
 140:Src/stm32f4xx_hal_msp.c ****   //hdma_tx.Init.Direction           = DMA_MEMORY_TO_PERIPH;
 141:Src/stm32f4xx_hal_msp.c ****   //hdma_tx.Init.PeriphInc           = DMA_PINC_DISABLE;
 142:Src/stm32f4xx_hal_msp.c ****   //hdma_tx.Init.MemInc              = DMA_MINC_ENABLE;
 143:Src/stm32f4xx_hal_msp.c ****   //hdma_tx.Init.PeriphDataAlignment = DMA_PDATAALIGN_BYTE;
 144:Src/stm32f4xx_hal_msp.c ****   //hdma_tx.Init.MemDataAlignment    = DMA_MDATAALIGN_BYTE;
 145:Src/stm32f4xx_hal_msp.c ****   //hdma_tx.Init.Mode                = DMA_NORMAL;
 146:Src/stm32f4xx_hal_msp.c ****   //hdma_tx.Init.Priority            = DMA_PRIORITY_LOW;
 147:Src/stm32f4xx_hal_msp.c ****   //hdma_tx.Init.FIFOMode            = DMA_FIFOMODE_DISABLE;
 148:Src/stm32f4xx_hal_msp.c ****   //hdma_tx.Init.FIFOThreshold       = DMA_FIFO_THRESHOLD_FULL;
 149:Src/stm32f4xx_hal_msp.c ****   //hdma_tx.Init.MemBurst            = DMA_MBURST_INC4;
 150:Src/stm32f4xx_hal_msp.c ****   //hdma_tx.Init.PeriphBurst         = DMA_PBURST_INC4;
 151:Src/stm32f4xx_hal_msp.c ****   
 152:Src/stm32f4xx_hal_msp.c ****   //HAL_DMA_Init(&hdma_tx);   
 153:Src/stm32f4xx_hal_msp.c ****   
 154:Src/stm32f4xx_hal_msp.c ****   /* Associate the initialized DMA handle to the the UART handle */
 155:Src/stm32f4xx_hal_msp.c ****   //__HAL_LINKDMA(huart, hdmatx, hdma_tx);
 156:Src/stm32f4xx_hal_msp.c ****     
 157:Src/stm32f4xx_hal_msp.c ****   /* Configure the DMA handler for Transmission process */
 158:Src/stm32f4xx_hal_msp.c ****   //hdma_rx.Instance                 = USARTx_RX_DMA_STREAM;
 159:Src/stm32f4xx_hal_msp.c ****   
 160:Src/stm32f4xx_hal_msp.c ****   //hdma_rx.Init.Channel             = USARTx_RX_DMA_CHANNEL;
 161:Src/stm32f4xx_hal_msp.c ****   //hdma_rx.Init.Direction           = DMA_PERIPH_TO_MEMORY;
 162:Src/stm32f4xx_hal_msp.c ****   //hdma_rx.Init.PeriphInc           = DMA_PINC_DISABLE;
 163:Src/stm32f4xx_hal_msp.c ****   //hdma_rx.Init.MemInc              = DMA_MINC_ENABLE;
 164:Src/stm32f4xx_hal_msp.c ****   //hdma_rx.Init.PeriphDataAlignment = DMA_PDATAALIGN_BYTE;
 165:Src/stm32f4xx_hal_msp.c ****   //hdma_rx.Init.MemDataAlignment    = DMA_MDATAALIGN_BYTE;
 166:Src/stm32f4xx_hal_msp.c ****   //hdma_rx.Init.Mode                = DMA_NORMAL;
 167:Src/stm32f4xx_hal_msp.c ****   //hdma_rx.Init.Priority            = DMA_PRIORITY_HIGH;
 168:Src/stm32f4xx_hal_msp.c ****   //hdma_rx.Init.FIFOMode            = DMA_FIFOMODE_DISABLE;         
 169:Src/stm32f4xx_hal_msp.c ****   //hdma_rx.Init.FIFOThreshold       = DMA_FIFO_THRESHOLD_FULL;
 170:Src/stm32f4xx_hal_msp.c ****   //hdma_rx.Init.MemBurst            = DMA_MBURST_INC4;
 171:Src/stm32f4xx_hal_msp.c ****   //hdma_rx.Init.PeriphBurst         = DMA_PBURST_INC4; 
 172:Src/stm32f4xx_hal_msp.c **** 
 173:Src/stm32f4xx_hal_msp.c ****   //HAL_DMA_Init(&hdma_rx);
 174:Src/stm32f4xx_hal_msp.c ****     
 175:Src/stm32f4xx_hal_msp.c ****   /* Associate the initialized DMA handle to the the UART handle */
 176:Src/stm32f4xx_hal_msp.c ****   //__HAL_LINKDMA(huart, hdmarx, hdma_rx);
 177:Src/stm32f4xx_hal_msp.c ****     
 178:Src/stm32f4xx_hal_msp.c ****   /*##-4- Configure the NVIC for DMA #########################################*/
 179:Src/stm32f4xx_hal_msp.c ****   /* NVIC configuration for DMA transfer complete interrupt (USARTx_TX) */
 180:Src/stm32f4xx_hal_msp.c ****   //HAL_NVIC_SetPriority(USARTx_DMA_TX_IRQn, 2, 1);
 181:Src/stm32f4xx_hal_msp.c ****   //HAL_NVIC_EnableIRQ(USARTx_DMA_TX_IRQn);
 182:Src/stm32f4xx_hal_msp.c ****     
 183:Src/stm32f4xx_hal_msp.c ****   /* NVIC configuration for DMA transfer complete interrupt (USARTx_RX) */
 184:Src/stm32f4xx_hal_msp.c ****   //HAL_NVIC_SetPriority(USARTx_DMA_RX_IRQn, 2, 0);   
 185:Src/stm32f4xx_hal_msp.c ****   //HAL_NVIC_EnableIRQ(USARTx_DMA_RX_IRQn);
ARM GAS  C:\cygwin\tmp\cc71jJia.s 			page 8


 186:Src/stm32f4xx_hal_msp.c ****   
 187:Src/stm32f4xx_hal_msp.c ****   /* NVIC configuration for USART TC interrupt */
 188:Src/stm32f4xx_hal_msp.c ****   HAL_NVIC_SetPriority(USARTx_IRQn, 0, 1);
 198              		.loc 1 188 0
 199 004c 0021     		movs	r1, #0	@,
 200 004e 2246     		mov	r2, r4	@, tmp125
 201 0050 2520     		movs	r0, #37	@,
 202 0052 FFF7FEFF 		bl	HAL_NVIC_SetPriority	@
 203              	.LVL8:
 189:Src/stm32f4xx_hal_msp.c ****   HAL_NVIC_EnableIRQ(USARTx_IRQn);
 204              		.loc 1 189 0
 205 0056 2520     		movs	r0, #37	@,
 206 0058 FFF7FEFF 		bl	HAL_NVIC_EnableIRQ	@
 207              	.LVL9:
 190:Src/stm32f4xx_hal_msp.c **** }
 208              		.loc 1 190 0
 209 005c 06B0     		add	sp, sp, #24	@,,
 210              		.cfi_def_cfa_offset 16
 211              		@ sp needed	@
 212 005e 70BD     		pop	{r4, r5, r6, pc}	@
 213              	.L6:
 214              		.align	2
 215              	.L5:
 216 0060 00380240 		.word	1073887232
 217 0064 00000240 		.word	1073872896
 218              		.cfi_endproc
 219              	.LFE124:
 220              		.size	HAL_UART_MspInit, .-HAL_UART_MspInit
 221              		.section	.text.HAL_UART_MspDeInit,"ax",%progbits
 222              		.align	1
 223              		.global	HAL_UART_MspDeInit
 224              		.thumb
 225              		.thumb_func
 226              		.type	HAL_UART_MspDeInit, %function
 227              	HAL_UART_MspDeInit:
 228              	.LFB125:
 191:Src/stm32f4xx_hal_msp.c **** 
 192:Src/stm32f4xx_hal_msp.c **** /**
 193:Src/stm32f4xx_hal_msp.c ****   * @brief UART MSP De-Initialization 
 194:Src/stm32f4xx_hal_msp.c ****   *        This function frees the hardware resources used in this example:
 195:Src/stm32f4xx_hal_msp.c ****   *          - Disable the Peripheral's clock
 196:Src/stm32f4xx_hal_msp.c ****   *          - Revert GPIO, DMA and NVIC configuration to their default state
 197:Src/stm32f4xx_hal_msp.c ****   * @param huart: UART handle pointer
 198:Src/stm32f4xx_hal_msp.c ****   * @retval None
 199:Src/stm32f4xx_hal_msp.c ****   */
 200:Src/stm32f4xx_hal_msp.c **** void HAL_UART_MspDeInit(UART_HandleTypeDef *huart)
 201:Src/stm32f4xx_hal_msp.c **** {
 229              		.loc 1 201 0
 230              		.cfi_startproc
 231              		@ args = 0, pretend = 0, frame = 0
 232              		@ frame_needed = 0, uses_anonymous_args = 0
 233              	.LVL10:
 202:Src/stm32f4xx_hal_msp.c ****   
 203:Src/stm32f4xx_hal_msp.c ****   //static DMA_HandleTypeDef hdma_tx;
 204:Src/stm32f4xx_hal_msp.c ****   //static DMA_HandleTypeDef hdma_rx;
 205:Src/stm32f4xx_hal_msp.c **** 
 206:Src/stm32f4xx_hal_msp.c ****   /*##-1- Reset peripherals ##################################################*/
ARM GAS  C:\cygwin\tmp\cc71jJia.s 			page 9


 207:Src/stm32f4xx_hal_msp.c ****   USARTx_FORCE_RESET();
 234              		.loc 1 207 0
 235 0000 0C4B     		ldr	r3, .L8	@ tmp115,
 236 0002 5A6A     		ldr	r2, [r3, #36]	@ D.7409, MEM[(struct RCC_TypeDef *)1073887232B].APB2RSTR
 237 0004 42F01002 		orr	r2, r2, #16	@ D.7409, D.7409,
 201:Src/stm32f4xx_hal_msp.c ****   
 238              		.loc 1 201 0
 239 0008 10B5     		push	{r4, lr}	@
 240              		.cfi_def_cfa_offset 8
 241              		.cfi_offset 4, -8
 242              		.cfi_offset 14, -4
 243              		.loc 1 207 0
 244 000a 5A62     		str	r2, [r3, #36]	@ D.7409, MEM[(struct RCC_TypeDef *)1073887232B].APB2RSTR
 208:Src/stm32f4xx_hal_msp.c ****   USARTx_RELEASE_RESET();
 245              		.loc 1 208 0
 246 000c 5A6A     		ldr	r2, [r3, #36]	@ D.7409, MEM[(struct RCC_TypeDef *)1073887232B].APB2RSTR
 209:Src/stm32f4xx_hal_msp.c **** 
 210:Src/stm32f4xx_hal_msp.c ****   /*##-2- Disable peripherals and GPIO Clocks #################################*/
 211:Src/stm32f4xx_hal_msp.c ****   /* Configure UART Tx as alternate function  */
 212:Src/stm32f4xx_hal_msp.c ****   HAL_GPIO_DeInit(USARTx_TX_GPIO_PORT, USARTx_TX_PIN);
 247              		.loc 1 212 0
 248 000e 0A4C     		ldr	r4, .L8+4	@ tmp119,
 208:Src/stm32f4xx_hal_msp.c ****   USARTx_RELEASE_RESET();
 249              		.loc 1 208 0
 250 0010 22F01002 		bic	r2, r2, #16	@ D.7409, D.7409,
 251              		.loc 1 212 0
 252 0014 2046     		mov	r0, r4	@, tmp119
 253              	.LVL11:
 208:Src/stm32f4xx_hal_msp.c ****   USARTx_RELEASE_RESET();
 254              		.loc 1 208 0
 255 0016 5A62     		str	r2, [r3, #36]	@ D.7409, MEM[(struct RCC_TypeDef *)1073887232B].APB2RSTR
 256              		.loc 1 212 0
 257 0018 4FF40071 		mov	r1, #512	@,
 258 001c FFF7FEFF 		bl	HAL_GPIO_DeInit	@
 259              	.LVL12:
 213:Src/stm32f4xx_hal_msp.c ****   /* Configure UART Rx as alternate function  */
 214:Src/stm32f4xx_hal_msp.c ****   HAL_GPIO_DeInit(USARTx_RX_GPIO_PORT, USARTx_RX_PIN);
 260              		.loc 1 214 0
 261 0020 2046     		mov	r0, r4	@, tmp119
 262 0022 4FF48061 		mov	r1, #1024	@,
 263 0026 FFF7FEFF 		bl	HAL_GPIO_DeInit	@
 264              	.LVL13:
 215:Src/stm32f4xx_hal_msp.c ****    
 216:Src/stm32f4xx_hal_msp.c ****   /*##-3- Disable the DMA Streams ############################################*/
 217:Src/stm32f4xx_hal_msp.c ****   /* De-Initialize the DMA Stream associate to transmission process */
 218:Src/stm32f4xx_hal_msp.c ****   //HAL_DMA_DeInit(&hdma_tx); 
 219:Src/stm32f4xx_hal_msp.c ****   /* De-Initialize the DMA Stream associate to reception process */
 220:Src/stm32f4xx_hal_msp.c ****   //HAL_DMA_DeInit(&hdma_rx);
 221:Src/stm32f4xx_hal_msp.c ****   
 222:Src/stm32f4xx_hal_msp.c ****   /*##-4- Disable the NVIC for DMA ###########################################*/
 223:Src/stm32f4xx_hal_msp.c ****   //HAL_NVIC_DisableIRQ(USARTx_DMA_TX_IRQn);
 224:Src/stm32f4xx_hal_msp.c ****   //HAL_NVIC_DisableIRQ(USARTx_DMA_RX_IRQn);
 225:Src/stm32f4xx_hal_msp.c ****   
 226:Src/stm32f4xx_hal_msp.c ****   /*##-3- Disable the NVIC for UART ##########################################*/
 227:Src/stm32f4xx_hal_msp.c ****   HAL_NVIC_DisableIRQ(USARTx_IRQn);
 265              		.loc 1 227 0
 266 002a 2520     		movs	r0, #37	@,
ARM GAS  C:\cygwin\tmp\cc71jJia.s 			page 10


 228:Src/stm32f4xx_hal_msp.c **** }
 267              		.loc 1 228 0
 268 002c BDE81040 		pop	{r4, lr}	@
 269              		.cfi_restore 14
 270              		.cfi_restore 4
 271              		.cfi_def_cfa_offset 0
 227:Src/stm32f4xx_hal_msp.c **** }
 272              		.loc 1 227 0
 273 0030 FFF7FEBF 		b	HAL_NVIC_DisableIRQ	@
 274              	.LVL14:
 275              	.L9:
 276              		.align	2
 277              	.L8:
 278 0034 00380240 		.word	1073887232
 279 0038 00000240 		.word	1073872896
 280              		.cfi_endproc
 281              	.LFE125:
 282              		.size	HAL_UART_MspDeInit, .-HAL_UART_MspDeInit
 283              		.section	.text.HAL_I2C_MspInit,"ax",%progbits
 284              		.align	1
 285              		.global	HAL_I2C_MspInit
 286              		.thumb
 287              		.thumb_func
 288              		.type	HAL_I2C_MspInit, %function
 289              	HAL_I2C_MspInit:
 290              	.LFB126:
 229:Src/stm32f4xx_hal_msp.c **** 
 230:Src/stm32f4xx_hal_msp.c **** /**
 231:Src/stm32f4xx_hal_msp.c ****   * @brief I2C MSP Initialization 
 232:Src/stm32f4xx_hal_msp.c ****   *        This function configures the hardware resources used in this example: 
 233:Src/stm32f4xx_hal_msp.c ****   *           - Peripheral's clock enable
 234:Src/stm32f4xx_hal_msp.c ****   *           - Peripheral's GPIO Configuration  
 235:Src/stm32f4xx_hal_msp.c ****   *           - DMA configuration for transmission request by peripheral 
 236:Src/stm32f4xx_hal_msp.c ****   *           - NVIC configuration for DMA interrupt request enable
 237:Src/stm32f4xx_hal_msp.c ****   * @param hi2c: I2C handle pointer
 238:Src/stm32f4xx_hal_msp.c ****   * @retval None
 239:Src/stm32f4xx_hal_msp.c ****   */
 240:Src/stm32f4xx_hal_msp.c **** void HAL_I2C_MspInit(I2C_HandleTypeDef *hi2c){
 291              		.loc 1 240 0
 292              		.cfi_startproc
 293              		@ args = 0, pretend = 0, frame = 24
 294              		@ frame_needed = 0, uses_anonymous_args = 0
 295              	.LVL15:
 296 0000 2DE9F043 		push	{r4, r5, r6, r7, r8, r9, lr}	@
 297              		.cfi_def_cfa_offset 28
 298              		.cfi_offset 4, -28
 299              		.cfi_offset 5, -24
 300              		.cfi_offset 6, -20
 301              		.cfi_offset 7, -16
 302              		.cfi_offset 8, -12
 303              		.cfi_offset 9, -8
 304              		.cfi_offset 14, -4
 241:Src/stm32f4xx_hal_msp.c ****   
 242:Src/stm32f4xx_hal_msp.c ****   GPIO_InitTypeDef  GPIO_InitStruct;
 243:Src/stm32f4xx_hal_msp.c ****   
 244:Src/stm32f4xx_hal_msp.c ****   /*##-1- Enable GPIO Clocks #################################################*/
 245:Src/stm32f4xx_hal_msp.c ****   /* Enable GPIO TX/RX clock */
ARM GAS  C:\cygwin\tmp\cc71jJia.s 			page 11


 246:Src/stm32f4xx_hal_msp.c ****   I2Cx_SCL_GPIO_CLK_ENABLE();
 305              		.loc 1 246 0
 306 0004 264C     		ldr	r4, .L11	@ tmp119,
 247:Src/stm32f4xx_hal_msp.c ****   I2Cx_SDA_GPIO_CLK_ENABLE();
 248:Src/stm32f4xx_hal_msp.c ****   /* PORTC-Reset pin bus enable */
 249:Src/stm32f4xx_hal_msp.c ****   __HAL_RCC_GPIOC_CLK_ENABLE();
 250:Src/stm32f4xx_hal_msp.c **** 
 251:Src/stm32f4xx_hal_msp.c **** 
 252:Src/stm32f4xx_hal_msp.c ****   /*##-2- Configure peripheral GPIO ##########################################*/
 253:Src/stm32f4xx_hal_msp.c ****   /* I2C TX GPIO pin configuration  */
 254:Src/stm32f4xx_hal_msp.c ****   GPIO_InitStruct.Pin       = I2Cx_SCL_PIN;
 255:Src/stm32f4xx_hal_msp.c ****   GPIO_InitStruct.Mode      = GPIO_MODE_AF_OD;
 256:Src/stm32f4xx_hal_msp.c ****   GPIO_InitStruct.Pull      = GPIO_PULLUP;
 257:Src/stm32f4xx_hal_msp.c ****   GPIO_InitStruct.Speed     = GPIO_SPEED_FAST;
 258:Src/stm32f4xx_hal_msp.c ****   GPIO_InitStruct.Alternate = I2Cx_SCL_AF;
 259:Src/stm32f4xx_hal_msp.c ****   HAL_GPIO_Init(I2Cx_SCL_GPIO_PORT, &GPIO_InitStruct);
 307              		.loc 1 259 0
 308 0006 274E     		ldr	r6, .L11+4	@ tmp130,
 246:Src/stm32f4xx_hal_msp.c ****   I2Cx_SDA_GPIO_CLK_ENABLE();
 309              		.loc 1 246 0
 310 0008 236B     		ldr	r3, [r4, #48]	@ D.7412, MEM[(struct RCC_TypeDef *)1073887232B].AHB1ENR
 311 000a 43F00203 		orr	r3, r3, #2	@ D.7412, D.7412,
 312 000e 2363     		str	r3, [r4, #48]	@ D.7412, MEM[(struct RCC_TypeDef *)1073887232B].AHB1ENR
 247:Src/stm32f4xx_hal_msp.c ****   I2Cx_SDA_GPIO_CLK_ENABLE();
 313              		.loc 1 247 0
 314 0010 236B     		ldr	r3, [r4, #48]	@ D.7412, MEM[(struct RCC_TypeDef *)1073887232B].AHB1ENR
 315 0012 43F00203 		orr	r3, r3, #2	@ D.7412, D.7412,
 316 0016 2363     		str	r3, [r4, #48]	@ D.7412, MEM[(struct RCC_TypeDef *)1073887232B].AHB1ENR
 249:Src/stm32f4xx_hal_msp.c **** 
 317              		.loc 1 249 0
 318 0018 236B     		ldr	r3, [r4, #48]	@ D.7412, MEM[(struct RCC_TypeDef *)1073887232B].AHB1ENR
 240:Src/stm32f4xx_hal_msp.c ****   
 319              		.loc 1 240 0
 320 001a 87B0     		sub	sp, sp, #28	@,,
 321              		.cfi_def_cfa_offset 56
 258:Src/stm32f4xx_hal_msp.c ****   HAL_GPIO_Init(I2Cx_SCL_GPIO_PORT, &GPIO_InitStruct);
 322              		.loc 1 258 0
 323 001c 4FF00409 		mov	r9, #4	@ tmp129,
 249:Src/stm32f4xx_hal_msp.c **** 
 324              		.loc 1 249 0
 325 0020 43F00403 		orr	r3, r3, #4	@ D.7412, D.7412,
 326 0024 2363     		str	r3, [r4, #48]	@ D.7412, MEM[(struct RCC_TypeDef *)1073887232B].AHB1ENR
 256:Src/stm32f4xx_hal_msp.c ****   GPIO_InitStruct.Speed     = GPIO_SPEED_FAST;
 327              		.loc 1 256 0
 328 0026 0125     		movs	r5, #1	@ tmp127,
 255:Src/stm32f4xx_hal_msp.c ****   GPIO_InitStruct.Pull      = GPIO_PULLUP;
 329              		.loc 1 255 0
 330 0028 1223     		movs	r3, #18	@ tmp126,
 254:Src/stm32f4xx_hal_msp.c ****   GPIO_InitStruct.Mode      = GPIO_MODE_AF_OD;
 331              		.loc 1 254 0
 332 002a 4FF04008 		mov	r8, #64	@ tmp125,
 257:Src/stm32f4xx_hal_msp.c ****   GPIO_InitStruct.Alternate = I2Cx_SCL_AF;
 333              		.loc 1 257 0
 334 002e 0227     		movs	r7, #2	@ tmp128,
 335              		.loc 1 259 0
 336 0030 3046     		mov	r0, r6	@, tmp130
 337              	.LVL16:
ARM GAS  C:\cygwin\tmp\cc71jJia.s 			page 12


 338 0032 0DEB0901 		add	r1, sp, r9	@ tmp147,,
 255:Src/stm32f4xx_hal_msp.c ****   GPIO_InitStruct.Pull      = GPIO_PULLUP;
 339              		.loc 1 255 0
 340 0036 0293     		str	r3, [sp, #8]	@ tmp126, GPIO_InitStruct.Mode
 254:Src/stm32f4xx_hal_msp.c ****   GPIO_InitStruct.Mode      = GPIO_MODE_AF_OD;
 341              		.loc 1 254 0
 342 0038 CDF80480 		str	r8, [sp, #4]	@ tmp125, GPIO_InitStruct.Pin
 257:Src/stm32f4xx_hal_msp.c ****   GPIO_InitStruct.Alternate = I2Cx_SCL_AF;
 343              		.loc 1 257 0
 344 003c 0497     		str	r7, [sp, #16]	@ tmp128, GPIO_InitStruct.Speed
 256:Src/stm32f4xx_hal_msp.c ****   GPIO_InitStruct.Speed     = GPIO_SPEED_FAST;
 345              		.loc 1 256 0
 346 003e 0395     		str	r5, [sp, #12]	@ tmp127, GPIO_InitStruct.Pull
 258:Src/stm32f4xx_hal_msp.c ****   HAL_GPIO_Init(I2Cx_SCL_GPIO_PORT, &GPIO_InitStruct);
 347              		.loc 1 258 0
 348 0040 CDF81490 		str	r9, [sp, #20]	@ tmp129, GPIO_InitStruct.Alternate
 349              		.loc 1 259 0
 350 0044 FFF7FEFF 		bl	HAL_GPIO_Init	@
 351              	.LVL17:
 260:Src/stm32f4xx_hal_msp.c ****   HAL_GPIO_WritePin(GPIOB, GPIO_PIN_6, GPIO_PIN_SET);
 352              		.loc 1 260 0
 353 0048 2A46     		mov	r2, r5	@, tmp127
 354 004a 3046     		mov	r0, r6	@, tmp130
 355 004c 4146     		mov	r1, r8	@, tmp125
 356 004e FFF7FEFF 		bl	HAL_GPIO_WritePin	@
 357              	.LVL18:
 261:Src/stm32f4xx_hal_msp.c **** 
 262:Src/stm32f4xx_hal_msp.c ****   /* I2C RX GPIO pin configuration  */
 263:Src/stm32f4xx_hal_msp.c ****   GPIO_InitStruct.Pin = I2Cx_SDA_PIN;
 358              		.loc 1 263 0
 359 0052 4FF40078 		mov	r8, #512	@ tmp133,
 264:Src/stm32f4xx_hal_msp.c ****   GPIO_InitStruct.Alternate = I2Cx_SDA_AF;
 265:Src/stm32f4xx_hal_msp.c ****   HAL_GPIO_Init(I2Cx_SDA_GPIO_PORT, &GPIO_InitStruct);
 360              		.loc 1 265 0
 361 0056 3046     		mov	r0, r6	@, tmp130
 362 0058 0DEB0901 		add	r1, sp, r9	@ tmp148,,
 263:Src/stm32f4xx_hal_msp.c ****   GPIO_InitStruct.Alternate = I2Cx_SDA_AF;
 363              		.loc 1 263 0
 364 005c CDF80480 		str	r8, [sp, #4]	@ tmp133, GPIO_InitStruct.Pin
 264:Src/stm32f4xx_hal_msp.c ****   GPIO_InitStruct.Alternate = I2Cx_SDA_AF;
 365              		.loc 1 264 0
 366 0060 CDF81490 		str	r9, [sp, #20]	@ tmp129, GPIO_InitStruct.Alternate
 367              		.loc 1 265 0
 368 0064 FFF7FEFF 		bl	HAL_GPIO_Init	@
 369              	.LVL19:
 266:Src/stm32f4xx_hal_msp.c ****   HAL_GPIO_WritePin(GPIOB, GPIO_PIN_9, GPIO_PIN_SET);
 370              		.loc 1 266 0
 371 0068 2A46     		mov	r2, r5	@, tmp127
 372 006a 3046     		mov	r0, r6	@, tmp130
 373 006c 4146     		mov	r1, r8	@, tmp133
 374 006e FFF7FEFF 		bl	HAL_GPIO_WritePin	@
 375              	.LVL20:
 267:Src/stm32f4xx_hal_msp.c ****   
 268:Src/stm32f4xx_hal_msp.c ****   /* Init Reset Pin Touch */
 269:Src/stm32f4xx_hal_msp.c ****   GPIO_InitStruct.Pin = GPIO_PIN_3;
 270:Src/stm32f4xx_hal_msp.c ****   GPIO_InitStruct.Mode = GPIO_MODE_OUTPUT_PP;
 271:Src/stm32f4xx_hal_msp.c ****   GPIO_InitStruct.Speed = GPIO_SPEED_FAST;
ARM GAS  C:\cygwin\tmp\cc71jJia.s 			page 13


 376              		.loc 1 271 0
 377 0072 0497     		str	r7, [sp, #16]	@ tmp128, GPIO_InitStruct.Speed
 272:Src/stm32f4xx_hal_msp.c ****   GPIO_InitStruct.Pull = GPIO_PULLUP;
 273:Src/stm32f4xx_hal_msp.c ****   HAL_GPIO_Init(GPIOC, &GPIO_InitStruct);
 378              		.loc 1 273 0
 379 0074 0C4F     		ldr	r7, .L11+8	@ tmp142,
 270:Src/stm32f4xx_hal_msp.c ****   GPIO_InitStruct.Speed = GPIO_SPEED_FAST;
 380              		.loc 1 270 0
 381 0076 0295     		str	r5, [sp, #8]	@ tmp127, GPIO_InitStruct.Mode
 269:Src/stm32f4xx_hal_msp.c ****   GPIO_InitStruct.Mode = GPIO_MODE_OUTPUT_PP;
 382              		.loc 1 269 0
 383 0078 0826     		movs	r6, #8	@ tmp138,
 384              		.loc 1 273 0
 385 007a 3846     		mov	r0, r7	@, tmp142
 386 007c 0DEB0901 		add	r1, sp, r9	@ tmp149,,
 269:Src/stm32f4xx_hal_msp.c ****   GPIO_InitStruct.Mode = GPIO_MODE_OUTPUT_PP;
 387              		.loc 1 269 0
 388 0080 0196     		str	r6, [sp, #4]	@ tmp138, GPIO_InitStruct.Pin
 272:Src/stm32f4xx_hal_msp.c ****   GPIO_InitStruct.Pull = GPIO_PULLUP;
 389              		.loc 1 272 0
 390 0082 0395     		str	r5, [sp, #12]	@ tmp127, GPIO_InitStruct.Pull
 391              		.loc 1 273 0
 392 0084 FFF7FEFF 		bl	HAL_GPIO_Init	@
 393              	.LVL21:
 274:Src/stm32f4xx_hal_msp.c ****   HAL_GPIO_WritePin(GPIOC, GPIO_PIN_3, GPIO_PIN_SET);
 394              		.loc 1 274 0
 395 0088 3846     		mov	r0, r7	@, tmp142
 396 008a 3146     		mov	r1, r6	@, tmp138
 397 008c 2A46     		mov	r2, r5	@, tmp127
 398 008e FFF7FEFF 		bl	HAL_GPIO_WritePin	@
 399              	.LVL22:
 275:Src/stm32f4xx_hal_msp.c ****  
 276:Src/stm32f4xx_hal_msp.c ****   /*##-3- Enable peripheral Clock ############################################*/
 277:Src/stm32f4xx_hal_msp.c ****   /* Enable I2C1 clock */
 278:Src/stm32f4xx_hal_msp.c ****   I2Cx_CLK_ENABLE();
 400              		.loc 1 278 0
 401 0092 236C     		ldr	r3, [r4, #64]	@ D.7412, MEM[(struct RCC_TypeDef *)1073887232B].APB1ENR
 402 0094 43F40013 		orr	r3, r3, #2097152	@ D.7412, D.7412,
 403 0098 2364     		str	r3, [r4, #64]	@ D.7412, MEM[(struct RCC_TypeDef *)1073887232B].APB1ENR
 279:Src/stm32f4xx_hal_msp.c ****   
 280:Src/stm32f4xx_hal_msp.c **** }
 404              		.loc 1 280 0
 405 009a 07B0     		add	sp, sp, #28	@,,
 406              		.cfi_def_cfa_offset 28
 407              		@ sp needed	@
 408 009c BDE8F083 		pop	{r4, r5, r6, r7, r8, r9, pc}	@
 409              	.L12:
 410              		.align	2
 411              	.L11:
 412 00a0 00380240 		.word	1073887232
 413 00a4 00040240 		.word	1073873920
 414 00a8 00080240 		.word	1073874944
 415              		.cfi_endproc
 416              	.LFE126:
 417              		.size	HAL_I2C_MspInit, .-HAL_I2C_MspInit
 418              		.section	.text.HAL_I2C_MspDeInit,"ax",%progbits
 419              		.align	1
ARM GAS  C:\cygwin\tmp\cc71jJia.s 			page 14


 420              		.global	HAL_I2C_MspDeInit
 421              		.thumb
 422              		.thumb_func
 423              		.type	HAL_I2C_MspDeInit, %function
 424              	HAL_I2C_MspDeInit:
 425              	.LFB127:
 281:Src/stm32f4xx_hal_msp.c **** 
 282:Src/stm32f4xx_hal_msp.c **** /**
 283:Src/stm32f4xx_hal_msp.c ****   * @brief I2C MSP De-Initialization 
 284:Src/stm32f4xx_hal_msp.c ****   *        This function frees the hardware resources used in this example:
 285:Src/stm32f4xx_hal_msp.c ****   *          - Disable the Peripheral's clock
 286:Src/stm32f4xx_hal_msp.c ****   *          - Revert GPIO, DMA and NVIC configuration to their default state
 287:Src/stm32f4xx_hal_msp.c ****   * @param hi2c: I2C handle pointer
 288:Src/stm32f4xx_hal_msp.c ****   * @retval None
 289:Src/stm32f4xx_hal_msp.c ****   */
 290:Src/stm32f4xx_hal_msp.c **** void HAL_I2C_MspDeInit(I2C_HandleTypeDef *hi2c){
 426              		.loc 1 290 0
 427              		.cfi_startproc
 428              		@ args = 0, pretend = 0, frame = 0
 429              		@ frame_needed = 0, uses_anonymous_args = 0
 430              	.LVL23:
 291:Src/stm32f4xx_hal_msp.c ****   
 292:Src/stm32f4xx_hal_msp.c ****   /*##-1- Reset peripherals ##################################################*/
 293:Src/stm32f4xx_hal_msp.c ****   I2Cx_FORCE_RESET();
 431              		.loc 1 293 0
 432 0000 0A4B     		ldr	r3, .L14	@ tmp115,
 433 0002 1A6A     		ldr	r2, [r3, #32]	@ D.7415, MEM[(struct RCC_TypeDef *)1073887232B].APB1RSTR
 434 0004 42F40012 		orr	r2, r2, #2097152	@ D.7415, D.7415,
 290:Src/stm32f4xx_hal_msp.c ****   
 435              		.loc 1 290 0
 436 0008 10B5     		push	{r4, lr}	@
 437              		.cfi_def_cfa_offset 8
 438              		.cfi_offset 4, -8
 439              		.cfi_offset 14, -4
 440              		.loc 1 293 0
 441 000a 1A62     		str	r2, [r3, #32]	@ D.7415, MEM[(struct RCC_TypeDef *)1073887232B].APB1RSTR
 294:Src/stm32f4xx_hal_msp.c ****   I2Cx_RELEASE_RESET();
 442              		.loc 1 294 0
 443 000c 1A6A     		ldr	r2, [r3, #32]	@ D.7415, MEM[(struct RCC_TypeDef *)1073887232B].APB1RSTR
 295:Src/stm32f4xx_hal_msp.c **** 
 296:Src/stm32f4xx_hal_msp.c ****   /*##-2- Disable peripherals and GPIO Clocks ################################*/
 297:Src/stm32f4xx_hal_msp.c ****   /* Configure I2C Tx as alternate function  */
 298:Src/stm32f4xx_hal_msp.c ****   HAL_GPIO_DeInit(I2Cx_SCL_GPIO_PORT, I2Cx_SCL_PIN);
 444              		.loc 1 298 0
 445 000e 084C     		ldr	r4, .L14+4	@ tmp119,
 294:Src/stm32f4xx_hal_msp.c ****   I2Cx_RELEASE_RESET();
 446              		.loc 1 294 0
 447 0010 22F40012 		bic	r2, r2, #2097152	@ D.7415, D.7415,
 448              		.loc 1 298 0
 449 0014 2046     		mov	r0, r4	@, tmp119
 450              	.LVL24:
 451 0016 4021     		movs	r1, #64	@,
 294:Src/stm32f4xx_hal_msp.c ****   I2Cx_RELEASE_RESET();
 452              		.loc 1 294 0
 453 0018 1A62     		str	r2, [r3, #32]	@ D.7415, MEM[(struct RCC_TypeDef *)1073887232B].APB1RSTR
 454              		.loc 1 298 0
 455 001a FFF7FEFF 		bl	HAL_GPIO_DeInit	@
ARM GAS  C:\cygwin\tmp\cc71jJia.s 			page 15


 456              	.LVL25:
 299:Src/stm32f4xx_hal_msp.c ****   /* Configure I2C Rx as alternate function  */
 300:Src/stm32f4xx_hal_msp.c ****   HAL_GPIO_DeInit(I2Cx_SDA_GPIO_PORT, I2Cx_SDA_PIN);
 457              		.loc 1 300 0
 458 001e 2046     		mov	r0, r4	@, tmp119
 459 0020 4FF40071 		mov	r1, #512	@,
 301:Src/stm32f4xx_hal_msp.c ****   
 302:Src/stm32f4xx_hal_msp.c **** }
 460              		.loc 1 302 0
 461 0024 BDE81040 		pop	{r4, lr}	@
 462              		.cfi_restore 14
 463              		.cfi_restore 4
 464              		.cfi_def_cfa_offset 0
 300:Src/stm32f4xx_hal_msp.c ****   
 465              		.loc 1 300 0
 466 0028 FFF7FEBF 		b	HAL_GPIO_DeInit	@
 467              	.LVL26:
 468              	.L15:
 469              		.align	2
 470              	.L14:
 471 002c 00380240 		.word	1073887232
 472 0030 00040240 		.word	1073873920
 473              		.cfi_endproc
 474              	.LFE127:
 475              		.size	HAL_I2C_MspDeInit, .-HAL_I2C_MspDeInit
 476              		.section	.text.HAL_SRAM_MspInit,"ax",%progbits
 477              		.align	1
 478              		.global	HAL_SRAM_MspInit
 479              		.thumb
 480              		.thumb_func
 481              		.type	HAL_SRAM_MspInit, %function
 482              	HAL_SRAM_MspInit:
 483              	.LFB128:
 303:Src/stm32f4xx_hal_msp.c **** 
 304:Src/stm32f4xx_hal_msp.c **** 
 305:Src/stm32f4xx_hal_msp.c **** /**
 306:Src/stm32f4xx_hal_msp.c ****   * @brief SRAM init
 307:Src/stm32f4xx_hal_msp.c ****   * param  handle to sram
 308:Src/stm32f4xx_hal_msp.c ****   * retval None
 309:Src/stm32f4xx_hal_msp.c ****   */
 310:Src/stm32f4xx_hal_msp.c **** void HAL_SRAM_MspInit(SRAM_HandleTypeDef * hsram){
 484              		.loc 1 310 0
 485              		.cfi_startproc
 486              		@ args = 0, pretend = 0, frame = 24
 487              		@ frame_needed = 0, uses_anonymous_args = 0
 488              	.LVL27:
 311:Src/stm32f4xx_hal_msp.c **** 	// TODO -> PUT RESET ON GPIO PIN SO WE CAN RESET DISPLAY
 312:Src/stm32f4xx_hal_msp.c **** 	// now reset is on NRST pin on the STM32F4 discovery
 313:Src/stm32f4xx_hal_msp.c **** 	GPIO_InitTypeDef GPIO_InitStructure;
 314:Src/stm32f4xx_hal_msp.c **** 
 315:Src/stm32f4xx_hal_msp.c **** 	// Clock Enable FSMC
 316:Src/stm32f4xx_hal_msp.c **** 	__HAL_RCC_FSMC_CLK_ENABLE();
 489              		.loc 1 316 0
 490 0000 204B     		ldr	r3, .L17	@ tmp119,
 317:Src/stm32f4xx_hal_msp.c **** 
 318:Src/stm32f4xx_hal_msp.c **** 	// Clock Enable Port-D and Port-E
 319:Src/stm32f4xx_hal_msp.c **** 	__HAL_RCC_GPIOD_CLK_ENABLE();
ARM GAS  C:\cygwin\tmp\cc71jJia.s 			page 16


 320:Src/stm32f4xx_hal_msp.c **** 	__HAL_RCC_GPIOE_CLK_ENABLE();
 321:Src/stm32f4xx_hal_msp.c **** 	__HAL_RCC_GPIOB_CLK_ENABLE();
 322:Src/stm32f4xx_hal_msp.c **** 
 323:Src/stm32f4xx_hal_msp.c **** 	//PORTD setup -> alternate function
 324:Src/stm32f4xx_hal_msp.c **** 	// PD0=FSMC_D2->DB2
 325:Src/stm32f4xx_hal_msp.c **** 	// PD1=FSMC_D3->DB3
 326:Src/stm32f4xx_hal_msp.c **** 	// PD4=FSMC_NOE->RD
 327:Src/stm32f4xx_hal_msp.c **** 	// PD5=FSMC_NWE->WR
 328:Src/stm32f4xx_hal_msp.c **** 	// PD7=FSMC_NE1->CS
 329:Src/stm32f4xx_hal_msp.c **** 	// PD8=FSMC_D13->DB15
 330:Src/stm32f4xx_hal_msp.c **** 	// PD9=FSMC_D14->DB16
 331:Src/stm32f4xx_hal_msp.c **** 	// PD10=FSMC_D15->DB17
 332:Src/stm32f4xx_hal_msp.c **** 	// PD11=FSMC_A16->RS
 333:Src/stm32f4xx_hal_msp.c **** 	// PD14=FSMC_D0->DB0
 334:Src/stm32f4xx_hal_msp.c **** 	// PD15=FSMC_D1->DB1
 335:Src/stm32f4xx_hal_msp.c **** 	GPIO_InitStructure.Pin = GPIO_PIN_0 | GPIO_PIN_1 | GPIO_PIN_4 | GPIO_PIN_5 | GPIO_PIN_7 | GPIO_PIN
 336:Src/stm32f4xx_hal_msp.c **** 	GPIO_InitStructure.Mode = GPIO_MODE_AF_PP;
 337:Src/stm32f4xx_hal_msp.c **** 	GPIO_InitStructure.Speed = GPIO_SPEED_HIGH;
 338:Src/stm32f4xx_hal_msp.c **** 	GPIO_InitStructure.Pull = GPIO_NOPULL;
 339:Src/stm32f4xx_hal_msp.c **** 	GPIO_InitStructure.Alternate = GPIO_AF12_FSMC;
 340:Src/stm32f4xx_hal_msp.c **** 	HAL_GPIO_Init(GPIOD, &GPIO_InitStructure);
 491              		.loc 1 340 0
 492 0002 2148     		ldr	r0, .L17+4	@,
 493              	.LVL28:
 316:Src/stm32f4xx_hal_msp.c **** 
 494              		.loc 1 316 0
 495 0004 9A6B     		ldr	r2, [r3, #56]	@ D.7418, MEM[(struct RCC_TypeDef *)1073887232B].AHB3ENR
 496 0006 42F00102 		orr	r2, r2, #1	@ D.7418, D.7418,
 310:Src/stm32f4xx_hal_msp.c **** 	// TODO -> PUT RESET ON GPIO PIN SO WE CAN RESET DISPLAY
 497              		.loc 1 310 0
 498 000a F0B5     		push	{r4, r5, r6, r7, lr}	@
 499              		.cfi_def_cfa_offset 20
 500              		.cfi_offset 4, -20
 501              		.cfi_offset 5, -16
 502              		.cfi_offset 6, -12
 503              		.cfi_offset 7, -8
 504              		.cfi_offset 14, -4
 316:Src/stm32f4xx_hal_msp.c **** 
 505              		.loc 1 316 0
 506 000c 9A63     		str	r2, [r3, #56]	@ D.7418, MEM[(struct RCC_TypeDef *)1073887232B].AHB3ENR
 319:Src/stm32f4xx_hal_msp.c **** 	__HAL_RCC_GPIOE_CLK_ENABLE();
 507              		.loc 1 319 0
 508 000e 1A6B     		ldr	r2, [r3, #48]	@ D.7418, MEM[(struct RCC_TypeDef *)1073887232B].AHB1ENR
 509 0010 42F00802 		orr	r2, r2, #8	@ D.7418, D.7418,
 510 0014 1A63     		str	r2, [r3, #48]	@ D.7418, MEM[(struct RCC_TypeDef *)1073887232B].AHB1ENR
 320:Src/stm32f4xx_hal_msp.c **** 	__HAL_RCC_GPIOB_CLK_ENABLE();
 511              		.loc 1 320 0
 512 0016 1A6B     		ldr	r2, [r3, #48]	@ D.7418, MEM[(struct RCC_TypeDef *)1073887232B].AHB1ENR
 513 0018 42F01002 		orr	r2, r2, #16	@ D.7418, D.7418,
 514 001c 1A63     		str	r2, [r3, #48]	@ D.7418, MEM[(struct RCC_TypeDef *)1073887232B].AHB1ENR
 321:Src/stm32f4xx_hal_msp.c **** 
 515              		.loc 1 321 0
 516 001e 1A6B     		ldr	r2, [r3, #48]	@ D.7418, MEM[(struct RCC_TypeDef *)1073887232B].AHB1ENR
 310:Src/stm32f4xx_hal_msp.c **** 	// TODO -> PUT RESET ON GPIO PIN SO WE CAN RESET DISPLAY
 517              		.loc 1 310 0
 518 0020 87B0     		sub	sp, sp, #28	@,,
 519              		.cfi_def_cfa_offset 48
ARM GAS  C:\cygwin\tmp\cc71jJia.s 			page 17


 321:Src/stm32f4xx_hal_msp.c **** 
 520              		.loc 1 321 0
 521 0022 42F00202 		orr	r2, r2, #2	@ D.7418, D.7418,
 522 0026 1A63     		str	r2, [r3, #48]	@ D.7418, MEM[(struct RCC_TypeDef *)1073887232B].AHB1ENR
 336:Src/stm32f4xx_hal_msp.c **** 	GPIO_InitStructure.Speed = GPIO_SPEED_HIGH;
 523              		.loc 1 336 0
 524 0028 0224     		movs	r4, #2	@ tmp128,
 335:Src/stm32f4xx_hal_msp.c **** 	GPIO_InitStructure.Mode = GPIO_MODE_AF_PP;
 525              		.loc 1 335 0
 526 002a 4CF6B373 		movw	r3, #53171	@ tmp127,
 337:Src/stm32f4xx_hal_msp.c **** 	GPIO_InitStructure.Pull = GPIO_NOPULL;
 527              		.loc 1 337 0
 528 002e 0327     		movs	r7, #3	@ tmp129,
 338:Src/stm32f4xx_hal_msp.c **** 	GPIO_InitStructure.Alternate = GPIO_AF12_FSMC;
 529              		.loc 1 338 0
 530 0030 0026     		movs	r6, #0	@ tmp130,
 339:Src/stm32f4xx_hal_msp.c **** 	HAL_GPIO_Init(GPIOD, &GPIO_InitStructure);
 531              		.loc 1 339 0
 532 0032 0C25     		movs	r5, #12	@ tmp131,
 533              		.loc 1 340 0
 534 0034 01A9     		add	r1, sp, #4	@ tmp148,,
 335:Src/stm32f4xx_hal_msp.c **** 	GPIO_InitStructure.Mode = GPIO_MODE_AF_PP;
 535              		.loc 1 335 0
 536 0036 0193     		str	r3, [sp, #4]	@ tmp127, GPIO_InitStructure.Pin
 338:Src/stm32f4xx_hal_msp.c **** 	GPIO_InitStructure.Alternate = GPIO_AF12_FSMC;
 537              		.loc 1 338 0
 538 0038 0396     		str	r6, [sp, #12]	@ tmp130, GPIO_InitStructure.Pull
 339:Src/stm32f4xx_hal_msp.c **** 	HAL_GPIO_Init(GPIOD, &GPIO_InitStructure);
 539              		.loc 1 339 0
 540 003a 0595     		str	r5, [sp, #20]	@ tmp131, GPIO_InitStructure.Alternate
 336:Src/stm32f4xx_hal_msp.c **** 	GPIO_InitStructure.Speed = GPIO_SPEED_HIGH;
 541              		.loc 1 336 0
 542 003c 0294     		str	r4, [sp, #8]	@ tmp128, GPIO_InitStructure.Mode
 337:Src/stm32f4xx_hal_msp.c **** 	GPIO_InitStructure.Pull = GPIO_NOPULL;
 543              		.loc 1 337 0
 544 003e 0497     		str	r7, [sp, #16]	@ tmp129, GPIO_InitStructure.Speed
 545              		.loc 1 340 0
 546 0040 FFF7FEFF 		bl	HAL_GPIO_Init	@
 547              	.LVL29:
 341:Src/stm32f4xx_hal_msp.c **** 
 342:Src/stm32f4xx_hal_msp.c **** 	//PORTE setup -> alternate function
 343:Src/stm32f4xx_hal_msp.c **** 	// PE7=FSMC_D4->DB4
 344:Src/stm32f4xx_hal_msp.c **** 	// PE8=FSMC_D5->DB5
 345:Src/stm32f4xx_hal_msp.c **** 	// PE9=FSMC_D6->DB6
 346:Src/stm32f4xx_hal_msp.c **** 	// PE10=FSMC_D7->DB7
 347:Src/stm32f4xx_hal_msp.c **** 	// PE11=FSMC_D8->DB10
 348:Src/stm32f4xx_hal_msp.c **** 	// PE12=FSMC_D9->DB11
 349:Src/stm32f4xx_hal_msp.c **** 	// PE13=FSMC_D10->DB12
 350:Src/stm32f4xx_hal_msp.c **** 	// PE14=FSMC_D11->DB13
 351:Src/stm32f4xx_hal_msp.c **** 	// PE15=FSMC_D12->DB14
 352:Src/stm32f4xx_hal_msp.c **** 	GPIO_InitStructure.Pin = GPIO_PIN_7 | GPIO_PIN_8 | GPIO_PIN_9 | GPIO_PIN_10 | GPIO_PIN_11 | GPIO_P
 353:Src/stm32f4xx_hal_msp.c **** 	GPIO_InitStructure.Mode = GPIO_MODE_AF_PP;
 354:Src/stm32f4xx_hal_msp.c **** 	GPIO_InitStructure.Speed = GPIO_SPEED_HIGH;
 355:Src/stm32f4xx_hal_msp.c **** 	GPIO_InitStructure.Pull = GPIO_NOPULL;
 548              		.loc 1 355 0
 549 0044 0396     		str	r6, [sp, #12]	@ tmp130, GPIO_InitStructure.Pull
 356:Src/stm32f4xx_hal_msp.c **** 	GPIO_InitStructure.Alternate = GPIO_AF12_FSMC;
ARM GAS  C:\cygwin\tmp\cc71jJia.s 			page 18


 357:Src/stm32f4xx_hal_msp.c **** 	HAL_GPIO_Init(GPIOE, &GPIO_InitStructure);
 358:Src/stm32f4xx_hal_msp.c **** 
 359:Src/stm32f4xx_hal_msp.c **** 	/* Init Reset Pin Display */
 360:Src/stm32f4xx_hal_msp.c **** 	GPIO_InitStructure.Pin = GPIO_PIN_1;
 361:Src/stm32f4xx_hal_msp.c **** 	GPIO_InitStructure.Mode = GPIO_MODE_OUTPUT_PP;
 362:Src/stm32f4xx_hal_msp.c **** 	GPIO_InitStructure.Speed = GPIO_SPEED_FAST;
 363:Src/stm32f4xx_hal_msp.c **** 	GPIO_InitStructure.Pull = GPIO_PULLUP;
 364:Src/stm32f4xx_hal_msp.c **** 	HAL_GPIO_Init(GPIOB, &GPIO_InitStructure);
 550              		.loc 1 364 0
 551 0046 06F18046 		add	r6, r6, #1073741824	@ tmp145, tmp145,
 352:Src/stm32f4xx_hal_msp.c **** 	GPIO_InitStructure.Mode = GPIO_MODE_AF_PP;
 552              		.loc 1 352 0
 553 004a 4FF68073 		movw	r3, #65408	@ tmp134,
 357:Src/stm32f4xx_hal_msp.c **** 
 554              		.loc 1 357 0
 555 004e 01A9     		add	r1, sp, #4	@ tmp149,,
 556              		.loc 1 364 0
 557 0050 06F50136 		add	r6, r6, #132096	@ tmp145, tmp145,
 357:Src/stm32f4xx_hal_msp.c **** 
 558              		.loc 1 357 0
 559 0054 0D48     		ldr	r0, .L17+8	@,
 352:Src/stm32f4xx_hal_msp.c **** 	GPIO_InitStructure.Mode = GPIO_MODE_AF_PP;
 560              		.loc 1 352 0
 561 0056 0193     		str	r3, [sp, #4]	@ tmp134, GPIO_InitStructure.Pin
 356:Src/stm32f4xx_hal_msp.c **** 	GPIO_InitStructure.Alternate = GPIO_AF12_FSMC;
 562              		.loc 1 356 0
 563 0058 0595     		str	r5, [sp, #20]	@ tmp131, GPIO_InitStructure.Alternate
 353:Src/stm32f4xx_hal_msp.c **** 	GPIO_InitStructure.Speed = GPIO_SPEED_HIGH;
 564              		.loc 1 353 0
 565 005a 0294     		str	r4, [sp, #8]	@ tmp128, GPIO_InitStructure.Mode
 361:Src/stm32f4xx_hal_msp.c **** 	GPIO_InitStructure.Speed = GPIO_SPEED_FAST;
 566              		.loc 1 361 0
 567 005c 0125     		movs	r5, #1	@ tmp142,
 354:Src/stm32f4xx_hal_msp.c **** 	GPIO_InitStructure.Pull = GPIO_NOPULL;
 568              		.loc 1 354 0
 569 005e 0497     		str	r7, [sp, #16]	@ tmp129, GPIO_InitStructure.Speed
 357:Src/stm32f4xx_hal_msp.c **** 
 570              		.loc 1 357 0
 571 0060 FFF7FEFF 		bl	HAL_GPIO_Init	@
 572              	.LVL30:
 573              		.loc 1 364 0
 574 0064 3046     		mov	r0, r6	@, tmp145
 575 0066 01A9     		add	r1, sp, #4	@ tmp150,,
 360:Src/stm32f4xx_hal_msp.c **** 	GPIO_InitStructure.Mode = GPIO_MODE_OUTPUT_PP;
 576              		.loc 1 360 0
 577 0068 0194     		str	r4, [sp, #4]	@ tmp128, GPIO_InitStructure.Pin
 361:Src/stm32f4xx_hal_msp.c **** 	GPIO_InitStructure.Speed = GPIO_SPEED_FAST;
 578              		.loc 1 361 0
 579 006a 0295     		str	r5, [sp, #8]	@ tmp142, GPIO_InitStructure.Mode
 362:Src/stm32f4xx_hal_msp.c **** 	GPIO_InitStructure.Pull = GPIO_PULLUP;
 580              		.loc 1 362 0
 581 006c 0494     		str	r4, [sp, #16]	@ tmp128, GPIO_InitStructure.Speed
 363:Src/stm32f4xx_hal_msp.c **** 	HAL_GPIO_Init(GPIOB, &GPIO_InitStructure);
 582              		.loc 1 363 0
 583 006e 0395     		str	r5, [sp, #12]	@ tmp142, GPIO_InitStructure.Pull
 584              		.loc 1 364 0
 585 0070 FFF7FEFF 		bl	HAL_GPIO_Init	@
ARM GAS  C:\cygwin\tmp\cc71jJia.s 			page 19


 586              	.LVL31:
 365:Src/stm32f4xx_hal_msp.c **** 	HAL_GPIO_WritePin(GPIOB, GPIO_PIN_1, GPIO_PIN_SET);
 587              		.loc 1 365 0
 588 0074 3046     		mov	r0, r6	@, tmp145
 589 0076 2146     		mov	r1, r4	@, tmp128
 590 0078 2A46     		mov	r2, r5	@, tmp142
 591 007a FFF7FEFF 		bl	HAL_GPIO_WritePin	@
 592              	.LVL32:
 366:Src/stm32f4xx_hal_msp.c ****  
 367:Src/stm32f4xx_hal_msp.c **** }
 593              		.loc 1 367 0
 594 007e 07B0     		add	sp, sp, #28	@,,
 595              		.cfi_def_cfa_offset 20
 596              		@ sp needed	@
 597 0080 F0BD     		pop	{r4, r5, r6, r7, pc}	@
 598              	.L18:
 599 0082 00BF     		.align	2
 600              	.L17:
 601 0084 00380240 		.word	1073887232
 602 0088 000C0240 		.word	1073875968
 603 008c 00100240 		.word	1073876992
 604              		.cfi_endproc
 605              	.LFE128:
 606              		.size	HAL_SRAM_MspInit, .-HAL_SRAM_MspInit
 607              		.section	.text.HALL_SRAM_MspDeInit,"ax",%progbits
 608              		.align	1
 609              		.global	HALL_SRAM_MspDeInit
 610              		.thumb
 611              		.thumb_func
 612              		.type	HALL_SRAM_MspDeInit, %function
 613              	HALL_SRAM_MspDeInit:
 614              	.LFB129:
 368:Src/stm32f4xx_hal_msp.c **** 		
 369:Src/stm32f4xx_hal_msp.c **** /**
 370:Src/stm32f4xx_hal_msp.c ****   * @brief SRAM deinit
 371:Src/stm32f4xx_hal_msp.c ****   * @param handle to sram
 372:Src/stm32f4xx_hal_msp.c ****   * @retval None
 373:Src/stm32f4xx_hal_msp.c ****   */
 374:Src/stm32f4xx_hal_msp.c **** void HALL_SRAM_MspDeInit(SRAM_HandleTypeDef * hsram){
 615              		.loc 1 374 0
 616              		.cfi_startproc
 617              		@ args = 0, pretend = 0, frame = 0
 618              		@ frame_needed = 0, uses_anonymous_args = 0
 619              	.LVL33:
 620 0000 08B5     		push	{r3, lr}	@
 621              		.cfi_def_cfa_offset 8
 622              		.cfi_offset 3, -8
 623              		.cfi_offset 14, -4
 375:Src/stm32f4xx_hal_msp.c **** 	// Disable peripheral and GPIO
 376:Src/stm32f4xx_hal_msp.c **** 	HAL_GPIO_DeInit(GPIOD, GPIO_PIN_0 | GPIO_PIN_1 | GPIO_PIN_4 | GPIO_PIN_5 | GPIO_PIN_7 | GPIO_PIN_8
 624              		.loc 1 376 0
 625 0002 0648     		ldr	r0, .L20	@,
 626              	.LVL34:
 627 0004 4CF6B371 		movw	r1, #53171	@,
 628 0008 FFF7FEFF 		bl	HAL_GPIO_DeInit	@
 629              	.LVL35:
 377:Src/stm32f4xx_hal_msp.c **** 	HAL_GPIO_DeInit(GPIOE, GPIO_PIN_7 | GPIO_PIN_8 | GPIO_PIN_9 | GPIO_PIN_10 | GPIO_PIN_11 | GPIO_PIN
ARM GAS  C:\cygwin\tmp\cc71jJia.s 			page 20


 630              		.loc 1 377 0
 631 000c 0448     		ldr	r0, .L20+4	@,
 632 000e 4FF68071 		movw	r1, #65408	@,
 378:Src/stm32f4xx_hal_msp.c **** }
 633              		.loc 1 378 0
 634 0012 BDE80840 		pop	{r3, lr}	@
 635              		.cfi_restore 14
 636              		.cfi_restore 3
 637              		.cfi_def_cfa_offset 0
 377:Src/stm32f4xx_hal_msp.c **** 	HAL_GPIO_DeInit(GPIOE, GPIO_PIN_7 | GPIO_PIN_8 | GPIO_PIN_9 | GPIO_PIN_10 | GPIO_PIN_11 | GPIO_PIN
 638              		.loc 1 377 0
 639 0016 FFF7FEBF 		b	HAL_GPIO_DeInit	@
 640              	.LVL36:
 641              	.L21:
 642 001a 00BF     		.align	2
 643              	.L20:
 644 001c 000C0240 		.word	1073875968
 645 0020 00100240 		.word	1073876992
 646              		.cfi_endproc
 647              	.LFE129:
 648              		.size	HALL_SRAM_MspDeInit, .-HALL_SRAM_MspDeInit
 649              		.section	.text.HAL_MspInit,"ax",%progbits
 650              		.align	1
 651              		.global	HAL_MspInit
 652              		.thumb
 653              		.thumb_func
 654              		.type	HAL_MspInit, %function
 655              	HAL_MspInit:
 656              	.LFB130:
 379:Src/stm32f4xx_hal_msp.c **** 
 380:Src/stm32f4xx_hal_msp.c **** 
 381:Src/stm32f4xx_hal_msp.c **** /**
 382:Src/stm32f4xx_hal_msp.c ****   * @brief  Initializes the Global MSP.
 383:Src/stm32f4xx_hal_msp.c ****   * @param  None
 384:Src/stm32f4xx_hal_msp.c ****   * @retval None
 385:Src/stm32f4xx_hal_msp.c ****   */
 386:Src/stm32f4xx_hal_msp.c **** void HAL_MspInit(void)
 387:Src/stm32f4xx_hal_msp.c **** {
 657              		.loc 1 387 0
 658              		.cfi_startproc
 659              		@ args = 0, pretend = 0, frame = 0
 660              		@ frame_needed = 0, uses_anonymous_args = 0
 661              		@ link register save eliminated.
 662 0000 7047     		bx	lr	@
 663              		.cfi_endproc
 664              	.LFE130:
 665              		.size	HAL_MspInit, .-HAL_MspInit
 666              		.section	.text.HAL_MspDeInit,"ax",%progbits
 667              		.align	1
 668              		.global	HAL_MspDeInit
 669              		.thumb
 670              		.thumb_func
 671              		.type	HAL_MspDeInit, %function
 672              	HAL_MspDeInit:
 673              	.LFB131:
 388:Src/stm32f4xx_hal_msp.c ****   /* NOTE : This function is generated automatically by MicroXplorer and eventually  
 389:Src/stm32f4xx_hal_msp.c ****             modified by the user
ARM GAS  C:\cygwin\tmp\cc71jJia.s 			page 21


 390:Src/stm32f4xx_hal_msp.c ****    */ 
 391:Src/stm32f4xx_hal_msp.c **** }
 392:Src/stm32f4xx_hal_msp.c **** 
 393:Src/stm32f4xx_hal_msp.c **** /**
 394:Src/stm32f4xx_hal_msp.c ****   * @brief  DeInitializes the Global MSP.
 395:Src/stm32f4xx_hal_msp.c ****   * @param  None  
 396:Src/stm32f4xx_hal_msp.c ****   * @retval None
 397:Src/stm32f4xx_hal_msp.c ****   */
 398:Src/stm32f4xx_hal_msp.c **** void HAL_MspDeInit(void)
 399:Src/stm32f4xx_hal_msp.c **** {
 674              		.loc 1 399 0
 675              		.cfi_startproc
 676              		@ args = 0, pretend = 0, frame = 0
 677              		@ frame_needed = 0, uses_anonymous_args = 0
 678              		@ link register save eliminated.
 679 0000 7047     		bx	lr	@
 680              		.cfi_endproc
 681              	.LFE131:
 682              		.size	HAL_MspDeInit, .-HAL_MspDeInit
 683              		.text
 684              	.Letext0:
 685              		.file 2 "../STM32Cube_FW_F4_V1.4.0/Drivers/CMSIS/Device/ST/STM32F4xx/Include/stm32f407xx.h"
 686              		.file 3 "c:\\program files\\gcc-arm-none-eabi-4_9-2014\\arm-none-eabi\\include\\machine\\_default_
 687              		.file 4 "c:\\program files\\gcc-arm-none-eabi-4_9-2014\\arm-none-eabi\\include\\stdint.h"
 688              		.file 5 "../STM32Cube_FW_F4_V1.4.0/Drivers/STM32F4xx_HAL_Driver/Inc/stm32f4xx_hal_def.h"
 689              		.file 6 "../STM32Cube_FW_F4_V1.4.0/Drivers/STM32F4xx_HAL_Driver/Inc/stm32f4xx_hal_gpio.h"
 690              		.file 7 "../STM32Cube_FW_F4_V1.4.0/Drivers/STM32F4xx_HAL_Driver/Inc/stm32f4xx_hal_dma.h"
 691              		.file 8 "../STM32Cube_FW_F4_V1.4.0/Drivers/STM32F4xx_HAL_Driver/Inc/stm32f4xx_ll_fsmc.h"
 692              		.file 9 "../STM32Cube_FW_F4_V1.4.0/Drivers/STM32F4xx_HAL_Driver/Inc/stm32f4xx_hal_sram.h"
 693              		.file 10 "../STM32Cube_FW_F4_V1.4.0/Drivers/STM32F4xx_HAL_Driver/Inc/stm32f4xx_hal_i2c.h"
 694              		.file 11 "../STM32Cube_FW_F4_V1.4.0/Drivers/STM32F4xx_HAL_Driver/Inc/stm32f4xx_hal_tim.h"
 695              		.file 12 "../STM32Cube_FW_F4_V1.4.0/Drivers/STM32F4xx_HAL_Driver/Inc/stm32f4xx_hal_uart.h"
 696              		.file 13 "../STM32Cube_FW_F4_V1.4.0/Drivers/STM32F4xx_HAL_Driver/Inc/stm32f4xx_hal_cortex.h"
 697              		.file 14 "../STM32Cube_FW_F4_V1.4.0/Drivers/CMSIS/Include/core_cm4.h"