ARM GAS  C:\cygwin\tmp\ccODIXg7.s 			page 1


   1              		.syntax unified
   2              		.cpu cortex-m4
   3              		.fpu softvfp
   4              		.eabi_attribute 20, 1	@ Tag_ABI_FP_denormal
   5              		.eabi_attribute 21, 1	@ Tag_ABI_FP_exceptions
   6              		.eabi_attribute 23, 3	@ Tag_ABI_FP_number_model
   7              		.eabi_attribute 24, 1	@ Tag_ABI_align8_needed
   8              		.eabi_attribute 25, 1	@ Tag_ABI_align8_preserved
   9              		.eabi_attribute 26, 1	@ Tag_ABI_enum_size
  10              		.eabi_attribute 30, 4	@ Tag_ABI_optimization_goals
  11              		.eabi_attribute 34, 1	@ Tag_CPU_unaligned_access
  12              		.eabi_attribute 18, 4	@ Tag_ABI_PCS_wchar_t
  13              		.file	"stm32f4xx_hal_nor.c"
  14              	@ GNU C (GNU Tools for ARM Embedded Processors) version 4.9.3 20141119 (release) [ARM/embedded-4_9-
  15              	@	compiled by GNU C version 4.7.4, GMP version 4.3.2, MPFR version 2.4.2, MPC version 0.8.1
  16              	@ GGC heuristics: --param ggc-min-expand=100 --param ggc-min-heapsize=131072
  17              	@ options passed:  -I . -I Inc -I port -I modbus/rtu -I modbus/ascii
  18              	@ -I modbus/include -I ../STM32Cube_FW_F4_V1.4.0/Drivers/CMSIS/Include
  19              	@ -I ../STM32Cube_FW_F4_V1.4.0/Drivers/CMSIS/Device/ST/STM32F4xx/Include
  20              	@ -I ../STM32Cube_FW_F4_V1.4.0/Drivers/STM32F4xx_HAL_Driver/Inc
  21              	@ -I ../STM32Cube_FW_F4_V1.4.0/Drivers/CMSIS/Include -imultilib armv7e-m
  22              	@ -iprefix c:\program files\gcc-arm-none-eabi-4_9-2014\bin\../lib/gcc/arm-none-eabi/4.9.3/
  23              	@ -isysroot c:\program files\gcc-arm-none-eabi-4_9-2014\bin\../arm-none-eabi
  24              	@ -MD out/stm32f4xx_hal_nor.d -MF out/stm32f4xx_hal_nor.d -MP
  25              	@ -MQ out/stm32f4xx_hal_nor.o -D__USES_INITFINI__ -D USE_HAL_DRIVER
  26              	@ -D STM32F4XX -D HSE_VALUE=8000000 -D __STARTUP_CLEAR_BSS -D STM32F411RE
  27              	@ -D USE_FULL_ASSERT -D __FPU_USED
  28              	@ ../STM32Cube_FW_F4_V1.4.0/Drivers/STM32F4xx_HAL_Driver/Src/stm32f4xx_hal_nor.c
  29              	@ -mcpu=cortex-m4 -mthumb -auxbase-strip out/stm32f4xx_hal_nor.o -g -ggdb3
  30              	@ -Os -Os -Wall -Wstrict-prototypes -Wextra -std=gnu90 -ffunction-sections
  31              	@ -fdata-sections -fverbose-asm
  32              	@ options enabled:  -faggressive-loop-optimizations -fauto-inc-dec
  33              	@ -fbranch-count-reg -fcaller-saves -fcombine-stack-adjustments -fcommon
  34              	@ -fcompare-elim -fcprop-registers -fcrossjumping -fcse-follow-jumps
  35              	@ -fdata-sections -fdefer-pop -fdelete-null-pointer-checks -fdevirtualize
  36              	@ -fdevirtualize-speculatively -fdwarf2-cfi-asm -fearly-inlining
  37              	@ -feliminate-unused-debug-types -fexpensive-optimizations
  38              	@ -fforward-propagate -ffunction-cse -ffunction-sections -fgcse -fgcse-lm
  39              	@ -fgnu-runtime -fgnu-unique -fguess-branch-probability
  40              	@ -fhoist-adjacent-loads -fident -fif-conversion -fif-conversion2
  41              	@ -findirect-inlining -finline -finline-atomics -finline-functions
  42              	@ -finline-functions-called-once -finline-small-functions -fipa-cp
  43              	@ -fipa-profile -fipa-pure-const -fipa-reference -fipa-sra
  44              	@ -fira-hoist-pressure -fira-share-save-slots -fira-share-spill-slots
  45              	@ -fisolate-erroneous-paths-dereference -fivopts -fkeep-static-consts
  46              	@ -fleading-underscore -fmath-errno -fmerge-constants -fmerge-debug-strings
  47              	@ -fomit-frame-pointer -foptimize-sibling-calls -fpartial-inlining
  48              	@ -fpeephole -fpeephole2 -fprefetch-loop-arrays -freg-struct-return
  49              	@ -freorder-blocks -freorder-functions -frerun-cse-after-loop
  50              	@ -fsched-critical-path-heuristic -fsched-dep-count-heuristic
  51              	@ -fsched-group-heuristic -fsched-interblock -fsched-last-insn-heuristic
  52              	@ -fsched-pressure -fsched-rank-heuristic -fsched-spec
  53              	@ -fsched-spec-insn-heuristic -fsched-stalled-insns-dep -fschedule-insns2
  54              	@ -fsection-anchors -fshow-column -fsigned-zeros -fsplit-ivs-in-unroller
  55              	@ -fsplit-wide-types -fstrict-aliasing -fstrict-overflow
  56              	@ -fstrict-volatile-bitfields -fsync-libcalls -fthread-jumps
  57              	@ -ftoplevel-reorder -ftrapping-math -ftree-bit-ccp -ftree-builtin-call-dce
ARM GAS  C:\cygwin\tmp\ccODIXg7.s 			page 2


  58              	@ -ftree-ccp -ftree-ch -ftree-coalesce-vars -ftree-copy-prop
  59              	@ -ftree-copyrename -ftree-cselim -ftree-dce -ftree-dominator-opts
  60              	@ -ftree-dse -ftree-forwprop -ftree-fre -ftree-loop-if-convert
  61              	@ -ftree-loop-im -ftree-loop-ivcanon -ftree-loop-optimize
  62              	@ -ftree-parallelize-loops= -ftree-phiprop -ftree-pre -ftree-pta
  63              	@ -ftree-reassoc -ftree-scev-cprop -ftree-sink -ftree-slsr -ftree-sra
  64              	@ -ftree-switch-conversion -ftree-tail-merge -ftree-ter -ftree-vrp
  65              	@ -funit-at-a-time -fvar-tracking -fvar-tracking-assignments -fverbose-asm
  66              	@ -fzero-initialized-in-bss -mlittle-endian -mlra
  67              	@ -mpic-data-is-text-relative -msched-prolog -mthumb -munaligned-access
  68              	@ -mvectorize-with-neon-quad
  69              	
  70              		.text
  71              	.Ltext0:
  72              		.cfi_sections	.debug_frame
  73              		.section	.text.HAL_NOR_MspInit,"ax",%progbits
  74              		.align	1
  75              		.weak	HAL_NOR_MspInit
  76              		.thumb
  77              		.thumb_func
  78              		.type	HAL_NOR_MspInit, %function
  79              	HAL_NOR_MspInit:
  80              	.LFB125:
  81              		.file 1 "../STM32Cube_FW_F4_V1.4.0/Drivers/STM32F4xx_HAL_Driver/Src/stm32f4xx_hal_nor.c"
   1:../STM32Cube_FW_F4_V1.4.0/Drivers/STM32F4xx_HAL_Driver/Src/stm32f4xx_hal_nor.c **** /**
   2:../STM32Cube_FW_F4_V1.4.0/Drivers/STM32F4xx_HAL_Driver/Src/stm32f4xx_hal_nor.c ****   ******************************************************************************
   3:../STM32Cube_FW_F4_V1.4.0/Drivers/STM32F4xx_HAL_Driver/Src/stm32f4xx_hal_nor.c ****   * @file    stm32f4xx_hal_nor.c
   4:../STM32Cube_FW_F4_V1.4.0/Drivers/STM32F4xx_HAL_Driver/Src/stm32f4xx_hal_nor.c ****   * @author  MCD Application Team
   5:../STM32Cube_FW_F4_V1.4.0/Drivers/STM32F4xx_HAL_Driver/Src/stm32f4xx_hal_nor.c ****   * @version V1.2.0
   6:../STM32Cube_FW_F4_V1.4.0/Drivers/STM32F4xx_HAL_Driver/Src/stm32f4xx_hal_nor.c ****   * @date    26-December-2014
   7:../STM32Cube_FW_F4_V1.4.0/Drivers/STM32F4xx_HAL_Driver/Src/stm32f4xx_hal_nor.c ****   * @brief   NOR HAL module driver.
   8:../STM32Cube_FW_F4_V1.4.0/Drivers/STM32F4xx_HAL_Driver/Src/stm32f4xx_hal_nor.c ****   *          This file provides a generic firmware to drive NOR memories mounted 
   9:../STM32Cube_FW_F4_V1.4.0/Drivers/STM32F4xx_HAL_Driver/Src/stm32f4xx_hal_nor.c ****   *          as external device.
  10:../STM32Cube_FW_F4_V1.4.0/Drivers/STM32F4xx_HAL_Driver/Src/stm32f4xx_hal_nor.c ****   *         
  11:../STM32Cube_FW_F4_V1.4.0/Drivers/STM32F4xx_HAL_Driver/Src/stm32f4xx_hal_nor.c ****   @verbatim
  12:../STM32Cube_FW_F4_V1.4.0/Drivers/STM32F4xx_HAL_Driver/Src/stm32f4xx_hal_nor.c ****   ==============================================================================
  13:../STM32Cube_FW_F4_V1.4.0/Drivers/STM32F4xx_HAL_Driver/Src/stm32f4xx_hal_nor.c ****                      ##### How to use this driver #####
  14:../STM32Cube_FW_F4_V1.4.0/Drivers/STM32F4xx_HAL_Driver/Src/stm32f4xx_hal_nor.c ****   ==============================================================================       
  15:../STM32Cube_FW_F4_V1.4.0/Drivers/STM32F4xx_HAL_Driver/Src/stm32f4xx_hal_nor.c ****     [..]
  16:../STM32Cube_FW_F4_V1.4.0/Drivers/STM32F4xx_HAL_Driver/Src/stm32f4xx_hal_nor.c ****       This driver is a generic layered driver which contains a set of APIs used to 
  17:../STM32Cube_FW_F4_V1.4.0/Drivers/STM32F4xx_HAL_Driver/Src/stm32f4xx_hal_nor.c ****       control NOR flash memories. It uses the FMC/FSMC layer functions to interface 
  18:../STM32Cube_FW_F4_V1.4.0/Drivers/STM32F4xx_HAL_Driver/Src/stm32f4xx_hal_nor.c ****       with NOR devices. This driver is used as follows:
  19:../STM32Cube_FW_F4_V1.4.0/Drivers/STM32F4xx_HAL_Driver/Src/stm32f4xx_hal_nor.c ****     
  20:../STM32Cube_FW_F4_V1.4.0/Drivers/STM32F4xx_HAL_Driver/Src/stm32f4xx_hal_nor.c ****       (+) NOR flash memory configuration sequence using the function HAL_NOR_Init() 
  21:../STM32Cube_FW_F4_V1.4.0/Drivers/STM32F4xx_HAL_Driver/Src/stm32f4xx_hal_nor.c ****           with control and timing parameters for both normal and extended mode.
  22:../STM32Cube_FW_F4_V1.4.0/Drivers/STM32F4xx_HAL_Driver/Src/stm32f4xx_hal_nor.c ****             
  23:../STM32Cube_FW_F4_V1.4.0/Drivers/STM32F4xx_HAL_Driver/Src/stm32f4xx_hal_nor.c ****       (+) Read NOR flash memory manufacturer code and device IDs using the function
  24:../STM32Cube_FW_F4_V1.4.0/Drivers/STM32F4xx_HAL_Driver/Src/stm32f4xx_hal_nor.c ****           HAL_NOR_Read_ID(). The read information is stored in the NOR_ID_TypeDef 
  25:../STM32Cube_FW_F4_V1.4.0/Drivers/STM32F4xx_HAL_Driver/Src/stm32f4xx_hal_nor.c ****           structure declared by the function caller. 
  26:../STM32Cube_FW_F4_V1.4.0/Drivers/STM32F4xx_HAL_Driver/Src/stm32f4xx_hal_nor.c ****         
  27:../STM32Cube_FW_F4_V1.4.0/Drivers/STM32F4xx_HAL_Driver/Src/stm32f4xx_hal_nor.c ****       (+) Access NOR flash memory by read/write data unit operations using the functions
  28:../STM32Cube_FW_F4_V1.4.0/Drivers/STM32F4xx_HAL_Driver/Src/stm32f4xx_hal_nor.c ****           HAL_NOR_Read(), HAL_NOR_Program().
  29:../STM32Cube_FW_F4_V1.4.0/Drivers/STM32F4xx_HAL_Driver/Src/stm32f4xx_hal_nor.c ****         
  30:../STM32Cube_FW_F4_V1.4.0/Drivers/STM32F4xx_HAL_Driver/Src/stm32f4xx_hal_nor.c ****       (+) Perform NOR flash erase block/chip operations using the functions 
  31:../STM32Cube_FW_F4_V1.4.0/Drivers/STM32F4xx_HAL_Driver/Src/stm32f4xx_hal_nor.c ****           HAL_NOR_Erase_Block() and HAL_NOR_Erase_Chip().
  32:../STM32Cube_FW_F4_V1.4.0/Drivers/STM32F4xx_HAL_Driver/Src/stm32f4xx_hal_nor.c ****         
  33:../STM32Cube_FW_F4_V1.4.0/Drivers/STM32F4xx_HAL_Driver/Src/stm32f4xx_hal_nor.c ****       (+) Read the NOR flash CFI (common flash interface) IDs using the function
ARM GAS  C:\cygwin\tmp\ccODIXg7.s 			page 3


  34:../STM32Cube_FW_F4_V1.4.0/Drivers/STM32F4xx_HAL_Driver/Src/stm32f4xx_hal_nor.c ****           HAL_NOR_Read_CFI(). The read information is stored in the NOR_CFI_TypeDef
  35:../STM32Cube_FW_F4_V1.4.0/Drivers/STM32F4xx_HAL_Driver/Src/stm32f4xx_hal_nor.c ****           structure declared by the function caller.
  36:../STM32Cube_FW_F4_V1.4.0/Drivers/STM32F4xx_HAL_Driver/Src/stm32f4xx_hal_nor.c ****         
  37:../STM32Cube_FW_F4_V1.4.0/Drivers/STM32F4xx_HAL_Driver/Src/stm32f4xx_hal_nor.c ****       (+) You can also control the NOR device by calling the control APIs HAL_NOR_WriteOperation_En
  38:../STM32Cube_FW_F4_V1.4.0/Drivers/STM32F4xx_HAL_Driver/Src/stm32f4xx_hal_nor.c ****           HAL_NOR_WriteOperation_Disable() to respectively enable/disable the NOR write operation  
  39:../STM32Cube_FW_F4_V1.4.0/Drivers/STM32F4xx_HAL_Driver/Src/stm32f4xx_hal_nor.c ****        
  40:../STM32Cube_FW_F4_V1.4.0/Drivers/STM32F4xx_HAL_Driver/Src/stm32f4xx_hal_nor.c ****       (+) You can monitor the NOR device HAL state by calling the function
  41:../STM32Cube_FW_F4_V1.4.0/Drivers/STM32F4xx_HAL_Driver/Src/stm32f4xx_hal_nor.c ****           HAL_NOR_GetState() 
  42:../STM32Cube_FW_F4_V1.4.0/Drivers/STM32F4xx_HAL_Driver/Src/stm32f4xx_hal_nor.c ****     [..]
  43:../STM32Cube_FW_F4_V1.4.0/Drivers/STM32F4xx_HAL_Driver/Src/stm32f4xx_hal_nor.c ****      (@) This driver is a set of generic APIs which handle standard NOR flash operations.
  44:../STM32Cube_FW_F4_V1.4.0/Drivers/STM32F4xx_HAL_Driver/Src/stm32f4xx_hal_nor.c ****          If a NOR flash device contains different operations and/or implementations, 
  45:../STM32Cube_FW_F4_V1.4.0/Drivers/STM32F4xx_HAL_Driver/Src/stm32f4xx_hal_nor.c ****          it should be implemented separately.
  46:../STM32Cube_FW_F4_V1.4.0/Drivers/STM32F4xx_HAL_Driver/Src/stm32f4xx_hal_nor.c **** 
  47:../STM32Cube_FW_F4_V1.4.0/Drivers/STM32F4xx_HAL_Driver/Src/stm32f4xx_hal_nor.c ****      *** NOR HAL driver macros list ***
  48:../STM32Cube_FW_F4_V1.4.0/Drivers/STM32F4xx_HAL_Driver/Src/stm32f4xx_hal_nor.c ****      ============================================= 
  49:../STM32Cube_FW_F4_V1.4.0/Drivers/STM32F4xx_HAL_Driver/Src/stm32f4xx_hal_nor.c ****      [..]
  50:../STM32Cube_FW_F4_V1.4.0/Drivers/STM32F4xx_HAL_Driver/Src/stm32f4xx_hal_nor.c ****        Below the list of most used macros in NOR HAL driver.
  51:../STM32Cube_FW_F4_V1.4.0/Drivers/STM32F4xx_HAL_Driver/Src/stm32f4xx_hal_nor.c ****        
  52:../STM32Cube_FW_F4_V1.4.0/Drivers/STM32F4xx_HAL_Driver/Src/stm32f4xx_hal_nor.c ****       (+) NOR_WRITE : NOR memory write data to specified address
  53:../STM32Cube_FW_F4_V1.4.0/Drivers/STM32F4xx_HAL_Driver/Src/stm32f4xx_hal_nor.c **** 
  54:../STM32Cube_FW_F4_V1.4.0/Drivers/STM32F4xx_HAL_Driver/Src/stm32f4xx_hal_nor.c ****   @endverbatim
  55:../STM32Cube_FW_F4_V1.4.0/Drivers/STM32F4xx_HAL_Driver/Src/stm32f4xx_hal_nor.c ****   ******************************************************************************
  56:../STM32Cube_FW_F4_V1.4.0/Drivers/STM32F4xx_HAL_Driver/Src/stm32f4xx_hal_nor.c ****   * @attention
  57:../STM32Cube_FW_F4_V1.4.0/Drivers/STM32F4xx_HAL_Driver/Src/stm32f4xx_hal_nor.c ****   *
  58:../STM32Cube_FW_F4_V1.4.0/Drivers/STM32F4xx_HAL_Driver/Src/stm32f4xx_hal_nor.c ****   * <h2><center>&copy; COPYRIGHT(c) 2014 STMicroelectronics</center></h2>
  59:../STM32Cube_FW_F4_V1.4.0/Drivers/STM32F4xx_HAL_Driver/Src/stm32f4xx_hal_nor.c ****   *
  60:../STM32Cube_FW_F4_V1.4.0/Drivers/STM32F4xx_HAL_Driver/Src/stm32f4xx_hal_nor.c ****   * Redistribution and use in source and binary forms, with or without modification,
  61:../STM32Cube_FW_F4_V1.4.0/Drivers/STM32F4xx_HAL_Driver/Src/stm32f4xx_hal_nor.c ****   * are permitted provided that the following conditions are met:
  62:../STM32Cube_FW_F4_V1.4.0/Drivers/STM32F4xx_HAL_Driver/Src/stm32f4xx_hal_nor.c ****   *   1. Redistributions of source code must retain the above copyright notice,
  63:../STM32Cube_FW_F4_V1.4.0/Drivers/STM32F4xx_HAL_Driver/Src/stm32f4xx_hal_nor.c ****   *      this list of conditions and the following disclaimer.
  64:../STM32Cube_FW_F4_V1.4.0/Drivers/STM32F4xx_HAL_Driver/Src/stm32f4xx_hal_nor.c ****   *   2. Redistributions in binary form must reproduce the above copyright notice,
  65:../STM32Cube_FW_F4_V1.4.0/Drivers/STM32F4xx_HAL_Driver/Src/stm32f4xx_hal_nor.c ****   *      this list of conditions and the following disclaimer in the documentation
  66:../STM32Cube_FW_F4_V1.4.0/Drivers/STM32F4xx_HAL_Driver/Src/stm32f4xx_hal_nor.c ****   *      and/or other materials provided with the distribution.
  67:../STM32Cube_FW_F4_V1.4.0/Drivers/STM32F4xx_HAL_Driver/Src/stm32f4xx_hal_nor.c ****   *   3. Neither the name of STMicroelectronics nor the names of its contributors
  68:../STM32Cube_FW_F4_V1.4.0/Drivers/STM32F4xx_HAL_Driver/Src/stm32f4xx_hal_nor.c ****   *      may be used to endorse or promote products derived from this software
  69:../STM32Cube_FW_F4_V1.4.0/Drivers/STM32F4xx_HAL_Driver/Src/stm32f4xx_hal_nor.c ****   *      without specific prior written permission.
  70:../STM32Cube_FW_F4_V1.4.0/Drivers/STM32F4xx_HAL_Driver/Src/stm32f4xx_hal_nor.c ****   *
  71:../STM32Cube_FW_F4_V1.4.0/Drivers/STM32F4xx_HAL_Driver/Src/stm32f4xx_hal_nor.c ****   * THIS SOFTWARE IS PROVIDED BY THE COPYRIGHT HOLDERS AND CONTRIBUTORS "AS IS"
  72:../STM32Cube_FW_F4_V1.4.0/Drivers/STM32F4xx_HAL_Driver/Src/stm32f4xx_hal_nor.c ****   * AND ANY EXPRESS OR IMPLIED WARRANTIES, INCLUDING, BUT NOT LIMITED TO, THE
  73:../STM32Cube_FW_F4_V1.4.0/Drivers/STM32F4xx_HAL_Driver/Src/stm32f4xx_hal_nor.c ****   * IMPLIED WARRANTIES OF MERCHANTABILITY AND FITNESS FOR A PARTICULAR PURPOSE ARE
  74:../STM32Cube_FW_F4_V1.4.0/Drivers/STM32F4xx_HAL_Driver/Src/stm32f4xx_hal_nor.c ****   * DISCLAIMED. IN NO EVENT SHALL THE COPYRIGHT HOLDER OR CONTRIBUTORS BE LIABLE
  75:../STM32Cube_FW_F4_V1.4.0/Drivers/STM32F4xx_HAL_Driver/Src/stm32f4xx_hal_nor.c ****   * FOR ANY DIRECT, INDIRECT, INCIDENTAL, SPECIAL, EXEMPLARY, OR CONSEQUENTIAL
  76:../STM32Cube_FW_F4_V1.4.0/Drivers/STM32F4xx_HAL_Driver/Src/stm32f4xx_hal_nor.c ****   * DAMAGES (INCLUDING, BUT NOT LIMITED TO, PROCUREMENT OF SUBSTITUTE GOODS OR
  77:../STM32Cube_FW_F4_V1.4.0/Drivers/STM32F4xx_HAL_Driver/Src/stm32f4xx_hal_nor.c ****   * SERVICES; LOSS OF USE, DATA, OR PROFITS; OR BUSINESS INTERRUPTION) HOWEVER
  78:../STM32Cube_FW_F4_V1.4.0/Drivers/STM32F4xx_HAL_Driver/Src/stm32f4xx_hal_nor.c ****   * CAUSED AND ON ANY THEORY OF LIABILITY, WHETHER IN CONTRACT, STRICT LIABILITY,
  79:../STM32Cube_FW_F4_V1.4.0/Drivers/STM32F4xx_HAL_Driver/Src/stm32f4xx_hal_nor.c ****   * OR TORT (INCLUDING NEGLIGENCE OR OTHERWISE) ARISING IN ANY WAY OUT OF THE USE
  80:../STM32Cube_FW_F4_V1.4.0/Drivers/STM32F4xx_HAL_Driver/Src/stm32f4xx_hal_nor.c ****   * OF THIS SOFTWARE, EVEN IF ADVISED OF THE POSSIBILITY OF SUCH DAMAGE.
  81:../STM32Cube_FW_F4_V1.4.0/Drivers/STM32F4xx_HAL_Driver/Src/stm32f4xx_hal_nor.c ****   *
  82:../STM32Cube_FW_F4_V1.4.0/Drivers/STM32F4xx_HAL_Driver/Src/stm32f4xx_hal_nor.c ****   ******************************************************************************
  83:../STM32Cube_FW_F4_V1.4.0/Drivers/STM32F4xx_HAL_Driver/Src/stm32f4xx_hal_nor.c ****   */ 
  84:../STM32Cube_FW_F4_V1.4.0/Drivers/STM32F4xx_HAL_Driver/Src/stm32f4xx_hal_nor.c **** 
  85:../STM32Cube_FW_F4_V1.4.0/Drivers/STM32F4xx_HAL_Driver/Src/stm32f4xx_hal_nor.c **** /* Includes ------------------------------------------------------------------*/
  86:../STM32Cube_FW_F4_V1.4.0/Drivers/STM32F4xx_HAL_Driver/Src/stm32f4xx_hal_nor.c **** #include "stm32f4xx_hal.h"
  87:../STM32Cube_FW_F4_V1.4.0/Drivers/STM32F4xx_HAL_Driver/Src/stm32f4xx_hal_nor.c **** 
  88:../STM32Cube_FW_F4_V1.4.0/Drivers/STM32F4xx_HAL_Driver/Src/stm32f4xx_hal_nor.c **** /** @addtogroup STM32F4xx_HAL_Driver
  89:../STM32Cube_FW_F4_V1.4.0/Drivers/STM32F4xx_HAL_Driver/Src/stm32f4xx_hal_nor.c ****   * @{
  90:../STM32Cube_FW_F4_V1.4.0/Drivers/STM32F4xx_HAL_Driver/Src/stm32f4xx_hal_nor.c ****   */
ARM GAS  C:\cygwin\tmp\ccODIXg7.s 			page 4


  91:../STM32Cube_FW_F4_V1.4.0/Drivers/STM32F4xx_HAL_Driver/Src/stm32f4xx_hal_nor.c **** 
  92:../STM32Cube_FW_F4_V1.4.0/Drivers/STM32F4xx_HAL_Driver/Src/stm32f4xx_hal_nor.c **** /** @defgroup NOR NOR
  93:../STM32Cube_FW_F4_V1.4.0/Drivers/STM32F4xx_HAL_Driver/Src/stm32f4xx_hal_nor.c ****   * @brief NOR driver modules
  94:../STM32Cube_FW_F4_V1.4.0/Drivers/STM32F4xx_HAL_Driver/Src/stm32f4xx_hal_nor.c ****   * @{
  95:../STM32Cube_FW_F4_V1.4.0/Drivers/STM32F4xx_HAL_Driver/Src/stm32f4xx_hal_nor.c ****   */
  96:../STM32Cube_FW_F4_V1.4.0/Drivers/STM32F4xx_HAL_Driver/Src/stm32f4xx_hal_nor.c **** #ifdef HAL_NOR_MODULE_ENABLED
  97:../STM32Cube_FW_F4_V1.4.0/Drivers/STM32F4xx_HAL_Driver/Src/stm32f4xx_hal_nor.c **** #if defined(STM32F405xx) || defined(STM32F415xx) || defined(STM32F407xx) || defined(STM32F417xx) ||
  98:../STM32Cube_FW_F4_V1.4.0/Drivers/STM32F4xx_HAL_Driver/Src/stm32f4xx_hal_nor.c **** 
  99:../STM32Cube_FW_F4_V1.4.0/Drivers/STM32F4xx_HAL_Driver/Src/stm32f4xx_hal_nor.c **** /* Private typedef -----------------------------------------------------------*/
 100:../STM32Cube_FW_F4_V1.4.0/Drivers/STM32F4xx_HAL_Driver/Src/stm32f4xx_hal_nor.c **** /* Private define ------------------------------------------------------------*/ 
 101:../STM32Cube_FW_F4_V1.4.0/Drivers/STM32F4xx_HAL_Driver/Src/stm32f4xx_hal_nor.c **** /* Private macro -------------------------------------------------------------*/
 102:../STM32Cube_FW_F4_V1.4.0/Drivers/STM32F4xx_HAL_Driver/Src/stm32f4xx_hal_nor.c **** /* Private variables ---------------------------------------------------------*/
 103:../STM32Cube_FW_F4_V1.4.0/Drivers/STM32F4xx_HAL_Driver/Src/stm32f4xx_hal_nor.c **** /* Private functions ---------------------------------------------------------*/
 104:../STM32Cube_FW_F4_V1.4.0/Drivers/STM32F4xx_HAL_Driver/Src/stm32f4xx_hal_nor.c **** /* Exported functions --------------------------------------------------------*/
 105:../STM32Cube_FW_F4_V1.4.0/Drivers/STM32F4xx_HAL_Driver/Src/stm32f4xx_hal_nor.c **** /** @defgroup NOR_Exported_Functions NOR Exported Functions
 106:../STM32Cube_FW_F4_V1.4.0/Drivers/STM32F4xx_HAL_Driver/Src/stm32f4xx_hal_nor.c ****   * @{
 107:../STM32Cube_FW_F4_V1.4.0/Drivers/STM32F4xx_HAL_Driver/Src/stm32f4xx_hal_nor.c ****   */
 108:../STM32Cube_FW_F4_V1.4.0/Drivers/STM32F4xx_HAL_Driver/Src/stm32f4xx_hal_nor.c **** 
 109:../STM32Cube_FW_F4_V1.4.0/Drivers/STM32F4xx_HAL_Driver/Src/stm32f4xx_hal_nor.c **** /** @defgroup NOR_Exported_Functions_Group1 Initialization and de-initialization functions 
 110:../STM32Cube_FW_F4_V1.4.0/Drivers/STM32F4xx_HAL_Driver/Src/stm32f4xx_hal_nor.c ****   * @brief    Initialization and Configuration functions 
 111:../STM32Cube_FW_F4_V1.4.0/Drivers/STM32F4xx_HAL_Driver/Src/stm32f4xx_hal_nor.c ****   *
 112:../STM32Cube_FW_F4_V1.4.0/Drivers/STM32F4xx_HAL_Driver/Src/stm32f4xx_hal_nor.c ****   @verbatim    
 113:../STM32Cube_FW_F4_V1.4.0/Drivers/STM32F4xx_HAL_Driver/Src/stm32f4xx_hal_nor.c ****   ==============================================================================
 114:../STM32Cube_FW_F4_V1.4.0/Drivers/STM32F4xx_HAL_Driver/Src/stm32f4xx_hal_nor.c ****            ##### NOR Initialization and de_initialization functions #####
 115:../STM32Cube_FW_F4_V1.4.0/Drivers/STM32F4xx_HAL_Driver/Src/stm32f4xx_hal_nor.c ****   ==============================================================================
 116:../STM32Cube_FW_F4_V1.4.0/Drivers/STM32F4xx_HAL_Driver/Src/stm32f4xx_hal_nor.c ****   [..]  
 117:../STM32Cube_FW_F4_V1.4.0/Drivers/STM32F4xx_HAL_Driver/Src/stm32f4xx_hal_nor.c ****     This section provides functions allowing to initialize/de-initialize
 118:../STM32Cube_FW_F4_V1.4.0/Drivers/STM32F4xx_HAL_Driver/Src/stm32f4xx_hal_nor.c ****     the NOR memory
 119:../STM32Cube_FW_F4_V1.4.0/Drivers/STM32F4xx_HAL_Driver/Src/stm32f4xx_hal_nor.c ****   
 120:../STM32Cube_FW_F4_V1.4.0/Drivers/STM32F4xx_HAL_Driver/Src/stm32f4xx_hal_nor.c **** @endverbatim
 121:../STM32Cube_FW_F4_V1.4.0/Drivers/STM32F4xx_HAL_Driver/Src/stm32f4xx_hal_nor.c ****   * @{
 122:../STM32Cube_FW_F4_V1.4.0/Drivers/STM32F4xx_HAL_Driver/Src/stm32f4xx_hal_nor.c ****   */
 123:../STM32Cube_FW_F4_V1.4.0/Drivers/STM32F4xx_HAL_Driver/Src/stm32f4xx_hal_nor.c ****     
 124:../STM32Cube_FW_F4_V1.4.0/Drivers/STM32F4xx_HAL_Driver/Src/stm32f4xx_hal_nor.c **** /**
 125:../STM32Cube_FW_F4_V1.4.0/Drivers/STM32F4xx_HAL_Driver/Src/stm32f4xx_hal_nor.c ****   * @brief  Perform the NOR memory Initialization sequence
 126:../STM32Cube_FW_F4_V1.4.0/Drivers/STM32F4xx_HAL_Driver/Src/stm32f4xx_hal_nor.c ****   * @param  hnor: pointer to the NOR handle
 127:../STM32Cube_FW_F4_V1.4.0/Drivers/STM32F4xx_HAL_Driver/Src/stm32f4xx_hal_nor.c ****   * @param  Timing: pointer to NOR control timing structure 
 128:../STM32Cube_FW_F4_V1.4.0/Drivers/STM32F4xx_HAL_Driver/Src/stm32f4xx_hal_nor.c ****   * @param  ExtTiming: pointer to NOR extended mode timing structure    
 129:../STM32Cube_FW_F4_V1.4.0/Drivers/STM32F4xx_HAL_Driver/Src/stm32f4xx_hal_nor.c ****   * @retval HAL status
 130:../STM32Cube_FW_F4_V1.4.0/Drivers/STM32F4xx_HAL_Driver/Src/stm32f4xx_hal_nor.c ****   */
 131:../STM32Cube_FW_F4_V1.4.0/Drivers/STM32F4xx_HAL_Driver/Src/stm32f4xx_hal_nor.c **** HAL_StatusTypeDef HAL_NOR_Init(NOR_HandleTypeDef *hnor, FMC_NORSRAM_TimingTypeDef *Timing, FMC_NORS
 132:../STM32Cube_FW_F4_V1.4.0/Drivers/STM32F4xx_HAL_Driver/Src/stm32f4xx_hal_nor.c **** {
 133:../STM32Cube_FW_F4_V1.4.0/Drivers/STM32F4xx_HAL_Driver/Src/stm32f4xx_hal_nor.c ****   /* Check the NOR handle parameter */
 134:../STM32Cube_FW_F4_V1.4.0/Drivers/STM32F4xx_HAL_Driver/Src/stm32f4xx_hal_nor.c ****   if(hnor == NULL)
 135:../STM32Cube_FW_F4_V1.4.0/Drivers/STM32F4xx_HAL_Driver/Src/stm32f4xx_hal_nor.c ****   {
 136:../STM32Cube_FW_F4_V1.4.0/Drivers/STM32F4xx_HAL_Driver/Src/stm32f4xx_hal_nor.c ****      return HAL_ERROR;
 137:../STM32Cube_FW_F4_V1.4.0/Drivers/STM32F4xx_HAL_Driver/Src/stm32f4xx_hal_nor.c ****   }
 138:../STM32Cube_FW_F4_V1.4.0/Drivers/STM32F4xx_HAL_Driver/Src/stm32f4xx_hal_nor.c ****   
 139:../STM32Cube_FW_F4_V1.4.0/Drivers/STM32F4xx_HAL_Driver/Src/stm32f4xx_hal_nor.c ****   if(hnor->State == HAL_NOR_STATE_RESET)
 140:../STM32Cube_FW_F4_V1.4.0/Drivers/STM32F4xx_HAL_Driver/Src/stm32f4xx_hal_nor.c ****   {
 141:../STM32Cube_FW_F4_V1.4.0/Drivers/STM32F4xx_HAL_Driver/Src/stm32f4xx_hal_nor.c ****     /* Initialize the low level hardware (MSP) */
 142:../STM32Cube_FW_F4_V1.4.0/Drivers/STM32F4xx_HAL_Driver/Src/stm32f4xx_hal_nor.c ****     HAL_NOR_MspInit(hnor);
 143:../STM32Cube_FW_F4_V1.4.0/Drivers/STM32F4xx_HAL_Driver/Src/stm32f4xx_hal_nor.c ****   }
 144:../STM32Cube_FW_F4_V1.4.0/Drivers/STM32F4xx_HAL_Driver/Src/stm32f4xx_hal_nor.c **** 
 145:../STM32Cube_FW_F4_V1.4.0/Drivers/STM32F4xx_HAL_Driver/Src/stm32f4xx_hal_nor.c ****   /* Initialize NOR control Interface */
 146:../STM32Cube_FW_F4_V1.4.0/Drivers/STM32F4xx_HAL_Driver/Src/stm32f4xx_hal_nor.c ****   FMC_NORSRAM_Init(hnor->Instance, &(hnor->Init));
 147:../STM32Cube_FW_F4_V1.4.0/Drivers/STM32F4xx_HAL_Driver/Src/stm32f4xx_hal_nor.c **** 
ARM GAS  C:\cygwin\tmp\ccODIXg7.s 			page 5


 148:../STM32Cube_FW_F4_V1.4.0/Drivers/STM32F4xx_HAL_Driver/Src/stm32f4xx_hal_nor.c ****   /* Initialize NOR timing Interface */
 149:../STM32Cube_FW_F4_V1.4.0/Drivers/STM32F4xx_HAL_Driver/Src/stm32f4xx_hal_nor.c ****   FMC_NORSRAM_Timing_Init(hnor->Instance, Timing, hnor->Init.NSBank); 
 150:../STM32Cube_FW_F4_V1.4.0/Drivers/STM32F4xx_HAL_Driver/Src/stm32f4xx_hal_nor.c **** 
 151:../STM32Cube_FW_F4_V1.4.0/Drivers/STM32F4xx_HAL_Driver/Src/stm32f4xx_hal_nor.c ****   /* Initialize NOR extended mode timing Interface */
 152:../STM32Cube_FW_F4_V1.4.0/Drivers/STM32F4xx_HAL_Driver/Src/stm32f4xx_hal_nor.c ****   FMC_NORSRAM_Extended_Timing_Init(hnor->Extended, ExtTiming, hnor->Init.NSBank, hnor->Init.Extende
 153:../STM32Cube_FW_F4_V1.4.0/Drivers/STM32F4xx_HAL_Driver/Src/stm32f4xx_hal_nor.c **** 
 154:../STM32Cube_FW_F4_V1.4.0/Drivers/STM32F4xx_HAL_Driver/Src/stm32f4xx_hal_nor.c ****   /* Enable the NORSRAM device */
 155:../STM32Cube_FW_F4_V1.4.0/Drivers/STM32F4xx_HAL_Driver/Src/stm32f4xx_hal_nor.c ****   __FMC_NORSRAM_ENABLE(hnor->Instance, hnor->Init.NSBank);  
 156:../STM32Cube_FW_F4_V1.4.0/Drivers/STM32F4xx_HAL_Driver/Src/stm32f4xx_hal_nor.c **** 
 157:../STM32Cube_FW_F4_V1.4.0/Drivers/STM32F4xx_HAL_Driver/Src/stm32f4xx_hal_nor.c ****   /* Check the NOR controller state */
 158:../STM32Cube_FW_F4_V1.4.0/Drivers/STM32F4xx_HAL_Driver/Src/stm32f4xx_hal_nor.c ****   hnor->State = HAL_NOR_STATE_READY; 
 159:../STM32Cube_FW_F4_V1.4.0/Drivers/STM32F4xx_HAL_Driver/Src/stm32f4xx_hal_nor.c ****   
 160:../STM32Cube_FW_F4_V1.4.0/Drivers/STM32F4xx_HAL_Driver/Src/stm32f4xx_hal_nor.c ****   return HAL_OK;
 161:../STM32Cube_FW_F4_V1.4.0/Drivers/STM32F4xx_HAL_Driver/Src/stm32f4xx_hal_nor.c **** }
 162:../STM32Cube_FW_F4_V1.4.0/Drivers/STM32F4xx_HAL_Driver/Src/stm32f4xx_hal_nor.c **** 
 163:../STM32Cube_FW_F4_V1.4.0/Drivers/STM32F4xx_HAL_Driver/Src/stm32f4xx_hal_nor.c **** /**
 164:../STM32Cube_FW_F4_V1.4.0/Drivers/STM32F4xx_HAL_Driver/Src/stm32f4xx_hal_nor.c ****   * @brief  Perform NOR memory De-Initialization sequence
 165:../STM32Cube_FW_F4_V1.4.0/Drivers/STM32F4xx_HAL_Driver/Src/stm32f4xx_hal_nor.c ****   * @param  hnor: pointer to a NOR_HandleTypeDef structure that contains
 166:../STM32Cube_FW_F4_V1.4.0/Drivers/STM32F4xx_HAL_Driver/Src/stm32f4xx_hal_nor.c ****   *                the configuration information for NOR module.
 167:../STM32Cube_FW_F4_V1.4.0/Drivers/STM32F4xx_HAL_Driver/Src/stm32f4xx_hal_nor.c ****   * @retval HAL status
 168:../STM32Cube_FW_F4_V1.4.0/Drivers/STM32F4xx_HAL_Driver/Src/stm32f4xx_hal_nor.c ****   */
 169:../STM32Cube_FW_F4_V1.4.0/Drivers/STM32F4xx_HAL_Driver/Src/stm32f4xx_hal_nor.c **** HAL_StatusTypeDef HAL_NOR_DeInit(NOR_HandleTypeDef *hnor)  
 170:../STM32Cube_FW_F4_V1.4.0/Drivers/STM32F4xx_HAL_Driver/Src/stm32f4xx_hal_nor.c **** {
 171:../STM32Cube_FW_F4_V1.4.0/Drivers/STM32F4xx_HAL_Driver/Src/stm32f4xx_hal_nor.c ****   /* De-Initialize the low level hardware (MSP) */
 172:../STM32Cube_FW_F4_V1.4.0/Drivers/STM32F4xx_HAL_Driver/Src/stm32f4xx_hal_nor.c ****   HAL_NOR_MspDeInit(hnor);
 173:../STM32Cube_FW_F4_V1.4.0/Drivers/STM32F4xx_HAL_Driver/Src/stm32f4xx_hal_nor.c ****  
 174:../STM32Cube_FW_F4_V1.4.0/Drivers/STM32F4xx_HAL_Driver/Src/stm32f4xx_hal_nor.c ****   /* Configure the NOR registers with their reset values */
 175:../STM32Cube_FW_F4_V1.4.0/Drivers/STM32F4xx_HAL_Driver/Src/stm32f4xx_hal_nor.c ****   FMC_NORSRAM_DeInit(hnor->Instance, hnor->Extended, hnor->Init.NSBank);
 176:../STM32Cube_FW_F4_V1.4.0/Drivers/STM32F4xx_HAL_Driver/Src/stm32f4xx_hal_nor.c ****   
 177:../STM32Cube_FW_F4_V1.4.0/Drivers/STM32F4xx_HAL_Driver/Src/stm32f4xx_hal_nor.c ****   /* Update the NOR controller state */
 178:../STM32Cube_FW_F4_V1.4.0/Drivers/STM32F4xx_HAL_Driver/Src/stm32f4xx_hal_nor.c ****   hnor->State = HAL_NOR_STATE_RESET;
 179:../STM32Cube_FW_F4_V1.4.0/Drivers/STM32F4xx_HAL_Driver/Src/stm32f4xx_hal_nor.c **** 
 180:../STM32Cube_FW_F4_V1.4.0/Drivers/STM32F4xx_HAL_Driver/Src/stm32f4xx_hal_nor.c ****   /* Release Lock */
 181:../STM32Cube_FW_F4_V1.4.0/Drivers/STM32F4xx_HAL_Driver/Src/stm32f4xx_hal_nor.c ****   __HAL_UNLOCK(hnor);
 182:../STM32Cube_FW_F4_V1.4.0/Drivers/STM32F4xx_HAL_Driver/Src/stm32f4xx_hal_nor.c **** 
 183:../STM32Cube_FW_F4_V1.4.0/Drivers/STM32F4xx_HAL_Driver/Src/stm32f4xx_hal_nor.c ****   return HAL_OK;
 184:../STM32Cube_FW_F4_V1.4.0/Drivers/STM32F4xx_HAL_Driver/Src/stm32f4xx_hal_nor.c **** }
 185:../STM32Cube_FW_F4_V1.4.0/Drivers/STM32F4xx_HAL_Driver/Src/stm32f4xx_hal_nor.c **** 
 186:../STM32Cube_FW_F4_V1.4.0/Drivers/STM32F4xx_HAL_Driver/Src/stm32f4xx_hal_nor.c **** /**
 187:../STM32Cube_FW_F4_V1.4.0/Drivers/STM32F4xx_HAL_Driver/Src/stm32f4xx_hal_nor.c ****   * @brief  NOR MSP Init
 188:../STM32Cube_FW_F4_V1.4.0/Drivers/STM32F4xx_HAL_Driver/Src/stm32f4xx_hal_nor.c ****   * @param  hnor: pointer to a NOR_HandleTypeDef structure that contains
 189:../STM32Cube_FW_F4_V1.4.0/Drivers/STM32F4xx_HAL_Driver/Src/stm32f4xx_hal_nor.c ****   *                the configuration information for NOR module.
 190:../STM32Cube_FW_F4_V1.4.0/Drivers/STM32F4xx_HAL_Driver/Src/stm32f4xx_hal_nor.c ****   * @retval None
 191:../STM32Cube_FW_F4_V1.4.0/Drivers/STM32F4xx_HAL_Driver/Src/stm32f4xx_hal_nor.c ****   */
 192:../STM32Cube_FW_F4_V1.4.0/Drivers/STM32F4xx_HAL_Driver/Src/stm32f4xx_hal_nor.c **** __weak void HAL_NOR_MspInit(NOR_HandleTypeDef *hnor)
 193:../STM32Cube_FW_F4_V1.4.0/Drivers/STM32F4xx_HAL_Driver/Src/stm32f4xx_hal_nor.c **** {
  82              		.loc 1 193 0
  83              		.cfi_startproc
  84              		@ args = 0, pretend = 0, frame = 0
  85              		@ frame_needed = 0, uses_anonymous_args = 0
  86              		@ link register save eliminated.
  87              	.LVL0:
  88 0000 7047     		bx	lr	@
  89              		.cfi_endproc
  90              	.LFE125:
  91              		.size	HAL_NOR_MspInit, .-HAL_NOR_MspInit
  92              		.section	.text.HAL_NOR_Init,"ax",%progbits
ARM GAS  C:\cygwin\tmp\ccODIXg7.s 			page 6


  93              		.align	1
  94              		.global	HAL_NOR_Init
  95              		.thumb
  96              		.thumb_func
  97              		.type	HAL_NOR_Init, %function
  98              	HAL_NOR_Init:
  99              	.LFB123:
 132:../STM32Cube_FW_F4_V1.4.0/Drivers/STM32F4xx_HAL_Driver/Src/stm32f4xx_hal_nor.c ****   /* Check the NOR handle parameter */
 100              		.loc 1 132 0
 101              		.cfi_startproc
 102              		@ args = 0, pretend = 0, frame = 0
 103              		@ frame_needed = 0, uses_anonymous_args = 0
 104              	.LVL1:
 132:../STM32Cube_FW_F4_V1.4.0/Drivers/STM32F4xx_HAL_Driver/Src/stm32f4xx_hal_nor.c ****   /* Check the NOR handle parameter */
 105              		.loc 1 132 0
 106 0000 70B5     		push	{r4, r5, r6, lr}	@
 107              		.cfi_def_cfa_offset 16
 108              		.cfi_offset 4, -16
 109              		.cfi_offset 5, -12
 110              		.cfi_offset 6, -8
 111              		.cfi_offset 14, -4
 132:../STM32Cube_FW_F4_V1.4.0/Drivers/STM32F4xx_HAL_Driver/Src/stm32f4xx_hal_nor.c ****   /* Check the NOR handle parameter */
 112              		.loc 1 132 0
 113 0002 0E46     		mov	r6, r1	@ Timing, Timing
 114 0004 1546     		mov	r5, r2	@ ExtTiming, ExtTiming
 134:../STM32Cube_FW_F4_V1.4.0/Drivers/STM32F4xx_HAL_Driver/Src/stm32f4xx_hal_nor.c ****   {
 115              		.loc 1 134 0
 116 0006 0446     		mov	r4, r0	@ hnor, hnor
 117 0008 08B3     		cbz	r0, .L5	@ hnor,
 139:../STM32Cube_FW_F4_V1.4.0/Drivers/STM32F4xx_HAL_Driver/Src/stm32f4xx_hal_nor.c ****   {
 118              		.loc 1 139 0
 119 000a 90F83D30 		ldrb	r3, [r0, #61]	@ zero_extendqisi2	@ hnor_4(D)->State, hnor_4(D)->State
 120 000e 0BB9     		cbnz	r3, .L4	@ hnor_4(D)->State,
 142:../STM32Cube_FW_F4_V1.4.0/Drivers/STM32F4xx_HAL_Driver/Src/stm32f4xx_hal_nor.c ****   }
 121              		.loc 1 142 0
 122 0010 FFF7FEFF 		bl	HAL_NOR_MspInit	@
 123              	.LVL2:
 124              	.L4:
 146:../STM32Cube_FW_F4_V1.4.0/Drivers/STM32F4xx_HAL_Driver/Src/stm32f4xx_hal_nor.c **** 
 125              		.loc 1 146 0
 126 0014 04F10801 		add	r1, r4, #8	@, hnor,
 127 0018 2068     		ldr	r0, [r4]	@, hnor_4(D)->Instance
 128 001a FFF7FEFF 		bl	FSMC_NORSRAM_Init	@
 129              	.LVL3:
 149:../STM32Cube_FW_F4_V1.4.0/Drivers/STM32F4xx_HAL_Driver/Src/stm32f4xx_hal_nor.c **** 
 130              		.loc 1 149 0
 131 001e 3146     		mov	r1, r6	@, Timing
 132 0020 A268     		ldr	r2, [r4, #8]	@, hnor_4(D)->Init.NSBank
 133 0022 2068     		ldr	r0, [r4]	@, hnor_4(D)->Instance
 134 0024 FFF7FEFF 		bl	FSMC_NORSRAM_Timing_Init	@
 135              	.LVL4:
 152:../STM32Cube_FW_F4_V1.4.0/Drivers/STM32F4xx_HAL_Driver/Src/stm32f4xx_hal_nor.c **** 
 136              		.loc 1 152 0
 137 0028 2946     		mov	r1, r5	@, ExtTiming
 138 002a A268     		ldr	r2, [r4, #8]	@, hnor_4(D)->Init.NSBank
 139 002c 236B     		ldr	r3, [r4, #48]	@, hnor_4(D)->Init.ExtendedMode
 140 002e 6068     		ldr	r0, [r4, #4]	@, hnor_4(D)->Extended
ARM GAS  C:\cygwin\tmp\ccODIXg7.s 			page 7


 141 0030 FFF7FEFF 		bl	FSMC_NORSRAM_Extended_Timing_Init	@
 142              	.LVL5:
 143 0034 A168     		ldr	r1, [r4, #8]	@ hnor_4(D)->Init.NSBank, hnor_4(D)->Init.NSBank
 144 0036 2268     		ldr	r2, [r4]	@ hnor_4(D)->Instance, hnor_4(D)->Instance
 155:../STM32Cube_FW_F4_V1.4.0/Drivers/STM32F4xx_HAL_Driver/Src/stm32f4xx_hal_nor.c **** 
 145              		.loc 1 155 0
 146 0038 52F82130 		ldr	r3, [r2, r1, lsl #2]	@ D.7753, MEM[(struct FSMC_Bank1_TypeDef *)_26]
 147 003c 43F00103 		orr	r3, r3, #1	@ D.7753, D.7753,
 148 0040 42F82130 		str	r3, [r2, r1, lsl #2]	@ D.7753, MEM[(struct FSMC_Bank1_TypeDef *)_26]
 158:../STM32Cube_FW_F4_V1.4.0/Drivers/STM32F4xx_HAL_Driver/Src/stm32f4xx_hal_nor.c ****   
 149              		.loc 1 158 0
 150 0044 0123     		movs	r3, #1	@ tmp136,
 151 0046 84F83D30 		strb	r3, [r4, #61]	@ tmp136, hnor_4(D)->State
 160:../STM32Cube_FW_F4_V1.4.0/Drivers/STM32F4xx_HAL_Driver/Src/stm32f4xx_hal_nor.c **** }
 152              		.loc 1 160 0
 153 004a 0020     		movs	r0, #0	@ D.7749,
 154 004c 70BD     		pop	{r4, r5, r6, pc}	@
 155              	.LVL6:
 156              	.L5:
 136:../STM32Cube_FW_F4_V1.4.0/Drivers/STM32F4xx_HAL_Driver/Src/stm32f4xx_hal_nor.c ****   }
 157              		.loc 1 136 0
 158 004e 0120     		movs	r0, #1	@ D.7749,
 159              	.LVL7:
 161:../STM32Cube_FW_F4_V1.4.0/Drivers/STM32F4xx_HAL_Driver/Src/stm32f4xx_hal_nor.c **** 
 160              		.loc 1 161 0
 161 0050 70BD     		pop	{r4, r5, r6, pc}	@
 162              		.cfi_endproc
 163              	.LFE123:
 164              		.size	HAL_NOR_Init, .-HAL_NOR_Init
 165              		.section	.text.HAL_NOR_MspDeInit,"ax",%progbits
 166              		.align	1
 167              		.weak	HAL_NOR_MspDeInit
 168              		.thumb
 169              		.thumb_func
 170              		.type	HAL_NOR_MspDeInit, %function
 171              	HAL_NOR_MspDeInit:
 172              	.LFB126:
 194:../STM32Cube_FW_F4_V1.4.0/Drivers/STM32F4xx_HAL_Driver/Src/stm32f4xx_hal_nor.c ****   /* NOTE : This function Should not be modified, when the callback is needed,
 195:../STM32Cube_FW_F4_V1.4.0/Drivers/STM32F4xx_HAL_Driver/Src/stm32f4xx_hal_nor.c ****             the HAL_NOR_MspInit could be implemented in the user file
 196:../STM32Cube_FW_F4_V1.4.0/Drivers/STM32F4xx_HAL_Driver/Src/stm32f4xx_hal_nor.c ****    */ 
 197:../STM32Cube_FW_F4_V1.4.0/Drivers/STM32F4xx_HAL_Driver/Src/stm32f4xx_hal_nor.c **** }
 198:../STM32Cube_FW_F4_V1.4.0/Drivers/STM32F4xx_HAL_Driver/Src/stm32f4xx_hal_nor.c **** 
 199:../STM32Cube_FW_F4_V1.4.0/Drivers/STM32F4xx_HAL_Driver/Src/stm32f4xx_hal_nor.c **** /**
 200:../STM32Cube_FW_F4_V1.4.0/Drivers/STM32F4xx_HAL_Driver/Src/stm32f4xx_hal_nor.c ****   * @brief  NOR MSP DeInit
 201:../STM32Cube_FW_F4_V1.4.0/Drivers/STM32F4xx_HAL_Driver/Src/stm32f4xx_hal_nor.c ****   * @param  hnor: pointer to a NOR_HandleTypeDef structure that contains
 202:../STM32Cube_FW_F4_V1.4.0/Drivers/STM32F4xx_HAL_Driver/Src/stm32f4xx_hal_nor.c ****   *                the configuration information for NOR module.
 203:../STM32Cube_FW_F4_V1.4.0/Drivers/STM32F4xx_HAL_Driver/Src/stm32f4xx_hal_nor.c ****   * @retval None
 204:../STM32Cube_FW_F4_V1.4.0/Drivers/STM32F4xx_HAL_Driver/Src/stm32f4xx_hal_nor.c ****   */
 205:../STM32Cube_FW_F4_V1.4.0/Drivers/STM32F4xx_HAL_Driver/Src/stm32f4xx_hal_nor.c **** __weak void HAL_NOR_MspDeInit(NOR_HandleTypeDef *hnor)
 206:../STM32Cube_FW_F4_V1.4.0/Drivers/STM32F4xx_HAL_Driver/Src/stm32f4xx_hal_nor.c **** {
 173              		.loc 1 206 0
 174              		.cfi_startproc
 175              		@ args = 0, pretend = 0, frame = 0
 176              		@ frame_needed = 0, uses_anonymous_args = 0
 177              		@ link register save eliminated.
 178              	.LVL8:
 179 0000 7047     		bx	lr	@
ARM GAS  C:\cygwin\tmp\ccODIXg7.s 			page 8


 180              		.cfi_endproc
 181              	.LFE126:
 182              		.size	HAL_NOR_MspDeInit, .-HAL_NOR_MspDeInit
 183              		.section	.text.HAL_NOR_DeInit,"ax",%progbits
 184              		.align	1
 185              		.global	HAL_NOR_DeInit
 186              		.thumb
 187              		.thumb_func
 188              		.type	HAL_NOR_DeInit, %function
 189              	HAL_NOR_DeInit:
 190              	.LFB124:
 170:../STM32Cube_FW_F4_V1.4.0/Drivers/STM32F4xx_HAL_Driver/Src/stm32f4xx_hal_nor.c ****   /* De-Initialize the low level hardware (MSP) */
 191              		.loc 1 170 0
 192              		.cfi_startproc
 193              		@ args = 0, pretend = 0, frame = 0
 194              		@ frame_needed = 0, uses_anonymous_args = 0
 195              	.LVL9:
 170:../STM32Cube_FW_F4_V1.4.0/Drivers/STM32F4xx_HAL_Driver/Src/stm32f4xx_hal_nor.c ****   /* De-Initialize the low level hardware (MSP) */
 196              		.loc 1 170 0
 197 0000 10B5     		push	{r4, lr}	@
 198              		.cfi_def_cfa_offset 8
 199              		.cfi_offset 4, -8
 200              		.cfi_offset 14, -4
 170:../STM32Cube_FW_F4_V1.4.0/Drivers/STM32F4xx_HAL_Driver/Src/stm32f4xx_hal_nor.c ****   /* De-Initialize the low level hardware (MSP) */
 201              		.loc 1 170 0
 202 0002 0446     		mov	r4, r0	@ hnor, hnor
 172:../STM32Cube_FW_F4_V1.4.0/Drivers/STM32F4xx_HAL_Driver/Src/stm32f4xx_hal_nor.c ****  
 203              		.loc 1 172 0
 204 0004 FFF7FEFF 		bl	HAL_NOR_MspDeInit	@
 205              	.LVL10:
 175:../STM32Cube_FW_F4_V1.4.0/Drivers/STM32F4xx_HAL_Driver/Src/stm32f4xx_hal_nor.c ****   
 206              		.loc 1 175 0
 207 0008 94E80700 		ldmia	r4, {r0, r1, r2}	@ hnor,,,
 208 000c FFF7FEFF 		bl	FSMC_NORSRAM_DeInit	@
 209              	.LVL11:
 178:../STM32Cube_FW_F4_V1.4.0/Drivers/STM32F4xx_HAL_Driver/Src/stm32f4xx_hal_nor.c **** 
 210              		.loc 1 178 0
 211 0010 0020     		movs	r0, #0	@ tmp115,
 212 0012 84F83D00 		strb	r0, [r4, #61]	@ tmp115, hnor_2(D)->State
 181:../STM32Cube_FW_F4_V1.4.0/Drivers/STM32F4xx_HAL_Driver/Src/stm32f4xx_hal_nor.c **** 
 213              		.loc 1 181 0
 214 0016 84F83C00 		strb	r0, [r4, #60]	@ tmp115, hnor_2(D)->Lock
 184:../STM32Cube_FW_F4_V1.4.0/Drivers/STM32F4xx_HAL_Driver/Src/stm32f4xx_hal_nor.c **** 
 215              		.loc 1 184 0
 216 001a 10BD     		pop	{r4, pc}	@
 217              		.cfi_endproc
 218              	.LFE124:
 219              		.size	HAL_NOR_DeInit, .-HAL_NOR_DeInit
 220              		.section	.text.HAL_NOR_MspWait,"ax",%progbits
 221              		.align	1
 222              		.weak	HAL_NOR_MspWait
 223              		.thumb
 224              		.thumb_func
 225              		.type	HAL_NOR_MspWait, %function
 226              	HAL_NOR_MspWait:
 227              	.LFB127:
 207:../STM32Cube_FW_F4_V1.4.0/Drivers/STM32F4xx_HAL_Driver/Src/stm32f4xx_hal_nor.c ****   /* NOTE : This function Should not be modified, when the callback is needed,
ARM GAS  C:\cygwin\tmp\ccODIXg7.s 			page 9


 208:../STM32Cube_FW_F4_V1.4.0/Drivers/STM32F4xx_HAL_Driver/Src/stm32f4xx_hal_nor.c ****             the HAL_NOR_MspDeInit could be implemented in the user file
 209:../STM32Cube_FW_F4_V1.4.0/Drivers/STM32F4xx_HAL_Driver/Src/stm32f4xx_hal_nor.c ****    */ 
 210:../STM32Cube_FW_F4_V1.4.0/Drivers/STM32F4xx_HAL_Driver/Src/stm32f4xx_hal_nor.c **** }
 211:../STM32Cube_FW_F4_V1.4.0/Drivers/STM32F4xx_HAL_Driver/Src/stm32f4xx_hal_nor.c **** 
 212:../STM32Cube_FW_F4_V1.4.0/Drivers/STM32F4xx_HAL_Driver/Src/stm32f4xx_hal_nor.c **** /**
 213:../STM32Cube_FW_F4_V1.4.0/Drivers/STM32F4xx_HAL_Driver/Src/stm32f4xx_hal_nor.c ****   * @brief  NOR BSP Wait for Ready/Busy signal
 214:../STM32Cube_FW_F4_V1.4.0/Drivers/STM32F4xx_HAL_Driver/Src/stm32f4xx_hal_nor.c ****   * @param  hnor: pointer to a NOR_HandleTypeDef structure that contains
 215:../STM32Cube_FW_F4_V1.4.0/Drivers/STM32F4xx_HAL_Driver/Src/stm32f4xx_hal_nor.c ****   *                the configuration information for NOR module.
 216:../STM32Cube_FW_F4_V1.4.0/Drivers/STM32F4xx_HAL_Driver/Src/stm32f4xx_hal_nor.c ****   * @param  Timeout: Maximum timeout value
 217:../STM32Cube_FW_F4_V1.4.0/Drivers/STM32F4xx_HAL_Driver/Src/stm32f4xx_hal_nor.c ****   * @retval None
 218:../STM32Cube_FW_F4_V1.4.0/Drivers/STM32F4xx_HAL_Driver/Src/stm32f4xx_hal_nor.c ****   */
 219:../STM32Cube_FW_F4_V1.4.0/Drivers/STM32F4xx_HAL_Driver/Src/stm32f4xx_hal_nor.c **** __weak void HAL_NOR_MspWait(NOR_HandleTypeDef *hnor, uint32_t Timeout)
 220:../STM32Cube_FW_F4_V1.4.0/Drivers/STM32F4xx_HAL_Driver/Src/stm32f4xx_hal_nor.c **** {
 228              		.loc 1 220 0
 229              		.cfi_startproc
 230              		@ args = 0, pretend = 0, frame = 0
 231              		@ frame_needed = 0, uses_anonymous_args = 0
 232              		@ link register save eliminated.
 233              	.LVL12:
 234 0000 7047     		bx	lr	@
 235              		.cfi_endproc
 236              	.LFE127:
 237              		.size	HAL_NOR_MspWait, .-HAL_NOR_MspWait
 238              		.section	.text.HAL_NOR_Read_ID,"ax",%progbits
 239              		.align	1
 240              		.global	HAL_NOR_Read_ID
 241              		.thumb
 242              		.thumb_func
 243              		.type	HAL_NOR_Read_ID, %function
 244              	HAL_NOR_Read_ID:
 245              	.LFB128:
 221:../STM32Cube_FW_F4_V1.4.0/Drivers/STM32F4xx_HAL_Driver/Src/stm32f4xx_hal_nor.c ****   /* NOTE : This function Should not be modified, when the callback is needed,
 222:../STM32Cube_FW_F4_V1.4.0/Drivers/STM32F4xx_HAL_Driver/Src/stm32f4xx_hal_nor.c ****             the HAL_NOR_BspWait could be implemented in the user file
 223:../STM32Cube_FW_F4_V1.4.0/Drivers/STM32F4xx_HAL_Driver/Src/stm32f4xx_hal_nor.c ****    */ 
 224:../STM32Cube_FW_F4_V1.4.0/Drivers/STM32F4xx_HAL_Driver/Src/stm32f4xx_hal_nor.c **** }
 225:../STM32Cube_FW_F4_V1.4.0/Drivers/STM32F4xx_HAL_Driver/Src/stm32f4xx_hal_nor.c ****   
 226:../STM32Cube_FW_F4_V1.4.0/Drivers/STM32F4xx_HAL_Driver/Src/stm32f4xx_hal_nor.c **** /**
 227:../STM32Cube_FW_F4_V1.4.0/Drivers/STM32F4xx_HAL_Driver/Src/stm32f4xx_hal_nor.c ****   * @}
 228:../STM32Cube_FW_F4_V1.4.0/Drivers/STM32F4xx_HAL_Driver/Src/stm32f4xx_hal_nor.c ****   */
 229:../STM32Cube_FW_F4_V1.4.0/Drivers/STM32F4xx_HAL_Driver/Src/stm32f4xx_hal_nor.c **** 
 230:../STM32Cube_FW_F4_V1.4.0/Drivers/STM32F4xx_HAL_Driver/Src/stm32f4xx_hal_nor.c **** /** @defgroup NOR_Exported_Functions_Group2 Input and Output functions 
 231:../STM32Cube_FW_F4_V1.4.0/Drivers/STM32F4xx_HAL_Driver/Src/stm32f4xx_hal_nor.c ****   * @brief    Input Output and memory control functions 
 232:../STM32Cube_FW_F4_V1.4.0/Drivers/STM32F4xx_HAL_Driver/Src/stm32f4xx_hal_nor.c ****   *
 233:../STM32Cube_FW_F4_V1.4.0/Drivers/STM32F4xx_HAL_Driver/Src/stm32f4xx_hal_nor.c ****   @verbatim    
 234:../STM32Cube_FW_F4_V1.4.0/Drivers/STM32F4xx_HAL_Driver/Src/stm32f4xx_hal_nor.c ****   ==============================================================================
 235:../STM32Cube_FW_F4_V1.4.0/Drivers/STM32F4xx_HAL_Driver/Src/stm32f4xx_hal_nor.c ****                 ##### NOR Input and Output functions #####
 236:../STM32Cube_FW_F4_V1.4.0/Drivers/STM32F4xx_HAL_Driver/Src/stm32f4xx_hal_nor.c ****   ==============================================================================
 237:../STM32Cube_FW_F4_V1.4.0/Drivers/STM32F4xx_HAL_Driver/Src/stm32f4xx_hal_nor.c ****   [..]  
 238:../STM32Cube_FW_F4_V1.4.0/Drivers/STM32F4xx_HAL_Driver/Src/stm32f4xx_hal_nor.c ****     This section provides functions allowing to use and control the NOR memory
 239:../STM32Cube_FW_F4_V1.4.0/Drivers/STM32F4xx_HAL_Driver/Src/stm32f4xx_hal_nor.c ****   
 240:../STM32Cube_FW_F4_V1.4.0/Drivers/STM32F4xx_HAL_Driver/Src/stm32f4xx_hal_nor.c **** @endverbatim
 241:../STM32Cube_FW_F4_V1.4.0/Drivers/STM32F4xx_HAL_Driver/Src/stm32f4xx_hal_nor.c ****   * @{
 242:../STM32Cube_FW_F4_V1.4.0/Drivers/STM32F4xx_HAL_Driver/Src/stm32f4xx_hal_nor.c ****   */
 243:../STM32Cube_FW_F4_V1.4.0/Drivers/STM32F4xx_HAL_Driver/Src/stm32f4xx_hal_nor.c ****   
 244:../STM32Cube_FW_F4_V1.4.0/Drivers/STM32F4xx_HAL_Driver/Src/stm32f4xx_hal_nor.c **** /**
 245:../STM32Cube_FW_F4_V1.4.0/Drivers/STM32F4xx_HAL_Driver/Src/stm32f4xx_hal_nor.c ****   * @brief  Read NOR flash IDs
 246:../STM32Cube_FW_F4_V1.4.0/Drivers/STM32F4xx_HAL_Driver/Src/stm32f4xx_hal_nor.c ****   * @param  hnor: pointer to the NOR handle
ARM GAS  C:\cygwin\tmp\ccODIXg7.s 			page 10


 247:../STM32Cube_FW_F4_V1.4.0/Drivers/STM32F4xx_HAL_Driver/Src/stm32f4xx_hal_nor.c ****   * @param  pNOR_ID : pointer to NOR ID structure
 248:../STM32Cube_FW_F4_V1.4.0/Drivers/STM32F4xx_HAL_Driver/Src/stm32f4xx_hal_nor.c ****   * @retval HAL status
 249:../STM32Cube_FW_F4_V1.4.0/Drivers/STM32F4xx_HAL_Driver/Src/stm32f4xx_hal_nor.c ****   */
 250:../STM32Cube_FW_F4_V1.4.0/Drivers/STM32F4xx_HAL_Driver/Src/stm32f4xx_hal_nor.c **** HAL_StatusTypeDef HAL_NOR_Read_ID(NOR_HandleTypeDef *hnor, NOR_IDTypeDef *pNOR_ID)
 251:../STM32Cube_FW_F4_V1.4.0/Drivers/STM32F4xx_HAL_Driver/Src/stm32f4xx_hal_nor.c **** {
 246              		.loc 1 251 0
 247              		.cfi_startproc
 248              		@ args = 0, pretend = 0, frame = 0
 249              		@ frame_needed = 0, uses_anonymous_args = 0
 250              		@ link register save eliminated.
 251              	.LVL13:
 252:../STM32Cube_FW_F4_V1.4.0/Drivers/STM32F4xx_HAL_Driver/Src/stm32f4xx_hal_nor.c ****   uint32_t deviceAddress = 0;
 253:../STM32Cube_FW_F4_V1.4.0/Drivers/STM32F4xx_HAL_Driver/Src/stm32f4xx_hal_nor.c ****   
 254:../STM32Cube_FW_F4_V1.4.0/Drivers/STM32F4xx_HAL_Driver/Src/stm32f4xx_hal_nor.c ****   /* Process Locked */
 255:../STM32Cube_FW_F4_V1.4.0/Drivers/STM32F4xx_HAL_Driver/Src/stm32f4xx_hal_nor.c ****   __HAL_LOCK(hnor);
 252              		.loc 1 255 0
 253 0000 90F83C30 		ldrb	r3, [r0, #60]	@ zero_extendqisi2	@ hnor_5(D)->Lock, hnor_5(D)->Lock
 254 0004 012B     		cmp	r3, #1	@ hnor_5(D)->Lock,
 255 0006 01D1     		bne	.L11	@,
 256              	.L13:
 257 0008 0220     		movs	r0, #2	@ D.7767,
 258              	.LVL14:
 259 000a 7047     		bx	lr	@
 260              	.LVL15:
 261              	.L11:
 262              		.loc 1 255 0 is_stmt 0 discriminator 2
 263 000c 0123     		movs	r3, #1	@ tmp134,
 264 000e 80F83C30 		strb	r3, [r0, #60]	@ tmp134, hnor_5(D)->Lock
 256:../STM32Cube_FW_F4_V1.4.0/Drivers/STM32F4xx_HAL_Driver/Src/stm32f4xx_hal_nor.c ****   
 257:../STM32Cube_FW_F4_V1.4.0/Drivers/STM32F4xx_HAL_Driver/Src/stm32f4xx_hal_nor.c ****   /* Check the NOR controller state */
 258:../STM32Cube_FW_F4_V1.4.0/Drivers/STM32F4xx_HAL_Driver/Src/stm32f4xx_hal_nor.c ****   if(hnor->State == HAL_NOR_STATE_BUSY)
 265              		.loc 1 258 0 is_stmt 1 discriminator 2
 266 0012 90F83D30 		ldrb	r3, [r0, #61]	@ zero_extendqisi2	@ hnor_5(D)->State, hnor_5(D)->State
 267 0016 022B     		cmp	r3, #2	@ hnor_5(D)->State,
 268 0018 F6D0     		beq	.L13	@,
 259:../STM32Cube_FW_F4_V1.4.0/Drivers/STM32F4xx_HAL_Driver/Src/stm32f4xx_hal_nor.c ****   {
 260:../STM32Cube_FW_F4_V1.4.0/Drivers/STM32F4xx_HAL_Driver/Src/stm32f4xx_hal_nor.c ****      return HAL_BUSY;
 261:../STM32Cube_FW_F4_V1.4.0/Drivers/STM32F4xx_HAL_Driver/Src/stm32f4xx_hal_nor.c ****   }
 262:../STM32Cube_FW_F4_V1.4.0/Drivers/STM32F4xx_HAL_Driver/Src/stm32f4xx_hal_nor.c ****   
 263:../STM32Cube_FW_F4_V1.4.0/Drivers/STM32F4xx_HAL_Driver/Src/stm32f4xx_hal_nor.c ****   /* Select the NOR device address */
 264:../STM32Cube_FW_F4_V1.4.0/Drivers/STM32F4xx_HAL_Driver/Src/stm32f4xx_hal_nor.c ****   if (hnor->Init.NSBank == FMC_NORSRAM_BANK1)
 269              		.loc 1 264 0
 270 001a 8368     		ldr	r3, [r0, #8]	@ D.7770, hnor_5(D)->Init.NSBank
 271 001c 43B1     		cbz	r3, .L15	@ D.7770,
 265:../STM32Cube_FW_F4_V1.4.0/Drivers/STM32F4xx_HAL_Driver/Src/stm32f4xx_hal_nor.c ****   {
 266:../STM32Cube_FW_F4_V1.4.0/Drivers/STM32F4xx_HAL_Driver/Src/stm32f4xx_hal_nor.c ****     deviceAddress = NOR_MEMORY_ADRESS1;
 267:../STM32Cube_FW_F4_V1.4.0/Drivers/STM32F4xx_HAL_Driver/Src/stm32f4xx_hal_nor.c ****   }
 268:../STM32Cube_FW_F4_V1.4.0/Drivers/STM32F4xx_HAL_Driver/Src/stm32f4xx_hal_nor.c ****   else if (hnor->Init.NSBank == FMC_NORSRAM_BANK2)
 272              		.loc 1 268 0
 273 001e 022B     		cmp	r3, #2	@ D.7770,
 274 0020 09D0     		beq	.L16	@,
 269:../STM32Cube_FW_F4_V1.4.0/Drivers/STM32F4xx_HAL_Driver/Src/stm32f4xx_hal_nor.c ****   {
 270:../STM32Cube_FW_F4_V1.4.0/Drivers/STM32F4xx_HAL_Driver/Src/stm32f4xx_hal_nor.c ****     deviceAddress = NOR_MEMORY_ADRESS2;
 271:../STM32Cube_FW_F4_V1.4.0/Drivers/STM32F4xx_HAL_Driver/Src/stm32f4xx_hal_nor.c ****   }
 272:../STM32Cube_FW_F4_V1.4.0/Drivers/STM32F4xx_HAL_Driver/Src/stm32f4xx_hal_nor.c ****   else if (hnor->Init.NSBank == FMC_NORSRAM_BANK3)
 273:../STM32Cube_FW_F4_V1.4.0/Drivers/STM32F4xx_HAL_Driver/Src/stm32f4xx_hal_nor.c ****   {
 274:../STM32Cube_FW_F4_V1.4.0/Drivers/STM32F4xx_HAL_Driver/Src/stm32f4xx_hal_nor.c ****     deviceAddress = NOR_MEMORY_ADRESS3;
ARM GAS  C:\cygwin\tmp\ccODIXg7.s 			page 11


 275:../STM32Cube_FW_F4_V1.4.0/Drivers/STM32F4xx_HAL_Driver/Src/stm32f4xx_hal_nor.c ****   }
 276:../STM32Cube_FW_F4_V1.4.0/Drivers/STM32F4xx_HAL_Driver/Src/stm32f4xx_hal_nor.c ****   else /* FMC_NORSRAM_BANK4 */
 277:../STM32Cube_FW_F4_V1.4.0/Drivers/STM32F4xx_HAL_Driver/Src/stm32f4xx_hal_nor.c ****   {
 278:../STM32Cube_FW_F4_V1.4.0/Drivers/STM32F4xx_HAL_Driver/Src/stm32f4xx_hal_nor.c ****     deviceAddress = NOR_MEMORY_ADRESS4;
 275              		.loc 1 278 0
 276 0022 042B     		cmp	r3, #4	@ D.7770,
 277 0024 0CBF     		ite	eq
 278 0026 4FF0D043 		moveq	r3, #1744830464	@ deviceAddress,
 279 002a 4FF0D843 		movne	r3, #1811939328	@ deviceAddress,
 280 002e 04E0     		b	.L14	@
 281              	.L15:
 266:../STM32Cube_FW_F4_V1.4.0/Drivers/STM32F4xx_HAL_Driver/Src/stm32f4xx_hal_nor.c ****   }
 282              		.loc 1 266 0
 283 0030 4FF0C043 		mov	r3, #1610612736	@ deviceAddress,
 284 0034 01E0     		b	.L14	@
 285              	.L16:
 270:../STM32Cube_FW_F4_V1.4.0/Drivers/STM32F4xx_HAL_Driver/Src/stm32f4xx_hal_nor.c ****   }
 286              		.loc 1 270 0
 287 0036 4FF0C843 		mov	r3, #1677721600	@ deviceAddress,
 288              	.L14:
 289              	.LVL16:
 279:../STM32Cube_FW_F4_V1.4.0/Drivers/STM32F4xx_HAL_Driver/Src/stm32f4xx_hal_nor.c ****   }  
 280:../STM32Cube_FW_F4_V1.4.0/Drivers/STM32F4xx_HAL_Driver/Src/stm32f4xx_hal_nor.c ****     
 281:../STM32Cube_FW_F4_V1.4.0/Drivers/STM32F4xx_HAL_Driver/Src/stm32f4xx_hal_nor.c ****   /* Update the NOR controller state */
 282:../STM32Cube_FW_F4_V1.4.0/Drivers/STM32F4xx_HAL_Driver/Src/stm32f4xx_hal_nor.c ****   hnor->State = HAL_NOR_STATE_BUSY;
 290              		.loc 1 282 0
 291 003a 0222     		movs	r2, #2	@ tmp139,
 292 003c 80F83D20 		strb	r2, [r0, #61]	@ tmp139, hnor_5(D)->State
 283:../STM32Cube_FW_F4_V1.4.0/Drivers/STM32F4xx_HAL_Driver/Src/stm32f4xx_hal_nor.c ****   
 284:../STM32Cube_FW_F4_V1.4.0/Drivers/STM32F4xx_HAL_Driver/Src/stm32f4xx_hal_nor.c ****   /* Send read ID command */
 285:../STM32Cube_FW_F4_V1.4.0/Drivers/STM32F4xx_HAL_Driver/Src/stm32f4xx_hal_nor.c ****   NOR_WRITE(NOR_ADDR_SHIFT(deviceAddress, NOR_MEMORY_8B, 0x0555), 0x00AA);
 293              		.loc 1 285 0
 294 0040 AA22     		movs	r2, #170	@ tmp142,
 295 0042 A3F8AA2A 		strh	r2, [r3, #2730]	@ movhi	@ tmp142, *_12
 286:../STM32Cube_FW_F4_V1.4.0/Drivers/STM32F4xx_HAL_Driver/Src/stm32f4xx_hal_nor.c ****   NOR_WRITE(NOR_ADDR_SHIFT(deviceAddress, NOR_MEMORY_8B, 0x02AA), 0x0055);
 296              		.loc 1 286 0
 297 0046 5522     		movs	r2, #85	@ tmp144,
 298 0048 A3F85425 		strh	r2, [r3, #1364]	@ movhi	@ tmp144, *_15
 287:../STM32Cube_FW_F4_V1.4.0/Drivers/STM32F4xx_HAL_Driver/Src/stm32f4xx_hal_nor.c ****   NOR_WRITE(NOR_ADDR_SHIFT(deviceAddress, NOR_MEMORY_8B, 0x0555), 0x0090);
 299              		.loc 1 287 0
 300 004c 9022     		movs	r2, #144	@ tmp146,
 301 004e A3F8AA2A 		strh	r2, [r3, #2730]	@ movhi	@ tmp146, *_12
 288:../STM32Cube_FW_F4_V1.4.0/Drivers/STM32F4xx_HAL_Driver/Src/stm32f4xx_hal_nor.c **** 
 289:../STM32Cube_FW_F4_V1.4.0/Drivers/STM32F4xx_HAL_Driver/Src/stm32f4xx_hal_nor.c ****   /* Read the NOR IDs */
 290:../STM32Cube_FW_F4_V1.4.0/Drivers/STM32F4xx_HAL_Driver/Src/stm32f4xx_hal_nor.c ****   pNOR_ID->Manufacturer_Code = *(__IO uint16_t *) NOR_ADDR_SHIFT(deviceAddress, NOR_MEMORY_8B, MC_A
 302              		.loc 1 290 0
 303 0052 1A88     		ldrh	r2, [r3]	@, *_18
 304 0054 0A80     		strh	r2, [r1]	@ movhi	@ *_18, pNOR_ID_20(D)->Manufacturer_Code
 291:../STM32Cube_FW_F4_V1.4.0/Drivers/STM32F4xx_HAL_Driver/Src/stm32f4xx_hal_nor.c ****   pNOR_ID->Device_Code1      = *(__IO uint16_t *) NOR_ADDR_SHIFT(deviceAddress, NOR_MEMORY_8B, DEVI
 305              		.loc 1 291 0
 306 0056 5A88     		ldrh	r2, [r3, #2]	@, *_23
 307 0058 4A80     		strh	r2, [r1, #2]	@ movhi	@ *_23, pNOR_ID_20(D)->Device_Code1
 292:../STM32Cube_FW_F4_V1.4.0/Drivers/STM32F4xx_HAL_Driver/Src/stm32f4xx_hal_nor.c ****   pNOR_ID->Device_Code2      = *(__IO uint16_t *) NOR_ADDR_SHIFT(deviceAddress, NOR_MEMORY_8B, DEVI
 308              		.loc 1 292 0
 309 005a 9A8B     		ldrh	r2, [r3, #28]	@, *_27
 310 005c 8A80     		strh	r2, [r1, #4]	@ movhi	@ *_27, pNOR_ID_20(D)->Device_Code2
 293:../STM32Cube_FW_F4_V1.4.0/Drivers/STM32F4xx_HAL_Driver/Src/stm32f4xx_hal_nor.c ****   pNOR_ID->Device_Code3      = *(__IO uint16_t *) NOR_ADDR_SHIFT(deviceAddress, NOR_MEMORY_8B, DEVI
ARM GAS  C:\cygwin\tmp\ccODIXg7.s 			page 12


 311              		.loc 1 293 0
 312 005e DB8B     		ldrh	r3, [r3, #30]	@, *_31
 313              	.LVL17:
 314 0060 CB80     		strh	r3, [r1, #6]	@ movhi	@ *_31, pNOR_ID_20(D)->Device_Code3
 294:../STM32Cube_FW_F4_V1.4.0/Drivers/STM32F4xx_HAL_Driver/Src/stm32f4xx_hal_nor.c ****   
 295:../STM32Cube_FW_F4_V1.4.0/Drivers/STM32F4xx_HAL_Driver/Src/stm32f4xx_hal_nor.c ****   /* Check the NOR controller state */
 296:../STM32Cube_FW_F4_V1.4.0/Drivers/STM32F4xx_HAL_Driver/Src/stm32f4xx_hal_nor.c ****   hnor->State = HAL_NOR_STATE_READY;
 315              		.loc 1 296 0
 316 0062 0123     		movs	r3, #1	@ tmp155,
 317 0064 80F83D30 		strb	r3, [r0, #61]	@ tmp155, hnor_5(D)->State
 297:../STM32Cube_FW_F4_V1.4.0/Drivers/STM32F4xx_HAL_Driver/Src/stm32f4xx_hal_nor.c ****   
 298:../STM32Cube_FW_F4_V1.4.0/Drivers/STM32F4xx_HAL_Driver/Src/stm32f4xx_hal_nor.c ****   /* Process unlocked */
 299:../STM32Cube_FW_F4_V1.4.0/Drivers/STM32F4xx_HAL_Driver/Src/stm32f4xx_hal_nor.c ****   __HAL_UNLOCK(hnor);   
 318              		.loc 1 299 0
 319 0068 0023     		movs	r3, #0	@ tmp157,
 320 006a 80F83C30 		strb	r3, [r0, #60]	@ tmp157, hnor_5(D)->Lock
 300:../STM32Cube_FW_F4_V1.4.0/Drivers/STM32F4xx_HAL_Driver/Src/stm32f4xx_hal_nor.c ****   
 301:../STM32Cube_FW_F4_V1.4.0/Drivers/STM32F4xx_HAL_Driver/Src/stm32f4xx_hal_nor.c ****   return HAL_OK;
 321              		.loc 1 301 0
 322 006e 1846     		mov	r0, r3	@ D.7767, tmp157
 323              	.LVL18:
 302:../STM32Cube_FW_F4_V1.4.0/Drivers/STM32F4xx_HAL_Driver/Src/stm32f4xx_hal_nor.c **** }
 324              		.loc 1 302 0
 325 0070 7047     		bx	lr	@
 326              		.cfi_endproc
 327              	.LFE128:
 328              		.size	HAL_NOR_Read_ID, .-HAL_NOR_Read_ID
 329              		.section	.text.HAL_NOR_ReturnToReadMode,"ax",%progbits
 330              		.align	1
 331              		.global	HAL_NOR_ReturnToReadMode
 332              		.thumb
 333              		.thumb_func
 334              		.type	HAL_NOR_ReturnToReadMode, %function
 335              	HAL_NOR_ReturnToReadMode:
 336              	.LFB129:
 303:../STM32Cube_FW_F4_V1.4.0/Drivers/STM32F4xx_HAL_Driver/Src/stm32f4xx_hal_nor.c **** 
 304:../STM32Cube_FW_F4_V1.4.0/Drivers/STM32F4xx_HAL_Driver/Src/stm32f4xx_hal_nor.c **** /**
 305:../STM32Cube_FW_F4_V1.4.0/Drivers/STM32F4xx_HAL_Driver/Src/stm32f4xx_hal_nor.c ****   * @brief  Returns the NOR memory to Read mode.
 306:../STM32Cube_FW_F4_V1.4.0/Drivers/STM32F4xx_HAL_Driver/Src/stm32f4xx_hal_nor.c ****   * @param  hnor: pointer to the NOR handle
 307:../STM32Cube_FW_F4_V1.4.0/Drivers/STM32F4xx_HAL_Driver/Src/stm32f4xx_hal_nor.c ****   * @retval HAL status
 308:../STM32Cube_FW_F4_V1.4.0/Drivers/STM32F4xx_HAL_Driver/Src/stm32f4xx_hal_nor.c ****   */
 309:../STM32Cube_FW_F4_V1.4.0/Drivers/STM32F4xx_HAL_Driver/Src/stm32f4xx_hal_nor.c **** HAL_StatusTypeDef HAL_NOR_ReturnToReadMode(NOR_HandleTypeDef *hnor)
 310:../STM32Cube_FW_F4_V1.4.0/Drivers/STM32F4xx_HAL_Driver/Src/stm32f4xx_hal_nor.c **** {
 337              		.loc 1 310 0
 338              		.cfi_startproc
 339              		@ args = 0, pretend = 0, frame = 0
 340              		@ frame_needed = 0, uses_anonymous_args = 0
 341              		@ link register save eliminated.
 342              	.LVL19:
 311:../STM32Cube_FW_F4_V1.4.0/Drivers/STM32F4xx_HAL_Driver/Src/stm32f4xx_hal_nor.c ****   uint32_t deviceAddress = 0;  
 312:../STM32Cube_FW_F4_V1.4.0/Drivers/STM32F4xx_HAL_Driver/Src/stm32f4xx_hal_nor.c ****   
 313:../STM32Cube_FW_F4_V1.4.0/Drivers/STM32F4xx_HAL_Driver/Src/stm32f4xx_hal_nor.c ****   /* Process Locked */
 314:../STM32Cube_FW_F4_V1.4.0/Drivers/STM32F4xx_HAL_Driver/Src/stm32f4xx_hal_nor.c ****   __HAL_LOCK(hnor);
 343              		.loc 1 314 0
 344 0000 90F83C30 		ldrb	r3, [r0, #60]	@ zero_extendqisi2	@ hnor_5(D)->Lock, hnor_5(D)->Lock
 345 0004 012B     		cmp	r3, #1	@ hnor_5(D)->Lock,
 346 0006 01D1     		bne	.L22	@,
ARM GAS  C:\cygwin\tmp\ccODIXg7.s 			page 13


 347              	.L24:
 348 0008 0220     		movs	r0, #2	@ D.7775,
 349              	.LVL20:
 350 000a 7047     		bx	lr	@
 351              	.LVL21:
 352              	.L22:
 353              		.loc 1 314 0 is_stmt 0 discriminator 2
 354 000c 0123     		movs	r3, #1	@ tmp119,
 355 000e 80F83C30 		strb	r3, [r0, #60]	@ tmp119, hnor_5(D)->Lock
 315:../STM32Cube_FW_F4_V1.4.0/Drivers/STM32F4xx_HAL_Driver/Src/stm32f4xx_hal_nor.c ****   
 316:../STM32Cube_FW_F4_V1.4.0/Drivers/STM32F4xx_HAL_Driver/Src/stm32f4xx_hal_nor.c ****   /* Check the NOR controller state */
 317:../STM32Cube_FW_F4_V1.4.0/Drivers/STM32F4xx_HAL_Driver/Src/stm32f4xx_hal_nor.c ****   if(hnor->State == HAL_NOR_STATE_BUSY)
 356              		.loc 1 317 0 is_stmt 1 discriminator 2
 357 0012 90F83D30 		ldrb	r3, [r0, #61]	@ zero_extendqisi2	@ hnor_5(D)->State, hnor_5(D)->State
 358 0016 022B     		cmp	r3, #2	@ hnor_5(D)->State,
 359 0018 F6D0     		beq	.L24	@,
 318:../STM32Cube_FW_F4_V1.4.0/Drivers/STM32F4xx_HAL_Driver/Src/stm32f4xx_hal_nor.c ****   {
 319:../STM32Cube_FW_F4_V1.4.0/Drivers/STM32F4xx_HAL_Driver/Src/stm32f4xx_hal_nor.c ****      return HAL_BUSY;
 320:../STM32Cube_FW_F4_V1.4.0/Drivers/STM32F4xx_HAL_Driver/Src/stm32f4xx_hal_nor.c ****   }
 321:../STM32Cube_FW_F4_V1.4.0/Drivers/STM32F4xx_HAL_Driver/Src/stm32f4xx_hal_nor.c ****   
 322:../STM32Cube_FW_F4_V1.4.0/Drivers/STM32F4xx_HAL_Driver/Src/stm32f4xx_hal_nor.c ****   /* Select the NOR device address */
 323:../STM32Cube_FW_F4_V1.4.0/Drivers/STM32F4xx_HAL_Driver/Src/stm32f4xx_hal_nor.c ****   if (hnor->Init.NSBank == FMC_NORSRAM_BANK1)
 360              		.loc 1 323 0
 361 001a 8368     		ldr	r3, [r0, #8]	@ D.7778, hnor_5(D)->Init.NSBank
 362 001c 43B1     		cbz	r3, .L26	@ D.7778,
 324:../STM32Cube_FW_F4_V1.4.0/Drivers/STM32F4xx_HAL_Driver/Src/stm32f4xx_hal_nor.c ****   {
 325:../STM32Cube_FW_F4_V1.4.0/Drivers/STM32F4xx_HAL_Driver/Src/stm32f4xx_hal_nor.c ****     deviceAddress = NOR_MEMORY_ADRESS1;
 326:../STM32Cube_FW_F4_V1.4.0/Drivers/STM32F4xx_HAL_Driver/Src/stm32f4xx_hal_nor.c ****   }
 327:../STM32Cube_FW_F4_V1.4.0/Drivers/STM32F4xx_HAL_Driver/Src/stm32f4xx_hal_nor.c ****   else if (hnor->Init.NSBank == FMC_NORSRAM_BANK2)
 363              		.loc 1 327 0
 364 001e 022B     		cmp	r3, #2	@ D.7778,
 365 0020 09D0     		beq	.L27	@,
 328:../STM32Cube_FW_F4_V1.4.0/Drivers/STM32F4xx_HAL_Driver/Src/stm32f4xx_hal_nor.c ****   {
 329:../STM32Cube_FW_F4_V1.4.0/Drivers/STM32F4xx_HAL_Driver/Src/stm32f4xx_hal_nor.c ****     deviceAddress = NOR_MEMORY_ADRESS2;
 330:../STM32Cube_FW_F4_V1.4.0/Drivers/STM32F4xx_HAL_Driver/Src/stm32f4xx_hal_nor.c ****   }
 331:../STM32Cube_FW_F4_V1.4.0/Drivers/STM32F4xx_HAL_Driver/Src/stm32f4xx_hal_nor.c ****   else if (hnor->Init.NSBank == FMC_NORSRAM_BANK3)
 332:../STM32Cube_FW_F4_V1.4.0/Drivers/STM32F4xx_HAL_Driver/Src/stm32f4xx_hal_nor.c ****   {
 333:../STM32Cube_FW_F4_V1.4.0/Drivers/STM32F4xx_HAL_Driver/Src/stm32f4xx_hal_nor.c ****     deviceAddress = NOR_MEMORY_ADRESS3;
 334:../STM32Cube_FW_F4_V1.4.0/Drivers/STM32F4xx_HAL_Driver/Src/stm32f4xx_hal_nor.c ****   }
 335:../STM32Cube_FW_F4_V1.4.0/Drivers/STM32F4xx_HAL_Driver/Src/stm32f4xx_hal_nor.c ****   else /* FMC_NORSRAM_BANK4 */
 336:../STM32Cube_FW_F4_V1.4.0/Drivers/STM32F4xx_HAL_Driver/Src/stm32f4xx_hal_nor.c ****   {
 337:../STM32Cube_FW_F4_V1.4.0/Drivers/STM32F4xx_HAL_Driver/Src/stm32f4xx_hal_nor.c ****     deviceAddress = NOR_MEMORY_ADRESS4;
 366              		.loc 1 337 0
 367 0022 042B     		cmp	r3, #4	@ D.7778,
 368 0024 0CBF     		ite	eq
 369 0026 4FF0D043 		moveq	r3, #1744830464	@ deviceAddress,
 370 002a 4FF0D843 		movne	r3, #1811939328	@ deviceAddress,
 371 002e 04E0     		b	.L25	@
 372              	.L26:
 325:../STM32Cube_FW_F4_V1.4.0/Drivers/STM32F4xx_HAL_Driver/Src/stm32f4xx_hal_nor.c ****   }
 373              		.loc 1 325 0
 374 0030 4FF0C043 		mov	r3, #1610612736	@ deviceAddress,
 375 0034 01E0     		b	.L25	@
 376              	.L27:
 329:../STM32Cube_FW_F4_V1.4.0/Drivers/STM32F4xx_HAL_Driver/Src/stm32f4xx_hal_nor.c ****   }
 377              		.loc 1 329 0
 378 0036 4FF0C843 		mov	r3, #1677721600	@ deviceAddress,
ARM GAS  C:\cygwin\tmp\ccODIXg7.s 			page 14


 379              	.L25:
 380              	.LVL22:
 338:../STM32Cube_FW_F4_V1.4.0/Drivers/STM32F4xx_HAL_Driver/Src/stm32f4xx_hal_nor.c ****   }  
 339:../STM32Cube_FW_F4_V1.4.0/Drivers/STM32F4xx_HAL_Driver/Src/stm32f4xx_hal_nor.c ****   
 340:../STM32Cube_FW_F4_V1.4.0/Drivers/STM32F4xx_HAL_Driver/Src/stm32f4xx_hal_nor.c ****   NOR_WRITE(deviceAddress, 0x00F0);
 381              		.loc 1 340 0
 382 003a F022     		movs	r2, #240	@ tmp125,
 383 003c 1A80     		strh	r2, [r3]	@ movhi	@ tmp125, *_10
 341:../STM32Cube_FW_F4_V1.4.0/Drivers/STM32F4xx_HAL_Driver/Src/stm32f4xx_hal_nor.c **** 
 342:../STM32Cube_FW_F4_V1.4.0/Drivers/STM32F4xx_HAL_Driver/Src/stm32f4xx_hal_nor.c ****   /* Check the NOR controller state */
 343:../STM32Cube_FW_F4_V1.4.0/Drivers/STM32F4xx_HAL_Driver/Src/stm32f4xx_hal_nor.c ****   hnor->State = HAL_NOR_STATE_READY;
 384              		.loc 1 343 0
 385 003e 0123     		movs	r3, #1	@ tmp126,
 386              	.LVL23:
 387 0040 80F83D30 		strb	r3, [r0, #61]	@ tmp126, hnor_5(D)->State
 344:../STM32Cube_FW_F4_V1.4.0/Drivers/STM32F4xx_HAL_Driver/Src/stm32f4xx_hal_nor.c ****   
 345:../STM32Cube_FW_F4_V1.4.0/Drivers/STM32F4xx_HAL_Driver/Src/stm32f4xx_hal_nor.c ****   /* Process unlocked */
 346:../STM32Cube_FW_F4_V1.4.0/Drivers/STM32F4xx_HAL_Driver/Src/stm32f4xx_hal_nor.c ****   __HAL_UNLOCK(hnor);   
 388              		.loc 1 346 0
 389 0044 0023     		movs	r3, #0	@ tmp128,
 390 0046 80F83C30 		strb	r3, [r0, #60]	@ tmp128, hnor_5(D)->Lock
 347:../STM32Cube_FW_F4_V1.4.0/Drivers/STM32F4xx_HAL_Driver/Src/stm32f4xx_hal_nor.c ****   
 348:../STM32Cube_FW_F4_V1.4.0/Drivers/STM32F4xx_HAL_Driver/Src/stm32f4xx_hal_nor.c ****   return HAL_OK;
 391              		.loc 1 348 0
 392 004a 1846     		mov	r0, r3	@ D.7775, tmp128
 393              	.LVL24:
 349:../STM32Cube_FW_F4_V1.4.0/Drivers/STM32F4xx_HAL_Driver/Src/stm32f4xx_hal_nor.c **** }
 394              		.loc 1 349 0
 395 004c 7047     		bx	lr	@
 396              		.cfi_endproc
 397              	.LFE129:
 398              		.size	HAL_NOR_ReturnToReadMode, .-HAL_NOR_ReturnToReadMode
 399              		.section	.text.HAL_NOR_Read,"ax",%progbits
 400              		.align	1
 401              		.global	HAL_NOR_Read
 402              		.thumb
 403              		.thumb_func
 404              		.type	HAL_NOR_Read, %function
 405              	HAL_NOR_Read:
 406              	.LFB130:
 350:../STM32Cube_FW_F4_V1.4.0/Drivers/STM32F4xx_HAL_Driver/Src/stm32f4xx_hal_nor.c **** 
 351:../STM32Cube_FW_F4_V1.4.0/Drivers/STM32F4xx_HAL_Driver/Src/stm32f4xx_hal_nor.c **** /**
 352:../STM32Cube_FW_F4_V1.4.0/Drivers/STM32F4xx_HAL_Driver/Src/stm32f4xx_hal_nor.c ****   * @brief  Read data from NOR memory 
 353:../STM32Cube_FW_F4_V1.4.0/Drivers/STM32F4xx_HAL_Driver/Src/stm32f4xx_hal_nor.c ****   * @param  hnor: pointer to the NOR handle
 354:../STM32Cube_FW_F4_V1.4.0/Drivers/STM32F4xx_HAL_Driver/Src/stm32f4xx_hal_nor.c ****   * @param  pAddress: pointer to Device address
 355:../STM32Cube_FW_F4_V1.4.0/Drivers/STM32F4xx_HAL_Driver/Src/stm32f4xx_hal_nor.c ****   * @param  pData : pointer to read data  
 356:../STM32Cube_FW_F4_V1.4.0/Drivers/STM32F4xx_HAL_Driver/Src/stm32f4xx_hal_nor.c ****   * @retval HAL status
 357:../STM32Cube_FW_F4_V1.4.0/Drivers/STM32F4xx_HAL_Driver/Src/stm32f4xx_hal_nor.c ****   */
 358:../STM32Cube_FW_F4_V1.4.0/Drivers/STM32F4xx_HAL_Driver/Src/stm32f4xx_hal_nor.c **** HAL_StatusTypeDef HAL_NOR_Read(NOR_HandleTypeDef *hnor, uint32_t *pAddress, uint16_t *pData)
 359:../STM32Cube_FW_F4_V1.4.0/Drivers/STM32F4xx_HAL_Driver/Src/stm32f4xx_hal_nor.c **** {
 407              		.loc 1 359 0
 408              		.cfi_startproc
 409              		@ args = 0, pretend = 0, frame = 0
 410              		@ frame_needed = 0, uses_anonymous_args = 0
 411              	.LVL25:
 360:../STM32Cube_FW_F4_V1.4.0/Drivers/STM32F4xx_HAL_Driver/Src/stm32f4xx_hal_nor.c ****   uint32_t deviceAddress = 0;
 361:../STM32Cube_FW_F4_V1.4.0/Drivers/STM32F4xx_HAL_Driver/Src/stm32f4xx_hal_nor.c ****   
ARM GAS  C:\cygwin\tmp\ccODIXg7.s 			page 15


 362:../STM32Cube_FW_F4_V1.4.0/Drivers/STM32F4xx_HAL_Driver/Src/stm32f4xx_hal_nor.c ****   /* Process Locked */
 363:../STM32Cube_FW_F4_V1.4.0/Drivers/STM32F4xx_HAL_Driver/Src/stm32f4xx_hal_nor.c ****   __HAL_LOCK(hnor);
 412              		.loc 1 363 0
 413 0000 90F83C30 		ldrb	r3, [r0, #60]	@ zero_extendqisi2	@ hnor_5(D)->Lock, hnor_5(D)->Lock
 414 0004 012B     		cmp	r3, #1	@ hnor_5(D)->Lock,
 359:../STM32Cube_FW_F4_V1.4.0/Drivers/STM32F4xx_HAL_Driver/Src/stm32f4xx_hal_nor.c ****   uint32_t deviceAddress = 0;
 415              		.loc 1 359 0
 416 0006 10B5     		push	{r4, lr}	@
 417              		.cfi_def_cfa_offset 8
 418              		.cfi_offset 4, -8
 419              		.cfi_offset 14, -4
 420              		.loc 1 363 0
 421 0008 01D1     		bne	.L33	@,
 422              	.L35:
 423 000a 0220     		movs	r0, #2	@ D.7782,
 424              	.LVL26:
 425 000c 10BD     		pop	{r4, pc}	@
 426              	.LVL27:
 427              	.L33:
 428              		.loc 1 363 0 is_stmt 0 discriminator 2
 429 000e 0123     		movs	r3, #1	@ tmp126,
 430 0010 80F83C30 		strb	r3, [r0, #60]	@ tmp126, hnor_5(D)->Lock
 364:../STM32Cube_FW_F4_V1.4.0/Drivers/STM32F4xx_HAL_Driver/Src/stm32f4xx_hal_nor.c ****   
 365:../STM32Cube_FW_F4_V1.4.0/Drivers/STM32F4xx_HAL_Driver/Src/stm32f4xx_hal_nor.c ****   /* Check the NOR controller state */
 366:../STM32Cube_FW_F4_V1.4.0/Drivers/STM32F4xx_HAL_Driver/Src/stm32f4xx_hal_nor.c ****   if(hnor->State == HAL_NOR_STATE_BUSY)
 431              		.loc 1 366 0 is_stmt 1 discriminator 2
 432 0014 90F83D30 		ldrb	r3, [r0, #61]	@ zero_extendqisi2	@ hnor_5(D)->State, hnor_5(D)->State
 433 0018 022B     		cmp	r3, #2	@ hnor_5(D)->State,
 434 001a F6D0     		beq	.L35	@,
 367:../STM32Cube_FW_F4_V1.4.0/Drivers/STM32F4xx_HAL_Driver/Src/stm32f4xx_hal_nor.c ****   {
 368:../STM32Cube_FW_F4_V1.4.0/Drivers/STM32F4xx_HAL_Driver/Src/stm32f4xx_hal_nor.c ****      return HAL_BUSY;
 369:../STM32Cube_FW_F4_V1.4.0/Drivers/STM32F4xx_HAL_Driver/Src/stm32f4xx_hal_nor.c ****   }
 370:../STM32Cube_FW_F4_V1.4.0/Drivers/STM32F4xx_HAL_Driver/Src/stm32f4xx_hal_nor.c ****   
 371:../STM32Cube_FW_F4_V1.4.0/Drivers/STM32F4xx_HAL_Driver/Src/stm32f4xx_hal_nor.c ****   /* Select the NOR device address */
 372:../STM32Cube_FW_F4_V1.4.0/Drivers/STM32F4xx_HAL_Driver/Src/stm32f4xx_hal_nor.c ****   if (hnor->Init.NSBank == FMC_NORSRAM_BANK1)
 435              		.loc 1 372 0
 436 001c 8368     		ldr	r3, [r0, #8]	@ D.7785, hnor_5(D)->Init.NSBank
 437 001e 43B1     		cbz	r3, .L37	@ D.7785,
 373:../STM32Cube_FW_F4_V1.4.0/Drivers/STM32F4xx_HAL_Driver/Src/stm32f4xx_hal_nor.c ****   {
 374:../STM32Cube_FW_F4_V1.4.0/Drivers/STM32F4xx_HAL_Driver/Src/stm32f4xx_hal_nor.c ****     deviceAddress = NOR_MEMORY_ADRESS1;
 375:../STM32Cube_FW_F4_V1.4.0/Drivers/STM32F4xx_HAL_Driver/Src/stm32f4xx_hal_nor.c ****   }
 376:../STM32Cube_FW_F4_V1.4.0/Drivers/STM32F4xx_HAL_Driver/Src/stm32f4xx_hal_nor.c ****   else if (hnor->Init.NSBank == FMC_NORSRAM_BANK2)
 438              		.loc 1 376 0
 439 0020 022B     		cmp	r3, #2	@ D.7785,
 440 0022 09D0     		beq	.L38	@,
 377:../STM32Cube_FW_F4_V1.4.0/Drivers/STM32F4xx_HAL_Driver/Src/stm32f4xx_hal_nor.c ****   {
 378:../STM32Cube_FW_F4_V1.4.0/Drivers/STM32F4xx_HAL_Driver/Src/stm32f4xx_hal_nor.c ****     deviceAddress = NOR_MEMORY_ADRESS2;
 379:../STM32Cube_FW_F4_V1.4.0/Drivers/STM32F4xx_HAL_Driver/Src/stm32f4xx_hal_nor.c ****   }
 380:../STM32Cube_FW_F4_V1.4.0/Drivers/STM32F4xx_HAL_Driver/Src/stm32f4xx_hal_nor.c ****   else if (hnor->Init.NSBank == FMC_NORSRAM_BANK3)
 381:../STM32Cube_FW_F4_V1.4.0/Drivers/STM32F4xx_HAL_Driver/Src/stm32f4xx_hal_nor.c ****   {
 382:../STM32Cube_FW_F4_V1.4.0/Drivers/STM32F4xx_HAL_Driver/Src/stm32f4xx_hal_nor.c ****     deviceAddress = NOR_MEMORY_ADRESS3;
 383:../STM32Cube_FW_F4_V1.4.0/Drivers/STM32F4xx_HAL_Driver/Src/stm32f4xx_hal_nor.c ****   }
 384:../STM32Cube_FW_F4_V1.4.0/Drivers/STM32F4xx_HAL_Driver/Src/stm32f4xx_hal_nor.c ****   else /* FMC_NORSRAM_BANK4 */
 385:../STM32Cube_FW_F4_V1.4.0/Drivers/STM32F4xx_HAL_Driver/Src/stm32f4xx_hal_nor.c ****   {
 386:../STM32Cube_FW_F4_V1.4.0/Drivers/STM32F4xx_HAL_Driver/Src/stm32f4xx_hal_nor.c ****     deviceAddress = NOR_MEMORY_ADRESS4;
 441              		.loc 1 386 0
 442 0024 042B     		cmp	r3, #4	@ D.7785,
ARM GAS  C:\cygwin\tmp\ccODIXg7.s 			page 16


 443 0026 0CBF     		ite	eq
 444 0028 4FF0D043 		moveq	r3, #1744830464	@ deviceAddress,
 445 002c 4FF0D843 		movne	r3, #1811939328	@ deviceAddress,
 446 0030 04E0     		b	.L36	@
 447              	.L37:
 374:../STM32Cube_FW_F4_V1.4.0/Drivers/STM32F4xx_HAL_Driver/Src/stm32f4xx_hal_nor.c ****   }
 448              		.loc 1 374 0
 449 0032 4FF0C043 		mov	r3, #1610612736	@ deviceAddress,
 450 0036 01E0     		b	.L36	@
 451              	.L38:
 378:../STM32Cube_FW_F4_V1.4.0/Drivers/STM32F4xx_HAL_Driver/Src/stm32f4xx_hal_nor.c ****   }
 452              		.loc 1 378 0
 453 0038 4FF0C843 		mov	r3, #1677721600	@ deviceAddress,
 454              	.L36:
 455              	.LVL28:
 387:../STM32Cube_FW_F4_V1.4.0/Drivers/STM32F4xx_HAL_Driver/Src/stm32f4xx_hal_nor.c ****   } 
 388:../STM32Cube_FW_F4_V1.4.0/Drivers/STM32F4xx_HAL_Driver/Src/stm32f4xx_hal_nor.c ****     
 389:../STM32Cube_FW_F4_V1.4.0/Drivers/STM32F4xx_HAL_Driver/Src/stm32f4xx_hal_nor.c ****   /* Update the NOR controller state */
 390:../STM32Cube_FW_F4_V1.4.0/Drivers/STM32F4xx_HAL_Driver/Src/stm32f4xx_hal_nor.c ****   hnor->State = HAL_NOR_STATE_BUSY;
 456              		.loc 1 390 0
 457 003c 0224     		movs	r4, #2	@ tmp131,
 458 003e 80F83D40 		strb	r4, [r0, #61]	@ tmp131, hnor_5(D)->State
 391:../STM32Cube_FW_F4_V1.4.0/Drivers/STM32F4xx_HAL_Driver/Src/stm32f4xx_hal_nor.c ****   
 392:../STM32Cube_FW_F4_V1.4.0/Drivers/STM32F4xx_HAL_Driver/Src/stm32f4xx_hal_nor.c ****   /* Send read data command */
 393:../STM32Cube_FW_F4_V1.4.0/Drivers/STM32F4xx_HAL_Driver/Src/stm32f4xx_hal_nor.c ****   NOR_WRITE(NOR_ADDR_SHIFT(deviceAddress, NOR_MEMORY_8B, 0x00555), 0x00AA); 
 459              		.loc 1 393 0
 460 0042 AA24     		movs	r4, #170	@ tmp134,
 461 0044 A3F8AA4A 		strh	r4, [r3, #2730]	@ movhi	@ tmp134, *_12
 394:../STM32Cube_FW_F4_V1.4.0/Drivers/STM32F4xx_HAL_Driver/Src/stm32f4xx_hal_nor.c ****   NOR_WRITE(NOR_ADDR_SHIFT(deviceAddress, NOR_MEMORY_8B, 0x002AA), 0x0055);  
 462              		.loc 1 394 0
 463 0048 5524     		movs	r4, #85	@ tmp136,
 464 004a A3F85445 		strh	r4, [r3, #1364]	@ movhi	@ tmp136, *_15
 395:../STM32Cube_FW_F4_V1.4.0/Drivers/STM32F4xx_HAL_Driver/Src/stm32f4xx_hal_nor.c ****   NOR_WRITE(pAddress, 0x00F0);
 465              		.loc 1 395 0
 466 004e F023     		movs	r3, #240	@ tmp138,
 467              	.LVL29:
 468 0050 0B80     		strh	r3, [r1]	@ movhi	@ tmp138, MEM[(volatile uint16_t *)pAddress_17(D)]
 396:../STM32Cube_FW_F4_V1.4.0/Drivers/STM32F4xx_HAL_Driver/Src/stm32f4xx_hal_nor.c **** 
 397:../STM32Cube_FW_F4_V1.4.0/Drivers/STM32F4xx_HAL_Driver/Src/stm32f4xx_hal_nor.c ****   /* Read the data */
 398:../STM32Cube_FW_F4_V1.4.0/Drivers/STM32F4xx_HAL_Driver/Src/stm32f4xx_hal_nor.c ****   *pData = *(__IO uint32_t *)pAddress;
 469              		.loc 1 398 0
 470 0052 0B68     		ldr	r3, [r1]	@ D.7785, MEM[(volatile uint32_t *)pAddress_17(D)]
 471 0054 1380     		strh	r3, [r2]	@ movhi	@ D.7785, *pData_21(D)
 399:../STM32Cube_FW_F4_V1.4.0/Drivers/STM32F4xx_HAL_Driver/Src/stm32f4xx_hal_nor.c ****   
 400:../STM32Cube_FW_F4_V1.4.0/Drivers/STM32F4xx_HAL_Driver/Src/stm32f4xx_hal_nor.c ****   /* Check the NOR controller state */
 401:../STM32Cube_FW_F4_V1.4.0/Drivers/STM32F4xx_HAL_Driver/Src/stm32f4xx_hal_nor.c ****   hnor->State = HAL_NOR_STATE_READY;
 472              		.loc 1 401 0
 473 0056 0123     		movs	r3, #1	@ tmp140,
 474 0058 80F83D30 		strb	r3, [r0, #61]	@ tmp140, hnor_5(D)->State
 402:../STM32Cube_FW_F4_V1.4.0/Drivers/STM32F4xx_HAL_Driver/Src/stm32f4xx_hal_nor.c ****   
 403:../STM32Cube_FW_F4_V1.4.0/Drivers/STM32F4xx_HAL_Driver/Src/stm32f4xx_hal_nor.c ****   /* Process unlocked */
 404:../STM32Cube_FW_F4_V1.4.0/Drivers/STM32F4xx_HAL_Driver/Src/stm32f4xx_hal_nor.c ****   __HAL_UNLOCK(hnor);
 475              		.loc 1 404 0
 476 005c 0023     		movs	r3, #0	@ tmp142,
 477 005e 80F83C30 		strb	r3, [r0, #60]	@ tmp142, hnor_5(D)->Lock
 405:../STM32Cube_FW_F4_V1.4.0/Drivers/STM32F4xx_HAL_Driver/Src/stm32f4xx_hal_nor.c ****   
 406:../STM32Cube_FW_F4_V1.4.0/Drivers/STM32F4xx_HAL_Driver/Src/stm32f4xx_hal_nor.c ****   return HAL_OK;  
ARM GAS  C:\cygwin\tmp\ccODIXg7.s 			page 17


 478              		.loc 1 406 0
 479 0062 1846     		mov	r0, r3	@ D.7782, tmp142
 480              	.LVL30:
 407:../STM32Cube_FW_F4_V1.4.0/Drivers/STM32F4xx_HAL_Driver/Src/stm32f4xx_hal_nor.c **** }
 481              		.loc 1 407 0
 482 0064 10BD     		pop	{r4, pc}	@
 483              		.cfi_endproc
 484              	.LFE130:
 485              		.size	HAL_NOR_Read, .-HAL_NOR_Read
 486              		.section	.text.HAL_NOR_Program,"ax",%progbits
 487              		.align	1
 488              		.global	HAL_NOR_Program
 489              		.thumb
 490              		.thumb_func
 491              		.type	HAL_NOR_Program, %function
 492              	HAL_NOR_Program:
 493              	.LFB131:
 408:../STM32Cube_FW_F4_V1.4.0/Drivers/STM32F4xx_HAL_Driver/Src/stm32f4xx_hal_nor.c **** 
 409:../STM32Cube_FW_F4_V1.4.0/Drivers/STM32F4xx_HAL_Driver/Src/stm32f4xx_hal_nor.c **** /**
 410:../STM32Cube_FW_F4_V1.4.0/Drivers/STM32F4xx_HAL_Driver/Src/stm32f4xx_hal_nor.c ****   * @brief  Program data to NOR memory 
 411:../STM32Cube_FW_F4_V1.4.0/Drivers/STM32F4xx_HAL_Driver/Src/stm32f4xx_hal_nor.c ****   * @param  hnor: pointer to the NOR handle
 412:../STM32Cube_FW_F4_V1.4.0/Drivers/STM32F4xx_HAL_Driver/Src/stm32f4xx_hal_nor.c ****   * @param  pAddress: Device address
 413:../STM32Cube_FW_F4_V1.4.0/Drivers/STM32F4xx_HAL_Driver/Src/stm32f4xx_hal_nor.c ****   * @param  pData : pointer to the data to write   
 414:../STM32Cube_FW_F4_V1.4.0/Drivers/STM32F4xx_HAL_Driver/Src/stm32f4xx_hal_nor.c ****   * @retval HAL status
 415:../STM32Cube_FW_F4_V1.4.0/Drivers/STM32F4xx_HAL_Driver/Src/stm32f4xx_hal_nor.c ****   */
 416:../STM32Cube_FW_F4_V1.4.0/Drivers/STM32F4xx_HAL_Driver/Src/stm32f4xx_hal_nor.c **** HAL_StatusTypeDef HAL_NOR_Program(NOR_HandleTypeDef *hnor, uint32_t *pAddress, uint16_t *pData)
 417:../STM32Cube_FW_F4_V1.4.0/Drivers/STM32F4xx_HAL_Driver/Src/stm32f4xx_hal_nor.c **** {
 494              		.loc 1 417 0
 495              		.cfi_startproc
 496              		@ args = 0, pretend = 0, frame = 0
 497              		@ frame_needed = 0, uses_anonymous_args = 0
 498              	.LVL31:
 418:../STM32Cube_FW_F4_V1.4.0/Drivers/STM32F4xx_HAL_Driver/Src/stm32f4xx_hal_nor.c ****   uint32_t deviceAddress = 0;
 419:../STM32Cube_FW_F4_V1.4.0/Drivers/STM32F4xx_HAL_Driver/Src/stm32f4xx_hal_nor.c ****   
 420:../STM32Cube_FW_F4_V1.4.0/Drivers/STM32F4xx_HAL_Driver/Src/stm32f4xx_hal_nor.c ****   /* Process Locked */
 421:../STM32Cube_FW_F4_V1.4.0/Drivers/STM32F4xx_HAL_Driver/Src/stm32f4xx_hal_nor.c ****   __HAL_LOCK(hnor);
 499              		.loc 1 421 0
 500 0000 90F83C30 		ldrb	r3, [r0, #60]	@ zero_extendqisi2	@ hnor_5(D)->Lock, hnor_5(D)->Lock
 501 0004 012B     		cmp	r3, #1	@ hnor_5(D)->Lock,
 417:../STM32Cube_FW_F4_V1.4.0/Drivers/STM32F4xx_HAL_Driver/Src/stm32f4xx_hal_nor.c ****   uint32_t deviceAddress = 0;
 502              		.loc 1 417 0
 503 0006 10B5     		push	{r4, lr}	@
 504              		.cfi_def_cfa_offset 8
 505              		.cfi_offset 4, -8
 506              		.cfi_offset 14, -4
 507              		.loc 1 421 0
 508 0008 01D1     		bne	.L44	@,
 509              	.L46:
 510 000a 0220     		movs	r0, #2	@ D.7790,
 511              	.LVL32:
 512 000c 10BD     		pop	{r4, pc}	@
 513              	.LVL33:
 514              	.L44:
 515              		.loc 1 421 0 is_stmt 0 discriminator 2
 516 000e 0123     		movs	r3, #1	@ tmp125,
 517 0010 80F83C30 		strb	r3, [r0, #60]	@ tmp125, hnor_5(D)->Lock
 422:../STM32Cube_FW_F4_V1.4.0/Drivers/STM32F4xx_HAL_Driver/Src/stm32f4xx_hal_nor.c ****   
ARM GAS  C:\cygwin\tmp\ccODIXg7.s 			page 18


 423:../STM32Cube_FW_F4_V1.4.0/Drivers/STM32F4xx_HAL_Driver/Src/stm32f4xx_hal_nor.c ****   /* Check the NOR controller state */
 424:../STM32Cube_FW_F4_V1.4.0/Drivers/STM32F4xx_HAL_Driver/Src/stm32f4xx_hal_nor.c ****   if(hnor->State == HAL_NOR_STATE_BUSY)
 518              		.loc 1 424 0 is_stmt 1 discriminator 2
 519 0014 90F83D30 		ldrb	r3, [r0, #61]	@ zero_extendqisi2	@ hnor_5(D)->State, hnor_5(D)->State
 520 0018 022B     		cmp	r3, #2	@ hnor_5(D)->State,
 521 001a F6D0     		beq	.L46	@,
 425:../STM32Cube_FW_F4_V1.4.0/Drivers/STM32F4xx_HAL_Driver/Src/stm32f4xx_hal_nor.c ****   {
 426:../STM32Cube_FW_F4_V1.4.0/Drivers/STM32F4xx_HAL_Driver/Src/stm32f4xx_hal_nor.c ****      return HAL_BUSY;
 427:../STM32Cube_FW_F4_V1.4.0/Drivers/STM32F4xx_HAL_Driver/Src/stm32f4xx_hal_nor.c ****   }
 428:../STM32Cube_FW_F4_V1.4.0/Drivers/STM32F4xx_HAL_Driver/Src/stm32f4xx_hal_nor.c ****   
 429:../STM32Cube_FW_F4_V1.4.0/Drivers/STM32F4xx_HAL_Driver/Src/stm32f4xx_hal_nor.c ****   /* Select the NOR device address */
 430:../STM32Cube_FW_F4_V1.4.0/Drivers/STM32F4xx_HAL_Driver/Src/stm32f4xx_hal_nor.c ****   if (hnor->Init.NSBank == FMC_NORSRAM_BANK1)
 522              		.loc 1 430 0
 523 001c 8368     		ldr	r3, [r0, #8]	@ D.7793, hnor_5(D)->Init.NSBank
 524 001e 43B1     		cbz	r3, .L48	@ D.7793,
 431:../STM32Cube_FW_F4_V1.4.0/Drivers/STM32F4xx_HAL_Driver/Src/stm32f4xx_hal_nor.c ****   {
 432:../STM32Cube_FW_F4_V1.4.0/Drivers/STM32F4xx_HAL_Driver/Src/stm32f4xx_hal_nor.c ****     deviceAddress = NOR_MEMORY_ADRESS1;
 433:../STM32Cube_FW_F4_V1.4.0/Drivers/STM32F4xx_HAL_Driver/Src/stm32f4xx_hal_nor.c ****   }
 434:../STM32Cube_FW_F4_V1.4.0/Drivers/STM32F4xx_HAL_Driver/Src/stm32f4xx_hal_nor.c ****   else if (hnor->Init.NSBank == FMC_NORSRAM_BANK2)
 525              		.loc 1 434 0
 526 0020 022B     		cmp	r3, #2	@ D.7793,
 527 0022 09D0     		beq	.L49	@,
 435:../STM32Cube_FW_F4_V1.4.0/Drivers/STM32F4xx_HAL_Driver/Src/stm32f4xx_hal_nor.c ****   {
 436:../STM32Cube_FW_F4_V1.4.0/Drivers/STM32F4xx_HAL_Driver/Src/stm32f4xx_hal_nor.c ****     deviceAddress = NOR_MEMORY_ADRESS2;
 437:../STM32Cube_FW_F4_V1.4.0/Drivers/STM32F4xx_HAL_Driver/Src/stm32f4xx_hal_nor.c ****   }
 438:../STM32Cube_FW_F4_V1.4.0/Drivers/STM32F4xx_HAL_Driver/Src/stm32f4xx_hal_nor.c ****   else if (hnor->Init.NSBank == FMC_NORSRAM_BANK3)
 439:../STM32Cube_FW_F4_V1.4.0/Drivers/STM32F4xx_HAL_Driver/Src/stm32f4xx_hal_nor.c ****   {
 440:../STM32Cube_FW_F4_V1.4.0/Drivers/STM32F4xx_HAL_Driver/Src/stm32f4xx_hal_nor.c ****     deviceAddress = NOR_MEMORY_ADRESS3;
 441:../STM32Cube_FW_F4_V1.4.0/Drivers/STM32F4xx_HAL_Driver/Src/stm32f4xx_hal_nor.c ****   }
 442:../STM32Cube_FW_F4_V1.4.0/Drivers/STM32F4xx_HAL_Driver/Src/stm32f4xx_hal_nor.c ****   else /* FMC_NORSRAM_BANK4 */
 443:../STM32Cube_FW_F4_V1.4.0/Drivers/STM32F4xx_HAL_Driver/Src/stm32f4xx_hal_nor.c ****   {
 444:../STM32Cube_FW_F4_V1.4.0/Drivers/STM32F4xx_HAL_Driver/Src/stm32f4xx_hal_nor.c ****     deviceAddress = NOR_MEMORY_ADRESS4;
 528              		.loc 1 444 0
 529 0024 042B     		cmp	r3, #4	@ D.7793,
 530 0026 0CBF     		ite	eq
 531 0028 4FF0D043 		moveq	r3, #1744830464	@ deviceAddress,
 532 002c 4FF0D843 		movne	r3, #1811939328	@ deviceAddress,
 533 0030 04E0     		b	.L47	@
 534              	.L48:
 432:../STM32Cube_FW_F4_V1.4.0/Drivers/STM32F4xx_HAL_Driver/Src/stm32f4xx_hal_nor.c ****   }
 535              		.loc 1 432 0
 536 0032 4FF0C043 		mov	r3, #1610612736	@ deviceAddress,
 537 0036 01E0     		b	.L47	@
 538              	.L49:
 436:../STM32Cube_FW_F4_V1.4.0/Drivers/STM32F4xx_HAL_Driver/Src/stm32f4xx_hal_nor.c ****   }
 539              		.loc 1 436 0
 540 0038 4FF0C843 		mov	r3, #1677721600	@ deviceAddress,
 541              	.L47:
 542              	.LVL34:
 445:../STM32Cube_FW_F4_V1.4.0/Drivers/STM32F4xx_HAL_Driver/Src/stm32f4xx_hal_nor.c ****   } 
 446:../STM32Cube_FW_F4_V1.4.0/Drivers/STM32F4xx_HAL_Driver/Src/stm32f4xx_hal_nor.c ****     
 447:../STM32Cube_FW_F4_V1.4.0/Drivers/STM32F4xx_HAL_Driver/Src/stm32f4xx_hal_nor.c ****   /* Update the NOR controller state */
 448:../STM32Cube_FW_F4_V1.4.0/Drivers/STM32F4xx_HAL_Driver/Src/stm32f4xx_hal_nor.c ****   hnor->State = HAL_NOR_STATE_BUSY;
 543              		.loc 1 448 0
 544 003c 0224     		movs	r4, #2	@ tmp130,
 545 003e 80F83D40 		strb	r4, [r0, #61]	@ tmp130, hnor_5(D)->State
 449:../STM32Cube_FW_F4_V1.4.0/Drivers/STM32F4xx_HAL_Driver/Src/stm32f4xx_hal_nor.c ****   
ARM GAS  C:\cygwin\tmp\ccODIXg7.s 			page 19


 450:../STM32Cube_FW_F4_V1.4.0/Drivers/STM32F4xx_HAL_Driver/Src/stm32f4xx_hal_nor.c ****   /* Send program data command */
 451:../STM32Cube_FW_F4_V1.4.0/Drivers/STM32F4xx_HAL_Driver/Src/stm32f4xx_hal_nor.c ****   NOR_WRITE(NOR_ADDR_SHIFT(deviceAddress, NOR_MEMORY_8B, 0x0555), 0x00AA);
 546              		.loc 1 451 0
 547 0042 AA24     		movs	r4, #170	@ tmp133,
 548 0044 A3F8AA4A 		strh	r4, [r3, #2730]	@ movhi	@ tmp133, *_12
 452:../STM32Cube_FW_F4_V1.4.0/Drivers/STM32F4xx_HAL_Driver/Src/stm32f4xx_hal_nor.c ****   NOR_WRITE(NOR_ADDR_SHIFT(deviceAddress, NOR_MEMORY_8B, 0x02AA), 0x0055);
 549              		.loc 1 452 0
 550 0048 5524     		movs	r4, #85	@ tmp135,
 551 004a A3F85445 		strh	r4, [r3, #1364]	@ movhi	@ tmp135, *_15
 453:../STM32Cube_FW_F4_V1.4.0/Drivers/STM32F4xx_HAL_Driver/Src/stm32f4xx_hal_nor.c ****   NOR_WRITE(NOR_ADDR_SHIFT(deviceAddress, NOR_MEMORY_8B, 0x0555), 0x00A0);
 552              		.loc 1 453 0
 553 004e A024     		movs	r4, #160	@ tmp137,
 554 0050 A3F8AA4A 		strh	r4, [r3, #2730]	@ movhi	@ tmp137, *_12
 454:../STM32Cube_FW_F4_V1.4.0/Drivers/STM32F4xx_HAL_Driver/Src/stm32f4xx_hal_nor.c **** 
 455:../STM32Cube_FW_F4_V1.4.0/Drivers/STM32F4xx_HAL_Driver/Src/stm32f4xx_hal_nor.c ****   /* Write the data */
 456:../STM32Cube_FW_F4_V1.4.0/Drivers/STM32F4xx_HAL_Driver/Src/stm32f4xx_hal_nor.c ****   NOR_WRITE(pAddress, *pData);
 555              		.loc 1 456 0
 556 0054 1388     		ldrh	r3, [r2]	@ D.7795, *pData_18(D)
 557              	.LVL35:
 558 0056 0B80     		strh	r3, [r1]	@ movhi	@ D.7795, MEM[(volatile uint16_t *)pAddress_20(D)]
 457:../STM32Cube_FW_F4_V1.4.0/Drivers/STM32F4xx_HAL_Driver/Src/stm32f4xx_hal_nor.c ****   
 458:../STM32Cube_FW_F4_V1.4.0/Drivers/STM32F4xx_HAL_Driver/Src/stm32f4xx_hal_nor.c ****   /* Check the NOR controller state */
 459:../STM32Cube_FW_F4_V1.4.0/Drivers/STM32F4xx_HAL_Driver/Src/stm32f4xx_hal_nor.c ****   hnor->State = HAL_NOR_STATE_READY;
 559              		.loc 1 459 0
 560 0058 0123     		movs	r3, #1	@ tmp139,
 561 005a 80F83D30 		strb	r3, [r0, #61]	@ tmp139, hnor_5(D)->State
 460:../STM32Cube_FW_F4_V1.4.0/Drivers/STM32F4xx_HAL_Driver/Src/stm32f4xx_hal_nor.c ****   
 461:../STM32Cube_FW_F4_V1.4.0/Drivers/STM32F4xx_HAL_Driver/Src/stm32f4xx_hal_nor.c ****   /* Process unlocked */
 462:../STM32Cube_FW_F4_V1.4.0/Drivers/STM32F4xx_HAL_Driver/Src/stm32f4xx_hal_nor.c ****   __HAL_UNLOCK(hnor);
 562              		.loc 1 462 0
 563 005e 0023     		movs	r3, #0	@ tmp141,
 564 0060 80F83C30 		strb	r3, [r0, #60]	@ tmp141, hnor_5(D)->Lock
 463:../STM32Cube_FW_F4_V1.4.0/Drivers/STM32F4xx_HAL_Driver/Src/stm32f4xx_hal_nor.c ****   
 464:../STM32Cube_FW_F4_V1.4.0/Drivers/STM32F4xx_HAL_Driver/Src/stm32f4xx_hal_nor.c ****   return HAL_OK;  
 565              		.loc 1 464 0
 566 0064 1846     		mov	r0, r3	@ D.7790, tmp141
 567              	.LVL36:
 465:../STM32Cube_FW_F4_V1.4.0/Drivers/STM32F4xx_HAL_Driver/Src/stm32f4xx_hal_nor.c **** }
 568              		.loc 1 465 0
 569 0066 10BD     		pop	{r4, pc}	@
 570              		.cfi_endproc
 571              	.LFE131:
 572              		.size	HAL_NOR_Program, .-HAL_NOR_Program
 573              		.section	.text.HAL_NOR_ReadBuffer,"ax",%progbits
 574              		.align	1
 575              		.global	HAL_NOR_ReadBuffer
 576              		.thumb
 577              		.thumb_func
 578              		.type	HAL_NOR_ReadBuffer, %function
 579              	HAL_NOR_ReadBuffer:
 580              	.LFB132:
 466:../STM32Cube_FW_F4_V1.4.0/Drivers/STM32F4xx_HAL_Driver/Src/stm32f4xx_hal_nor.c **** 
 467:../STM32Cube_FW_F4_V1.4.0/Drivers/STM32F4xx_HAL_Driver/Src/stm32f4xx_hal_nor.c **** /**
 468:../STM32Cube_FW_F4_V1.4.0/Drivers/STM32F4xx_HAL_Driver/Src/stm32f4xx_hal_nor.c ****   * @brief  Reads a half-word buffer from the NOR memory.
 469:../STM32Cube_FW_F4_V1.4.0/Drivers/STM32F4xx_HAL_Driver/Src/stm32f4xx_hal_nor.c ****   * @param  hnor: pointer to the NOR handle
 470:../STM32Cube_FW_F4_V1.4.0/Drivers/STM32F4xx_HAL_Driver/Src/stm32f4xx_hal_nor.c ****   * @param  uwAddress: NOR memory internal address to read from.
 471:../STM32Cube_FW_F4_V1.4.0/Drivers/STM32F4xx_HAL_Driver/Src/stm32f4xx_hal_nor.c ****   * @param  pData: pointer to the buffer that receives the data read from the 
ARM GAS  C:\cygwin\tmp\ccODIXg7.s 			page 20


 472:../STM32Cube_FW_F4_V1.4.0/Drivers/STM32F4xx_HAL_Driver/Src/stm32f4xx_hal_nor.c ****   *         NOR memory.
 473:../STM32Cube_FW_F4_V1.4.0/Drivers/STM32F4xx_HAL_Driver/Src/stm32f4xx_hal_nor.c ****   * @param  uwBufferSize : number of Half word to read.
 474:../STM32Cube_FW_F4_V1.4.0/Drivers/STM32F4xx_HAL_Driver/Src/stm32f4xx_hal_nor.c ****   * @retval HAL status
 475:../STM32Cube_FW_F4_V1.4.0/Drivers/STM32F4xx_HAL_Driver/Src/stm32f4xx_hal_nor.c ****   */
 476:../STM32Cube_FW_F4_V1.4.0/Drivers/STM32F4xx_HAL_Driver/Src/stm32f4xx_hal_nor.c **** HAL_StatusTypeDef HAL_NOR_ReadBuffer(NOR_HandleTypeDef *hnor, uint32_t uwAddress, uint16_t *pData, 
 477:../STM32Cube_FW_F4_V1.4.0/Drivers/STM32F4xx_HAL_Driver/Src/stm32f4xx_hal_nor.c **** {
 581              		.loc 1 477 0
 582              		.cfi_startproc
 583              		@ args = 0, pretend = 0, frame = 0
 584              		@ frame_needed = 0, uses_anonymous_args = 0
 585              	.LVL37:
 586 0000 30B5     		push	{r4, r5, lr}	@
 587              		.cfi_def_cfa_offset 12
 588              		.cfi_offset 4, -12
 589              		.cfi_offset 5, -8
 590              		.cfi_offset 14, -4
 478:../STM32Cube_FW_F4_V1.4.0/Drivers/STM32F4xx_HAL_Driver/Src/stm32f4xx_hal_nor.c ****   uint32_t deviceAddress = 0;
 479:../STM32Cube_FW_F4_V1.4.0/Drivers/STM32F4xx_HAL_Driver/Src/stm32f4xx_hal_nor.c ****   
 480:../STM32Cube_FW_F4_V1.4.0/Drivers/STM32F4xx_HAL_Driver/Src/stm32f4xx_hal_nor.c ****   /* Process Locked */
 481:../STM32Cube_FW_F4_V1.4.0/Drivers/STM32F4xx_HAL_Driver/Src/stm32f4xx_hal_nor.c ****   __HAL_LOCK(hnor);
 591              		.loc 1 481 0
 592 0002 90F83C40 		ldrb	r4, [r0, #60]	@ zero_extendqisi2	@ hnor_9(D)->Lock, hnor_9(D)->Lock
 593 0006 012C     		cmp	r4, #1	@ hnor_9(D)->Lock,
 594 0008 01D1     		bne	.L55	@,
 595              	.L57:
 596 000a 0220     		movs	r0, #2	@ D.7821,
 597              	.LVL38:
 598 000c 30BD     		pop	{r4, r5, pc}	@
 599              	.LVL39:
 600              	.L55:
 601              		.loc 1 481 0 is_stmt 0 discriminator 2
 602 000e 0124     		movs	r4, #1	@ tmp163,
 603 0010 80F83C40 		strb	r4, [r0, #60]	@ tmp163, hnor_9(D)->Lock
 482:../STM32Cube_FW_F4_V1.4.0/Drivers/STM32F4xx_HAL_Driver/Src/stm32f4xx_hal_nor.c ****   
 483:../STM32Cube_FW_F4_V1.4.0/Drivers/STM32F4xx_HAL_Driver/Src/stm32f4xx_hal_nor.c ****   /* Check the NOR controller state */
 484:../STM32Cube_FW_F4_V1.4.0/Drivers/STM32F4xx_HAL_Driver/Src/stm32f4xx_hal_nor.c ****   if(hnor->State == HAL_NOR_STATE_BUSY)
 604              		.loc 1 484 0 is_stmt 1 discriminator 2
 605 0014 90F83D40 		ldrb	r4, [r0, #61]	@ zero_extendqisi2	@ hnor_9(D)->State, hnor_9(D)->State
 606 0018 022C     		cmp	r4, #2	@ hnor_9(D)->State,
 607 001a F6D0     		beq	.L57	@,
 485:../STM32Cube_FW_F4_V1.4.0/Drivers/STM32F4xx_HAL_Driver/Src/stm32f4xx_hal_nor.c ****   {
 486:../STM32Cube_FW_F4_V1.4.0/Drivers/STM32F4xx_HAL_Driver/Src/stm32f4xx_hal_nor.c ****      return HAL_BUSY;
 487:../STM32Cube_FW_F4_V1.4.0/Drivers/STM32F4xx_HAL_Driver/Src/stm32f4xx_hal_nor.c ****   }
 488:../STM32Cube_FW_F4_V1.4.0/Drivers/STM32F4xx_HAL_Driver/Src/stm32f4xx_hal_nor.c ****   
 489:../STM32Cube_FW_F4_V1.4.0/Drivers/STM32F4xx_HAL_Driver/Src/stm32f4xx_hal_nor.c ****   /* Select the NOR device address */
 490:../STM32Cube_FW_F4_V1.4.0/Drivers/STM32F4xx_HAL_Driver/Src/stm32f4xx_hal_nor.c ****   if (hnor->Init.NSBank == FMC_NORSRAM_BANK1)
 608              		.loc 1 490 0
 609 001c 8468     		ldr	r4, [r0, #8]	@ D.7824, hnor_9(D)->Init.NSBank
 610 001e 44B1     		cbz	r4, .L61	@ D.7824,
 491:../STM32Cube_FW_F4_V1.4.0/Drivers/STM32F4xx_HAL_Driver/Src/stm32f4xx_hal_nor.c ****   {
 492:../STM32Cube_FW_F4_V1.4.0/Drivers/STM32F4xx_HAL_Driver/Src/stm32f4xx_hal_nor.c ****     deviceAddress = NOR_MEMORY_ADRESS1;
 493:../STM32Cube_FW_F4_V1.4.0/Drivers/STM32F4xx_HAL_Driver/Src/stm32f4xx_hal_nor.c ****   }
 494:../STM32Cube_FW_F4_V1.4.0/Drivers/STM32F4xx_HAL_Driver/Src/stm32f4xx_hal_nor.c ****   else if (hnor->Init.NSBank == FMC_NORSRAM_BANK2)
 611              		.loc 1 494 0
 612 0020 022C     		cmp	r4, #2	@ D.7824,
 613 0022 09D0     		beq	.L62	@,
 495:../STM32Cube_FW_F4_V1.4.0/Drivers/STM32F4xx_HAL_Driver/Src/stm32f4xx_hal_nor.c ****   {
ARM GAS  C:\cygwin\tmp\ccODIXg7.s 			page 21


 496:../STM32Cube_FW_F4_V1.4.0/Drivers/STM32F4xx_HAL_Driver/Src/stm32f4xx_hal_nor.c ****     deviceAddress = NOR_MEMORY_ADRESS2;
 497:../STM32Cube_FW_F4_V1.4.0/Drivers/STM32F4xx_HAL_Driver/Src/stm32f4xx_hal_nor.c ****   }
 498:../STM32Cube_FW_F4_V1.4.0/Drivers/STM32F4xx_HAL_Driver/Src/stm32f4xx_hal_nor.c ****   else if (hnor->Init.NSBank == FMC_NORSRAM_BANK3)
 499:../STM32Cube_FW_F4_V1.4.0/Drivers/STM32F4xx_HAL_Driver/Src/stm32f4xx_hal_nor.c ****   {
 500:../STM32Cube_FW_F4_V1.4.0/Drivers/STM32F4xx_HAL_Driver/Src/stm32f4xx_hal_nor.c ****     deviceAddress = NOR_MEMORY_ADRESS3;
 501:../STM32Cube_FW_F4_V1.4.0/Drivers/STM32F4xx_HAL_Driver/Src/stm32f4xx_hal_nor.c ****   }
 502:../STM32Cube_FW_F4_V1.4.0/Drivers/STM32F4xx_HAL_Driver/Src/stm32f4xx_hal_nor.c ****   else /* FMC_NORSRAM_BANK4 */
 503:../STM32Cube_FW_F4_V1.4.0/Drivers/STM32F4xx_HAL_Driver/Src/stm32f4xx_hal_nor.c ****   {
 504:../STM32Cube_FW_F4_V1.4.0/Drivers/STM32F4xx_HAL_Driver/Src/stm32f4xx_hal_nor.c ****     deviceAddress = NOR_MEMORY_ADRESS4;
 614              		.loc 1 504 0
 615 0024 042C     		cmp	r4, #4	@ D.7824,
 616 0026 0CBF     		ite	eq
 617 0028 4FF0D044 		moveq	r4, #1744830464	@ deviceAddress,
 618 002c 4FF0D844 		movne	r4, #1811939328	@ deviceAddress,
 619 0030 04E0     		b	.L58	@
 620              	.L61:
 492:../STM32Cube_FW_F4_V1.4.0/Drivers/STM32F4xx_HAL_Driver/Src/stm32f4xx_hal_nor.c ****   }
 621              		.loc 1 492 0
 622 0032 4FF0C044 		mov	r4, #1610612736	@ deviceAddress,
 623 0036 01E0     		b	.L58	@
 624              	.L62:
 496:../STM32Cube_FW_F4_V1.4.0/Drivers/STM32F4xx_HAL_Driver/Src/stm32f4xx_hal_nor.c ****   }
 625              		.loc 1 496 0
 626 0038 4FF0C844 		mov	r4, #1677721600	@ deviceAddress,
 627              	.L58:
 628              	.LVL40:
 505:../STM32Cube_FW_F4_V1.4.0/Drivers/STM32F4xx_HAL_Driver/Src/stm32f4xx_hal_nor.c ****   }  
 506:../STM32Cube_FW_F4_V1.4.0/Drivers/STM32F4xx_HAL_Driver/Src/stm32f4xx_hal_nor.c ****     
 507:../STM32Cube_FW_F4_V1.4.0/Drivers/STM32F4xx_HAL_Driver/Src/stm32f4xx_hal_nor.c ****   /* Update the NOR controller state */
 508:../STM32Cube_FW_F4_V1.4.0/Drivers/STM32F4xx_HAL_Driver/Src/stm32f4xx_hal_nor.c ****   hnor->State = HAL_NOR_STATE_BUSY;
 629              		.loc 1 508 0
 630 003c 0225     		movs	r5, #2	@ tmp168,
 631 003e 80F83D50 		strb	r5, [r0, #61]	@ tmp168, hnor_9(D)->State
 509:../STM32Cube_FW_F4_V1.4.0/Drivers/STM32F4xx_HAL_Driver/Src/stm32f4xx_hal_nor.c ****   
 510:../STM32Cube_FW_F4_V1.4.0/Drivers/STM32F4xx_HAL_Driver/Src/stm32f4xx_hal_nor.c ****   /* Send read data command */
 511:../STM32Cube_FW_F4_V1.4.0/Drivers/STM32F4xx_HAL_Driver/Src/stm32f4xx_hal_nor.c ****   NOR_WRITE(NOR_ADDR_SHIFT(deviceAddress, NOR_MEMORY_8B, 0x00555), 0x00AA); 
 632              		.loc 1 511 0
 633 0042 AA25     		movs	r5, #170	@ tmp171,
 634 0044 A4F8AA5A 		strh	r5, [r4, #2730]	@ movhi	@ tmp171, *_16
 512:../STM32Cube_FW_F4_V1.4.0/Drivers/STM32F4xx_HAL_Driver/Src/stm32f4xx_hal_nor.c ****   NOR_WRITE(NOR_ADDR_SHIFT(deviceAddress, NOR_MEMORY_8B, 0x002AA), 0x0055);  
 635              		.loc 1 512 0
 636 0048 5525     		movs	r5, #85	@ tmp173,
 637 004a A4F85455 		strh	r5, [r4, #1364]	@ movhi	@ tmp173, *_19
 513:../STM32Cube_FW_F4_V1.4.0/Drivers/STM32F4xx_HAL_Driver/Src/stm32f4xx_hal_nor.c ****   NOR_WRITE(uwAddress, 0x00F0);
 638              		.loc 1 513 0
 639 004e F024     		movs	r4, #240	@ tmp175,
 640              	.LVL41:
 641 0050 0C80     		strh	r4, [r1]	@ movhi	@ tmp175, *_22
 514:../STM32Cube_FW_F4_V1.4.0/Drivers/STM32F4xx_HAL_Driver/Src/stm32f4xx_hal_nor.c ****   
 515:../STM32Cube_FW_F4_V1.4.0/Drivers/STM32F4xx_HAL_Driver/Src/stm32f4xx_hal_nor.c ****   /* Read buffer */
 516:../STM32Cube_FW_F4_V1.4.0/Drivers/STM32F4xx_HAL_Driver/Src/stm32f4xx_hal_nor.c ****   while( uwBufferSize > 0) 
 642              		.loc 1 516 0
 643 0052 1446     		mov	r4, r2	@ ivtmp.63, pData
 644              	.LVL42:
 645              	.L59:
 646 0054 2BB1     		cbz	r3, .L67	@ uwBufferSize,
 647              	.LVL43:
ARM GAS  C:\cygwin\tmp\ccODIXg7.s 			page 22


 648 0056 8D1A     		subs	r5, r1, r2	@ D.7827, uwAddress, pData
 517:../STM32Cube_FW_F4_V1.4.0/Drivers/STM32F4xx_HAL_Driver/Src/stm32f4xx_hal_nor.c ****   {
 518:../STM32Cube_FW_F4_V1.4.0/Drivers/STM32F4xx_HAL_Driver/Src/stm32f4xx_hal_nor.c ****     *pData++ = *(__IO uint16_t *)uwAddress;
 519:../STM32Cube_FW_F4_V1.4.0/Drivers/STM32F4xx_HAL_Driver/Src/stm32f4xx_hal_nor.c ****     uwAddress += 2;
 520:../STM32Cube_FW_F4_V1.4.0/Drivers/STM32F4xx_HAL_Driver/Src/stm32f4xx_hal_nor.c ****     uwBufferSize--;
 649              		.loc 1 520 0
 650 0058 013B     		subs	r3, r3, #1	@ uwBufferSize, uwBufferSize,
 651              	.LVL44:
 518:../STM32Cube_FW_F4_V1.4.0/Drivers/STM32F4xx_HAL_Driver/Src/stm32f4xx_hal_nor.c ****     uwAddress += 2;
 652              		.loc 1 518 0
 653 005a 2D5B     		ldrh	r5, [r5, r4]	@, *_41
 654 005c 24F8025B 		strh	r5, [r4], #2	@ movhi	@ *_41, MEM[base: _42, offset: 0B]
 655              	.LVL45:
 656 0060 F8E7     		b	.L59	@
 657              	.LVL46:
 658              	.L67:
 521:../STM32Cube_FW_F4_V1.4.0/Drivers/STM32F4xx_HAL_Driver/Src/stm32f4xx_hal_nor.c ****   } 
 522:../STM32Cube_FW_F4_V1.4.0/Drivers/STM32F4xx_HAL_Driver/Src/stm32f4xx_hal_nor.c ****   
 523:../STM32Cube_FW_F4_V1.4.0/Drivers/STM32F4xx_HAL_Driver/Src/stm32f4xx_hal_nor.c ****   /* Check the NOR controller state */
 524:../STM32Cube_FW_F4_V1.4.0/Drivers/STM32F4xx_HAL_Driver/Src/stm32f4xx_hal_nor.c ****   hnor->State = HAL_NOR_STATE_READY;
 659              		.loc 1 524 0
 660 0062 0122     		movs	r2, #1	@ tmp179,
 661 0064 80F83D20 		strb	r2, [r0, #61]	@ tmp179, hnor_9(D)->State
 525:../STM32Cube_FW_F4_V1.4.0/Drivers/STM32F4xx_HAL_Driver/Src/stm32f4xx_hal_nor.c ****   
 526:../STM32Cube_FW_F4_V1.4.0/Drivers/STM32F4xx_HAL_Driver/Src/stm32f4xx_hal_nor.c ****   /* Process unlocked */
 527:../STM32Cube_FW_F4_V1.4.0/Drivers/STM32F4xx_HAL_Driver/Src/stm32f4xx_hal_nor.c ****   __HAL_UNLOCK(hnor);
 662              		.loc 1 527 0
 663 0068 80F83C30 		strb	r3, [r0, #60]	@ uwBufferSize, hnor_9(D)->Lock
 528:../STM32Cube_FW_F4_V1.4.0/Drivers/STM32F4xx_HAL_Driver/Src/stm32f4xx_hal_nor.c ****   
 529:../STM32Cube_FW_F4_V1.4.0/Drivers/STM32F4xx_HAL_Driver/Src/stm32f4xx_hal_nor.c ****   return HAL_OK;  
 664              		.loc 1 529 0
 665 006c 1846     		mov	r0, r3	@ D.7821, uwBufferSize
 666              	.LVL47:
 530:../STM32Cube_FW_F4_V1.4.0/Drivers/STM32F4xx_HAL_Driver/Src/stm32f4xx_hal_nor.c **** }
 667              		.loc 1 530 0
 668 006e 30BD     		pop	{r4, r5, pc}	@
 669              		.cfi_endproc
 670              	.LFE132:
 671              		.size	HAL_NOR_ReadBuffer, .-HAL_NOR_ReadBuffer
 672              		.section	.text.HAL_NOR_ProgramBuffer,"ax",%progbits
 673              		.align	1
 674              		.global	HAL_NOR_ProgramBuffer
 675              		.thumb
 676              		.thumb_func
 677              		.type	HAL_NOR_ProgramBuffer, %function
 678              	HAL_NOR_ProgramBuffer:
 679              	.LFB133:
 531:../STM32Cube_FW_F4_V1.4.0/Drivers/STM32F4xx_HAL_Driver/Src/stm32f4xx_hal_nor.c **** 
 532:../STM32Cube_FW_F4_V1.4.0/Drivers/STM32F4xx_HAL_Driver/Src/stm32f4xx_hal_nor.c **** /**
 533:../STM32Cube_FW_F4_V1.4.0/Drivers/STM32F4xx_HAL_Driver/Src/stm32f4xx_hal_nor.c ****   * @brief  Writes a half-word buffer to the NOR memory. This function must be used 
 534:../STM32Cube_FW_F4_V1.4.0/Drivers/STM32F4xx_HAL_Driver/Src/stm32f4xx_hal_nor.c ****             only with S29GL128P NOR memory. 
 535:../STM32Cube_FW_F4_V1.4.0/Drivers/STM32F4xx_HAL_Driver/Src/stm32f4xx_hal_nor.c ****   * @param  hnor: pointer to the NOR handle
 536:../STM32Cube_FW_F4_V1.4.0/Drivers/STM32F4xx_HAL_Driver/Src/stm32f4xx_hal_nor.c ****   * @param  uwAddress: NOR memory internal start write address 
 537:../STM32Cube_FW_F4_V1.4.0/Drivers/STM32F4xx_HAL_Driver/Src/stm32f4xx_hal_nor.c ****   * @param  pData: pointer to source data buffer. 
 538:../STM32Cube_FW_F4_V1.4.0/Drivers/STM32F4xx_HAL_Driver/Src/stm32f4xx_hal_nor.c ****   * @param  uwBufferSize: Size of the buffer to write
 539:../STM32Cube_FW_F4_V1.4.0/Drivers/STM32F4xx_HAL_Driver/Src/stm32f4xx_hal_nor.c ****   * @retval HAL status
 540:../STM32Cube_FW_F4_V1.4.0/Drivers/STM32F4xx_HAL_Driver/Src/stm32f4xx_hal_nor.c ****   */ 
ARM GAS  C:\cygwin\tmp\ccODIXg7.s 			page 23


 541:../STM32Cube_FW_F4_V1.4.0/Drivers/STM32F4xx_HAL_Driver/Src/stm32f4xx_hal_nor.c **** HAL_StatusTypeDef HAL_NOR_ProgramBuffer(NOR_HandleTypeDef *hnor, uint32_t uwAddress, uint16_t *pDat
 542:../STM32Cube_FW_F4_V1.4.0/Drivers/STM32F4xx_HAL_Driver/Src/stm32f4xx_hal_nor.c **** {
 680              		.loc 1 542 0
 681              		.cfi_startproc
 682              		@ args = 0, pretend = 0, frame = 0
 683              		@ frame_needed = 0, uses_anonymous_args = 0
 684              	.LVL48:
 685 0000 F0B5     		push	{r4, r5, r6, r7, lr}	@
 686              		.cfi_def_cfa_offset 20
 687              		.cfi_offset 4, -20
 688              		.cfi_offset 5, -16
 689              		.cfi_offset 6, -12
 690              		.cfi_offset 7, -8
 691              		.cfi_offset 14, -4
 543:../STM32Cube_FW_F4_V1.4.0/Drivers/STM32F4xx_HAL_Driver/Src/stm32f4xx_hal_nor.c ****   uint32_t lastloadedaddress = 0;
 544:../STM32Cube_FW_F4_V1.4.0/Drivers/STM32F4xx_HAL_Driver/Src/stm32f4xx_hal_nor.c ****   uint32_t currentaddress = 0;
 545:../STM32Cube_FW_F4_V1.4.0/Drivers/STM32F4xx_HAL_Driver/Src/stm32f4xx_hal_nor.c ****   uint32_t endaddress = 0;
 546:../STM32Cube_FW_F4_V1.4.0/Drivers/STM32F4xx_HAL_Driver/Src/stm32f4xx_hal_nor.c ****   uint32_t deviceAddress = 0;
 547:../STM32Cube_FW_F4_V1.4.0/Drivers/STM32F4xx_HAL_Driver/Src/stm32f4xx_hal_nor.c ****   
 548:../STM32Cube_FW_F4_V1.4.0/Drivers/STM32F4xx_HAL_Driver/Src/stm32f4xx_hal_nor.c ****   /* Process Locked */
 549:../STM32Cube_FW_F4_V1.4.0/Drivers/STM32F4xx_HAL_Driver/Src/stm32f4xx_hal_nor.c ****   __HAL_LOCK(hnor);
 692              		.loc 1 549 0
 693 0002 90F83C40 		ldrb	r4, [r0, #60]	@ zero_extendqisi2	@ hnor_9(D)->Lock, hnor_9(D)->Lock
 694 0006 012C     		cmp	r4, #1	@ hnor_9(D)->Lock,
 695 0008 01D1     		bne	.L69	@,
 696              	.L71:
 697 000a 0220     		movs	r0, #2	@ D.7849,
 698              	.LVL49:
 699 000c F0BD     		pop	{r4, r5, r6, r7, pc}	@
 700              	.LVL50:
 701              	.L69:
 702              		.loc 1 549 0 is_stmt 0 discriminator 2
 703 000e 0124     		movs	r4, #1	@ tmp142,
 704 0010 80F83C40 		strb	r4, [r0, #60]	@ tmp142, hnor_9(D)->Lock
 550:../STM32Cube_FW_F4_V1.4.0/Drivers/STM32F4xx_HAL_Driver/Src/stm32f4xx_hal_nor.c ****   
 551:../STM32Cube_FW_F4_V1.4.0/Drivers/STM32F4xx_HAL_Driver/Src/stm32f4xx_hal_nor.c ****   /* Check the NOR controller state */
 552:../STM32Cube_FW_F4_V1.4.0/Drivers/STM32F4xx_HAL_Driver/Src/stm32f4xx_hal_nor.c ****   if(hnor->State == HAL_NOR_STATE_BUSY)
 705              		.loc 1 552 0 is_stmt 1 discriminator 2
 706 0014 90F83D40 		ldrb	r4, [r0, #61]	@ zero_extendqisi2	@ hnor_9(D)->State, hnor_9(D)->State
 707 0018 022C     		cmp	r4, #2	@ hnor_9(D)->State,
 708 001a F6D0     		beq	.L71	@,
 553:../STM32Cube_FW_F4_V1.4.0/Drivers/STM32F4xx_HAL_Driver/Src/stm32f4xx_hal_nor.c ****   {
 554:../STM32Cube_FW_F4_V1.4.0/Drivers/STM32F4xx_HAL_Driver/Src/stm32f4xx_hal_nor.c ****      return HAL_BUSY;
 555:../STM32Cube_FW_F4_V1.4.0/Drivers/STM32F4xx_HAL_Driver/Src/stm32f4xx_hal_nor.c ****   }
 556:../STM32Cube_FW_F4_V1.4.0/Drivers/STM32F4xx_HAL_Driver/Src/stm32f4xx_hal_nor.c ****   
 557:../STM32Cube_FW_F4_V1.4.0/Drivers/STM32F4xx_HAL_Driver/Src/stm32f4xx_hal_nor.c ****   /* Select the NOR device address */
 558:../STM32Cube_FW_F4_V1.4.0/Drivers/STM32F4xx_HAL_Driver/Src/stm32f4xx_hal_nor.c ****   if (hnor->Init.NSBank == FMC_NORSRAM_BANK1)
 709              		.loc 1 558 0
 710 001c 8468     		ldr	r4, [r0, #8]	@ D.7852, hnor_9(D)->Init.NSBank
 711 001e 44B1     		cbz	r4, .L75	@ D.7852,
 559:../STM32Cube_FW_F4_V1.4.0/Drivers/STM32F4xx_HAL_Driver/Src/stm32f4xx_hal_nor.c ****   {
 560:../STM32Cube_FW_F4_V1.4.0/Drivers/STM32F4xx_HAL_Driver/Src/stm32f4xx_hal_nor.c ****     deviceAddress = NOR_MEMORY_ADRESS1;
 561:../STM32Cube_FW_F4_V1.4.0/Drivers/STM32F4xx_HAL_Driver/Src/stm32f4xx_hal_nor.c ****   }
 562:../STM32Cube_FW_F4_V1.4.0/Drivers/STM32F4xx_HAL_Driver/Src/stm32f4xx_hal_nor.c ****   else if (hnor->Init.NSBank == FMC_NORSRAM_BANK2)
 712              		.loc 1 562 0
 713 0020 022C     		cmp	r4, #2	@ D.7852,
 714 0022 09D0     		beq	.L76	@,
ARM GAS  C:\cygwin\tmp\ccODIXg7.s 			page 24


 563:../STM32Cube_FW_F4_V1.4.0/Drivers/STM32F4xx_HAL_Driver/Src/stm32f4xx_hal_nor.c ****   {
 564:../STM32Cube_FW_F4_V1.4.0/Drivers/STM32F4xx_HAL_Driver/Src/stm32f4xx_hal_nor.c ****     deviceAddress = NOR_MEMORY_ADRESS2;
 565:../STM32Cube_FW_F4_V1.4.0/Drivers/STM32F4xx_HAL_Driver/Src/stm32f4xx_hal_nor.c ****   }
 566:../STM32Cube_FW_F4_V1.4.0/Drivers/STM32F4xx_HAL_Driver/Src/stm32f4xx_hal_nor.c ****   else if (hnor->Init.NSBank == FMC_NORSRAM_BANK3)
 567:../STM32Cube_FW_F4_V1.4.0/Drivers/STM32F4xx_HAL_Driver/Src/stm32f4xx_hal_nor.c ****   {
 568:../STM32Cube_FW_F4_V1.4.0/Drivers/STM32F4xx_HAL_Driver/Src/stm32f4xx_hal_nor.c ****     deviceAddress = NOR_MEMORY_ADRESS3;
 569:../STM32Cube_FW_F4_V1.4.0/Drivers/STM32F4xx_HAL_Driver/Src/stm32f4xx_hal_nor.c ****   }
 570:../STM32Cube_FW_F4_V1.4.0/Drivers/STM32F4xx_HAL_Driver/Src/stm32f4xx_hal_nor.c ****   else /* FMC_NORSRAM_BANK4 */
 571:../STM32Cube_FW_F4_V1.4.0/Drivers/STM32F4xx_HAL_Driver/Src/stm32f4xx_hal_nor.c ****   {
 572:../STM32Cube_FW_F4_V1.4.0/Drivers/STM32F4xx_HAL_Driver/Src/stm32f4xx_hal_nor.c ****     deviceAddress = NOR_MEMORY_ADRESS4;
 715              		.loc 1 572 0
 716 0024 042C     		cmp	r4, #4	@ D.7852,
 717 0026 0CBF     		ite	eq
 718 0028 4FF0D044 		moveq	r4, #1744830464	@ deviceAddress,
 719 002c 4FF0D844 		movne	r4, #1811939328	@ deviceAddress,
 720 0030 04E0     		b	.L72	@
 721              	.L75:
 560:../STM32Cube_FW_F4_V1.4.0/Drivers/STM32F4xx_HAL_Driver/Src/stm32f4xx_hal_nor.c ****   }
 722              		.loc 1 560 0
 723 0032 4FF0C044 		mov	r4, #1610612736	@ deviceAddress,
 724 0036 01E0     		b	.L72	@
 725              	.L76:
 564:../STM32Cube_FW_F4_V1.4.0/Drivers/STM32F4xx_HAL_Driver/Src/stm32f4xx_hal_nor.c ****   }
 726              		.loc 1 564 0
 727 0038 4FF0C844 		mov	r4, #1677721600	@ deviceAddress,
 728              	.L72:
 729              	.LVL51:
 573:../STM32Cube_FW_F4_V1.4.0/Drivers/STM32F4xx_HAL_Driver/Src/stm32f4xx_hal_nor.c ****   }  
 574:../STM32Cube_FW_F4_V1.4.0/Drivers/STM32F4xx_HAL_Driver/Src/stm32f4xx_hal_nor.c ****     
 575:../STM32Cube_FW_F4_V1.4.0/Drivers/STM32F4xx_HAL_Driver/Src/stm32f4xx_hal_nor.c ****   /* Update the NOR controller state */
 576:../STM32Cube_FW_F4_V1.4.0/Drivers/STM32F4xx_HAL_Driver/Src/stm32f4xx_hal_nor.c ****   hnor->State = HAL_NOR_STATE_BUSY;
 730              		.loc 1 576 0
 731 003c 0225     		movs	r5, #2	@ tmp147,
 732 003e 80F83D50 		strb	r5, [r0, #61]	@ tmp147, hnor_9(D)->State
 733              	.LVL52:
 577:../STM32Cube_FW_F4_V1.4.0/Drivers/STM32F4xx_HAL_Driver/Src/stm32f4xx_hal_nor.c ****   
 578:../STM32Cube_FW_F4_V1.4.0/Drivers/STM32F4xx_HAL_Driver/Src/stm32f4xx_hal_nor.c ****   /* Initialize variables */
 579:../STM32Cube_FW_F4_V1.4.0/Drivers/STM32F4xx_HAL_Driver/Src/stm32f4xx_hal_nor.c ****   currentaddress    = uwAddress;
 580:../STM32Cube_FW_F4_V1.4.0/Drivers/STM32F4xx_HAL_Driver/Src/stm32f4xx_hal_nor.c ****   endaddress        = uwAddress + uwBufferSize - 1;
 581:../STM32Cube_FW_F4_V1.4.0/Drivers/STM32F4xx_HAL_Driver/Src/stm32f4xx_hal_nor.c ****   lastloadedaddress = uwAddress;
 582:../STM32Cube_FW_F4_V1.4.0/Drivers/STM32F4xx_HAL_Driver/Src/stm32f4xx_hal_nor.c **** 
 583:../STM32Cube_FW_F4_V1.4.0/Drivers/STM32F4xx_HAL_Driver/Src/stm32f4xx_hal_nor.c ****   /* Issue unlock command sequence */
 584:../STM32Cube_FW_F4_V1.4.0/Drivers/STM32F4xx_HAL_Driver/Src/stm32f4xx_hal_nor.c ****   NOR_WRITE(NOR_ADDR_SHIFT(deviceAddress, NOR_MEMORY_8B, 0x0555), 0x00AA);
 734              		.loc 1 584 0
 735 0042 AA25     		movs	r5, #170	@ tmp151,
 736 0044 A4F8AA5A 		strh	r5, [r4, #2730]	@ movhi	@ tmp151, *_20
 585:../STM32Cube_FW_F4_V1.4.0/Drivers/STM32F4xx_HAL_Driver/Src/stm32f4xx_hal_nor.c ****   NOR_WRITE(NOR_ADDR_SHIFT(deviceAddress, NOR_MEMORY_8B, 0x02AA), 0x0055); 
 737              		.loc 1 585 0
 738 0048 5525     		movs	r5, #85	@ tmp153,
 739 004a A4F85455 		strh	r5, [r4, #1364]	@ movhi	@ tmp153, *_23
 740 004e 013B     		subs	r3, r3, #1	@ D.7852, uwBufferSize,
 741              	.LVL53:
 586:../STM32Cube_FW_F4_V1.4.0/Drivers/STM32F4xx_HAL_Driver/Src/stm32f4xx_hal_nor.c **** 
 587:../STM32Cube_FW_F4_V1.4.0/Drivers/STM32F4xx_HAL_Driver/Src/stm32f4xx_hal_nor.c ****   /* Write Buffer Load Command */
 588:../STM32Cube_FW_F4_V1.4.0/Drivers/STM32F4xx_HAL_Driver/Src/stm32f4xx_hal_nor.c ****   NOR_WRITE(NOR_ADDR_SHIFT(deviceAddress, NOR_MEMORY_8B, uwAddress), 0x25); 
 742              		.loc 1 588 0
 743 0050 2525     		movs	r5, #37	@ tmp155,
ARM GAS  C:\cygwin\tmp\ccODIXg7.s 			page 25


 744 0052 24F81150 		strh	r5, [r4, r1, lsl #1]	@ movhi	@ tmp155, *_27
 580:../STM32Cube_FW_F4_V1.4.0/Drivers/STM32F4xx_HAL_Driver/Src/stm32f4xx_hal_nor.c ****   lastloadedaddress = uwAddress;
 745              		.loc 1 580 0
 746 0056 5E18     		adds	r6, r3, r1	@ endaddress, D.7852, uwAddress
 747              	.LVL54:
 748 0058 C2EB4105 		rsb	r5, r2, r1, lsl #1	@, D.7853, pData, uwAddress,
 589:../STM32Cube_FW_F4_V1.4.0/Drivers/STM32F4xx_HAL_Driver/Src/stm32f4xx_hal_nor.c ****   NOR_WRITE(NOR_ADDR_SHIFT(deviceAddress, NOR_MEMORY_8B, uwAddress), (uwBufferSize - 1)); 
 749              		.loc 1 589 0
 750 005c 9BB2     		uxth	r3, r3	@ D.7855, D.7852
 751              	.LVL55:
 752 005e 24F81130 		strh	r3, [r4, r1, lsl #1]	@ movhi	@ D.7855, *_27
 753 0062 2544     		add	r5, r5, r4	@ D.7853, deviceAddress
 579:../STM32Cube_FW_F4_V1.4.0/Drivers/STM32F4xx_HAL_Driver/Src/stm32f4xx_hal_nor.c ****   endaddress        = uwAddress + uwBufferSize - 1;
 754              		.loc 1 579 0
 755 0064 0B46     		mov	r3, r1	@ uwAddress, uwAddress
 756              	.LVL56:
 757              	.L73:
 590:../STM32Cube_FW_F4_V1.4.0/Drivers/STM32F4xx_HAL_Driver/Src/stm32f4xx_hal_nor.c **** 
 591:../STM32Cube_FW_F4_V1.4.0/Drivers/STM32F4xx_HAL_Driver/Src/stm32f4xx_hal_nor.c ****   /* Load Data into NOR Buffer */
 592:../STM32Cube_FW_F4_V1.4.0/Drivers/STM32F4xx_HAL_Driver/Src/stm32f4xx_hal_nor.c ****   while(currentaddress <= endaddress)
 758              		.loc 1 592 0
 759 0066 B342     		cmp	r3, r6	@ uwAddress, endaddress
 760 0068 06D8     		bhi	.L81	@,
 761              	.LVL57:
 762 006a 5119     		adds	r1, r2, r5	@ D.7854, pData, D.7853
 763              	.LVL58:
 593:../STM32Cube_FW_F4_V1.4.0/Drivers/STM32F4xx_HAL_Driver/Src/stm32f4xx_hal_nor.c ****   {
 594:../STM32Cube_FW_F4_V1.4.0/Drivers/STM32F4xx_HAL_Driver/Src/stm32f4xx_hal_nor.c ****     /* Store last loaded address & data value (for polling) */
 595:../STM32Cube_FW_F4_V1.4.0/Drivers/STM32F4xx_HAL_Driver/Src/stm32f4xx_hal_nor.c ****     lastloadedaddress = currentaddress;
 596:../STM32Cube_FW_F4_V1.4.0/Drivers/STM32F4xx_HAL_Driver/Src/stm32f4xx_hal_nor.c ****  
 597:../STM32Cube_FW_F4_V1.4.0/Drivers/STM32F4xx_HAL_Driver/Src/stm32f4xx_hal_nor.c ****     NOR_WRITE(NOR_ADDR_SHIFT(deviceAddress, NOR_MEMORY_8B, currentaddress), *pData++);
 764              		.loc 1 597 0
 765 006c 32F8027B 		ldrh	r7, [r2], #2	@ D.7855, MEM[base: pData_36, offset: 4294967294B]
 766              	.LVL59:
 767 0070 0F80     		strh	r7, [r1]	@ movhi	@ D.7855, *_52
 598:../STM32Cube_FW_F4_V1.4.0/Drivers/STM32F4xx_HAL_Driver/Src/stm32f4xx_hal_nor.c ****     
 599:../STM32Cube_FW_F4_V1.4.0/Drivers/STM32F4xx_HAL_Driver/Src/stm32f4xx_hal_nor.c ****     currentaddress += 1; 
 768              		.loc 1 599 0
 769 0072 1946     		mov	r1, r3	@ uwAddress, uwAddress
 770 0074 0133     		adds	r3, r3, #1	@ uwAddress, uwAddress,
 771              	.LVL60:
 772 0076 F6E7     		b	.L73	@
 773              	.LVL61:
 774              	.L81:
 600:../STM32Cube_FW_F4_V1.4.0/Drivers/STM32F4xx_HAL_Driver/Src/stm32f4xx_hal_nor.c ****   }
 601:../STM32Cube_FW_F4_V1.4.0/Drivers/STM32F4xx_HAL_Driver/Src/stm32f4xx_hal_nor.c **** 
 602:../STM32Cube_FW_F4_V1.4.0/Drivers/STM32F4xx_HAL_Driver/Src/stm32f4xx_hal_nor.c ****   NOR_WRITE(NOR_ADDR_SHIFT(deviceAddress, NOR_MEMORY_8B, lastloadedaddress), 0x29); 
 775              		.loc 1 602 0
 776 0078 2923     		movs	r3, #41	@ tmp163,
 777              	.LVL62:
 778 007a 24F81130 		strh	r3, [r4, r1, lsl #1]	@ movhi	@ tmp163, *_42
 603:../STM32Cube_FW_F4_V1.4.0/Drivers/STM32F4xx_HAL_Driver/Src/stm32f4xx_hal_nor.c ****   
 604:../STM32Cube_FW_F4_V1.4.0/Drivers/STM32F4xx_HAL_Driver/Src/stm32f4xx_hal_nor.c ****   /* Check the NOR controller state */
 605:../STM32Cube_FW_F4_V1.4.0/Drivers/STM32F4xx_HAL_Driver/Src/stm32f4xx_hal_nor.c ****   hnor->State = HAL_NOR_STATE_READY;
 779              		.loc 1 605 0
 780 007e 0123     		movs	r3, #1	@ tmp164,
 781 0080 80F83D30 		strb	r3, [r0, #61]	@ tmp164, hnor_9(D)->State
ARM GAS  C:\cygwin\tmp\ccODIXg7.s 			page 26


 606:../STM32Cube_FW_F4_V1.4.0/Drivers/STM32F4xx_HAL_Driver/Src/stm32f4xx_hal_nor.c ****   
 607:../STM32Cube_FW_F4_V1.4.0/Drivers/STM32F4xx_HAL_Driver/Src/stm32f4xx_hal_nor.c ****   /* Process unlocked */
 608:../STM32Cube_FW_F4_V1.4.0/Drivers/STM32F4xx_HAL_Driver/Src/stm32f4xx_hal_nor.c ****   __HAL_UNLOCK(hnor);
 782              		.loc 1 608 0
 783 0084 0023     		movs	r3, #0	@ tmp166,
 784 0086 80F83C30 		strb	r3, [r0, #60]	@ tmp166, hnor_9(D)->Lock
 609:../STM32Cube_FW_F4_V1.4.0/Drivers/STM32F4xx_HAL_Driver/Src/stm32f4xx_hal_nor.c ****   
 610:../STM32Cube_FW_F4_V1.4.0/Drivers/STM32F4xx_HAL_Driver/Src/stm32f4xx_hal_nor.c ****   return HAL_OK; 
 785              		.loc 1 610 0
 786 008a 1846     		mov	r0, r3	@ D.7849, tmp166
 787              	.LVL63:
 611:../STM32Cube_FW_F4_V1.4.0/Drivers/STM32F4xx_HAL_Driver/Src/stm32f4xx_hal_nor.c ****   
 612:../STM32Cube_FW_F4_V1.4.0/Drivers/STM32F4xx_HAL_Driver/Src/stm32f4xx_hal_nor.c **** }
 788              		.loc 1 612 0
 789 008c F0BD     		pop	{r4, r5, r6, r7, pc}	@
 790              		.cfi_endproc
 791              	.LFE133:
 792              		.size	HAL_NOR_ProgramBuffer, .-HAL_NOR_ProgramBuffer
 793              		.section	.text.HAL_NOR_Erase_Block,"ax",%progbits
 794              		.align	1
 795              		.global	HAL_NOR_Erase_Block
 796              		.thumb
 797              		.thumb_func
 798              		.type	HAL_NOR_Erase_Block, %function
 799              	HAL_NOR_Erase_Block:
 800              	.LFB134:
 613:../STM32Cube_FW_F4_V1.4.0/Drivers/STM32F4xx_HAL_Driver/Src/stm32f4xx_hal_nor.c **** 
 614:../STM32Cube_FW_F4_V1.4.0/Drivers/STM32F4xx_HAL_Driver/Src/stm32f4xx_hal_nor.c **** /**
 615:../STM32Cube_FW_F4_V1.4.0/Drivers/STM32F4xx_HAL_Driver/Src/stm32f4xx_hal_nor.c ****   * @brief  Erase the specified block of the NOR memory 
 616:../STM32Cube_FW_F4_V1.4.0/Drivers/STM32F4xx_HAL_Driver/Src/stm32f4xx_hal_nor.c ****   * @param  hnor: pointer to the NOR handle
 617:../STM32Cube_FW_F4_V1.4.0/Drivers/STM32F4xx_HAL_Driver/Src/stm32f4xx_hal_nor.c ****   * @param  BlockAddress : Block to erase address 
 618:../STM32Cube_FW_F4_V1.4.0/Drivers/STM32F4xx_HAL_Driver/Src/stm32f4xx_hal_nor.c ****   * @param  Address: Device address
 619:../STM32Cube_FW_F4_V1.4.0/Drivers/STM32F4xx_HAL_Driver/Src/stm32f4xx_hal_nor.c ****   * @retval HAL status
 620:../STM32Cube_FW_F4_V1.4.0/Drivers/STM32F4xx_HAL_Driver/Src/stm32f4xx_hal_nor.c ****   */
 621:../STM32Cube_FW_F4_V1.4.0/Drivers/STM32F4xx_HAL_Driver/Src/stm32f4xx_hal_nor.c **** HAL_StatusTypeDef HAL_NOR_Erase_Block(NOR_HandleTypeDef *hnor, uint32_t BlockAddress, uint32_t Addr
 622:../STM32Cube_FW_F4_V1.4.0/Drivers/STM32F4xx_HAL_Driver/Src/stm32f4xx_hal_nor.c **** {
 801              		.loc 1 622 0
 802              		.cfi_startproc
 803              		@ args = 0, pretend = 0, frame = 0
 804              		@ frame_needed = 0, uses_anonymous_args = 0
 805              	.LVL64:
 623:../STM32Cube_FW_F4_V1.4.0/Drivers/STM32F4xx_HAL_Driver/Src/stm32f4xx_hal_nor.c ****   uint32_t deviceAddress = 0;
 624:../STM32Cube_FW_F4_V1.4.0/Drivers/STM32F4xx_HAL_Driver/Src/stm32f4xx_hal_nor.c **** 
 625:../STM32Cube_FW_F4_V1.4.0/Drivers/STM32F4xx_HAL_Driver/Src/stm32f4xx_hal_nor.c ****   /* Process Locked */
 626:../STM32Cube_FW_F4_V1.4.0/Drivers/STM32F4xx_HAL_Driver/Src/stm32f4xx_hal_nor.c ****   __HAL_LOCK(hnor);
 806              		.loc 1 626 0
 807 0000 90F83C30 		ldrb	r3, [r0, #60]	@ zero_extendqisi2	@ hnor_5(D)->Lock, hnor_5(D)->Lock
 808 0004 012B     		cmp	r3, #1	@ hnor_5(D)->Lock,
 622:../STM32Cube_FW_F4_V1.4.0/Drivers/STM32F4xx_HAL_Driver/Src/stm32f4xx_hal_nor.c ****   uint32_t deviceAddress = 0;
 809              		.loc 1 622 0
 810 0006 70B5     		push	{r4, r5, r6, lr}	@
 811              		.cfi_def_cfa_offset 16
 812              		.cfi_offset 4, -16
 813              		.cfi_offset 5, -12
 814              		.cfi_offset 6, -8
 815              		.cfi_offset 14, -4
 816              		.loc 1 626 0
ARM GAS  C:\cygwin\tmp\ccODIXg7.s 			page 27


 817 0008 01D1     		bne	.L83	@,
 818              	.L85:
 819 000a 0220     		movs	r0, #2	@ D.7858,
 820              	.LVL65:
 821 000c 70BD     		pop	{r4, r5, r6, pc}	@
 822              	.LVL66:
 823              	.L83:
 824              		.loc 1 626 0 is_stmt 0 discriminator 2
 825 000e 0123     		movs	r3, #1	@ tmp126,
 826 0010 80F83C30 		strb	r3, [r0, #60]	@ tmp126, hnor_5(D)->Lock
 627:../STM32Cube_FW_F4_V1.4.0/Drivers/STM32F4xx_HAL_Driver/Src/stm32f4xx_hal_nor.c ****   
 628:../STM32Cube_FW_F4_V1.4.0/Drivers/STM32F4xx_HAL_Driver/Src/stm32f4xx_hal_nor.c ****   /* Check the NOR controller state */
 629:../STM32Cube_FW_F4_V1.4.0/Drivers/STM32F4xx_HAL_Driver/Src/stm32f4xx_hal_nor.c ****   if(hnor->State == HAL_NOR_STATE_BUSY)
 827              		.loc 1 629 0 is_stmt 1 discriminator 2
 828 0014 90F83D30 		ldrb	r3, [r0, #61]	@ zero_extendqisi2	@ hnor_5(D)->State, hnor_5(D)->State
 829 0018 022B     		cmp	r3, #2	@ hnor_5(D)->State,
 830 001a F6D0     		beq	.L85	@,
 630:../STM32Cube_FW_F4_V1.4.0/Drivers/STM32F4xx_HAL_Driver/Src/stm32f4xx_hal_nor.c ****   {
 631:../STM32Cube_FW_F4_V1.4.0/Drivers/STM32F4xx_HAL_Driver/Src/stm32f4xx_hal_nor.c ****      return HAL_BUSY;
 632:../STM32Cube_FW_F4_V1.4.0/Drivers/STM32F4xx_HAL_Driver/Src/stm32f4xx_hal_nor.c ****   }
 633:../STM32Cube_FW_F4_V1.4.0/Drivers/STM32F4xx_HAL_Driver/Src/stm32f4xx_hal_nor.c ****   
 634:../STM32Cube_FW_F4_V1.4.0/Drivers/STM32F4xx_HAL_Driver/Src/stm32f4xx_hal_nor.c ****   /* Select the NOR device address */
 635:../STM32Cube_FW_F4_V1.4.0/Drivers/STM32F4xx_HAL_Driver/Src/stm32f4xx_hal_nor.c ****   if (hnor->Init.NSBank == FMC_NORSRAM_BANK1)
 831              		.loc 1 635 0
 832 001c 8368     		ldr	r3, [r0, #8]	@ D.7861, hnor_5(D)->Init.NSBank
 833 001e 43B1     		cbz	r3, .L87	@ D.7861,
 636:../STM32Cube_FW_F4_V1.4.0/Drivers/STM32F4xx_HAL_Driver/Src/stm32f4xx_hal_nor.c ****   {
 637:../STM32Cube_FW_F4_V1.4.0/Drivers/STM32F4xx_HAL_Driver/Src/stm32f4xx_hal_nor.c ****     deviceAddress = NOR_MEMORY_ADRESS1;
 638:../STM32Cube_FW_F4_V1.4.0/Drivers/STM32F4xx_HAL_Driver/Src/stm32f4xx_hal_nor.c ****   }
 639:../STM32Cube_FW_F4_V1.4.0/Drivers/STM32F4xx_HAL_Driver/Src/stm32f4xx_hal_nor.c ****   else if (hnor->Init.NSBank == FMC_NORSRAM_BANK2)
 834              		.loc 1 639 0
 835 0020 022B     		cmp	r3, #2	@ D.7861,
 836 0022 09D0     		beq	.L88	@,
 640:../STM32Cube_FW_F4_V1.4.0/Drivers/STM32F4xx_HAL_Driver/Src/stm32f4xx_hal_nor.c ****   {
 641:../STM32Cube_FW_F4_V1.4.0/Drivers/STM32F4xx_HAL_Driver/Src/stm32f4xx_hal_nor.c ****     deviceAddress = NOR_MEMORY_ADRESS2;
 642:../STM32Cube_FW_F4_V1.4.0/Drivers/STM32F4xx_HAL_Driver/Src/stm32f4xx_hal_nor.c ****   }
 643:../STM32Cube_FW_F4_V1.4.0/Drivers/STM32F4xx_HAL_Driver/Src/stm32f4xx_hal_nor.c ****   else if (hnor->Init.NSBank == FMC_NORSRAM_BANK3)
 644:../STM32Cube_FW_F4_V1.4.0/Drivers/STM32F4xx_HAL_Driver/Src/stm32f4xx_hal_nor.c ****   {
 645:../STM32Cube_FW_F4_V1.4.0/Drivers/STM32F4xx_HAL_Driver/Src/stm32f4xx_hal_nor.c ****     deviceAddress = NOR_MEMORY_ADRESS3;
 646:../STM32Cube_FW_F4_V1.4.0/Drivers/STM32F4xx_HAL_Driver/Src/stm32f4xx_hal_nor.c ****   }
 647:../STM32Cube_FW_F4_V1.4.0/Drivers/STM32F4xx_HAL_Driver/Src/stm32f4xx_hal_nor.c ****   else /* FMC_NORSRAM_BANK4 */
 648:../STM32Cube_FW_F4_V1.4.0/Drivers/STM32F4xx_HAL_Driver/Src/stm32f4xx_hal_nor.c ****   {
 649:../STM32Cube_FW_F4_V1.4.0/Drivers/STM32F4xx_HAL_Driver/Src/stm32f4xx_hal_nor.c ****     deviceAddress = NOR_MEMORY_ADRESS4;
 837              		.loc 1 649 0
 838 0024 042B     		cmp	r3, #4	@ D.7861,
 839 0026 0CBF     		ite	eq
 840 0028 4FF0D043 		moveq	r3, #1744830464	@ deviceAddress,
 841 002c 4FF0D843 		movne	r3, #1811939328	@ deviceAddress,
 842 0030 04E0     		b	.L86	@
 843              	.L87:
 637:../STM32Cube_FW_F4_V1.4.0/Drivers/STM32F4xx_HAL_Driver/Src/stm32f4xx_hal_nor.c ****   }
 844              		.loc 1 637 0
 845 0032 4FF0C043 		mov	r3, #1610612736	@ deviceAddress,
 846 0036 01E0     		b	.L86	@
 847              	.L88:
 641:../STM32Cube_FW_F4_V1.4.0/Drivers/STM32F4xx_HAL_Driver/Src/stm32f4xx_hal_nor.c ****   }
 848              		.loc 1 641 0
ARM GAS  C:\cygwin\tmp\ccODIXg7.s 			page 28


 849 0038 4FF0C843 		mov	r3, #1677721600	@ deviceAddress,
 850              	.L86:
 851              	.LVL67:
 650:../STM32Cube_FW_F4_V1.4.0/Drivers/STM32F4xx_HAL_Driver/Src/stm32f4xx_hal_nor.c ****   }
 651:../STM32Cube_FW_F4_V1.4.0/Drivers/STM32F4xx_HAL_Driver/Src/stm32f4xx_hal_nor.c ****     
 652:../STM32Cube_FW_F4_V1.4.0/Drivers/STM32F4xx_HAL_Driver/Src/stm32f4xx_hal_nor.c ****   /* Update the NOR controller state */
 653:../STM32Cube_FW_F4_V1.4.0/Drivers/STM32F4xx_HAL_Driver/Src/stm32f4xx_hal_nor.c ****   hnor->State = HAL_NOR_STATE_BUSY;
 852              		.loc 1 653 0
 853 003c 0224     		movs	r4, #2	@ tmp131,
 854 003e 80F83D40 		strb	r4, [r0, #61]	@ tmp131, hnor_5(D)->State
 654:../STM32Cube_FW_F4_V1.4.0/Drivers/STM32F4xx_HAL_Driver/Src/stm32f4xx_hal_nor.c ****   
 655:../STM32Cube_FW_F4_V1.4.0/Drivers/STM32F4xx_HAL_Driver/Src/stm32f4xx_hal_nor.c ****   /* Send block erase command sequence */
 656:../STM32Cube_FW_F4_V1.4.0/Drivers/STM32F4xx_HAL_Driver/Src/stm32f4xx_hal_nor.c ****   NOR_WRITE(NOR_ADDR_SHIFT(deviceAddress, NOR_MEMORY_8B, 0x0555), 0x00AA);
 855              		.loc 1 656 0
 856 0042 AA25     		movs	r5, #170	@ tmp134,
 657:../STM32Cube_FW_F4_V1.4.0/Drivers/STM32F4xx_HAL_Driver/Src/stm32f4xx_hal_nor.c ****   NOR_WRITE(NOR_ADDR_SHIFT(deviceAddress, NOR_MEMORY_8B, 0x02AA), 0x0055);
 857              		.loc 1 657 0
 858 0044 5524     		movs	r4, #85	@ tmp136,
 658:../STM32Cube_FW_F4_V1.4.0/Drivers/STM32F4xx_HAL_Driver/Src/stm32f4xx_hal_nor.c ****   NOR_WRITE(NOR_ADDR_SHIFT(deviceAddress, NOR_MEMORY_8B, 0x0555), 0x0080);
 859              		.loc 1 658 0
 860 0046 8026     		movs	r6, #128	@ tmp138,
 656:../STM32Cube_FW_F4_V1.4.0/Drivers/STM32F4xx_HAL_Driver/Src/stm32f4xx_hal_nor.c ****   NOR_WRITE(NOR_ADDR_SHIFT(deviceAddress, NOR_MEMORY_8B, 0x02AA), 0x0055);
 861              		.loc 1 656 0
 862 0048 A3F8AA5A 		strh	r5, [r3, #2730]	@ movhi	@ tmp134, *_12
 657:../STM32Cube_FW_F4_V1.4.0/Drivers/STM32F4xx_HAL_Driver/Src/stm32f4xx_hal_nor.c ****   NOR_WRITE(NOR_ADDR_SHIFT(deviceAddress, NOR_MEMORY_8B, 0x02AA), 0x0055);
 863              		.loc 1 657 0
 864 004c A3F85445 		strh	r4, [r3, #1364]	@ movhi	@ tmp136, *_15
 865              		.loc 1 658 0
 866 0050 A3F8AA6A 		strh	r6, [r3, #2730]	@ movhi	@ tmp138, *_12
 659:../STM32Cube_FW_F4_V1.4.0/Drivers/STM32F4xx_HAL_Driver/Src/stm32f4xx_hal_nor.c ****   NOR_WRITE(NOR_ADDR_SHIFT(deviceAddress, NOR_MEMORY_8B, 0x0555), 0x00AA);
 867              		.loc 1 659 0
 868 0054 A3F8AA5A 		strh	r5, [r3, #2730]	@ movhi	@ tmp134, *_12
 660:../STM32Cube_FW_F4_V1.4.0/Drivers/STM32F4xx_HAL_Driver/Src/stm32f4xx_hal_nor.c ****   NOR_WRITE(NOR_ADDR_SHIFT(deviceAddress, NOR_MEMORY_8B, 0x02AA), 0x0055);
 869              		.loc 1 660 0
 870 0058 A3F85445 		strh	r4, [r3, #1364]	@ movhi	@ tmp136, *_15
 661:../STM32Cube_FW_F4_V1.4.0/Drivers/STM32F4xx_HAL_Driver/Src/stm32f4xx_hal_nor.c ****   NOR_WRITE((uint32_t)(BlockAddress + Address), 0x30);
 871              		.loc 1 661 0
 872 005c 3023     		movs	r3, #48	@ tmp144,
 873              	.LVL68:
 874 005e 8B52     		strh	r3, [r1, r2]	@ movhi	@ tmp144, *_23
 662:../STM32Cube_FW_F4_V1.4.0/Drivers/STM32F4xx_HAL_Driver/Src/stm32f4xx_hal_nor.c **** 
 663:../STM32Cube_FW_F4_V1.4.0/Drivers/STM32F4xx_HAL_Driver/Src/stm32f4xx_hal_nor.c ****   /* Check the NOR memory status and update the controller state */
 664:../STM32Cube_FW_F4_V1.4.0/Drivers/STM32F4xx_HAL_Driver/Src/stm32f4xx_hal_nor.c ****   hnor->State = HAL_NOR_STATE_READY;
 875              		.loc 1 664 0
 876 0060 0123     		movs	r3, #1	@ tmp145,
 877 0062 80F83D30 		strb	r3, [r0, #61]	@ tmp145, hnor_5(D)->State
 665:../STM32Cube_FW_F4_V1.4.0/Drivers/STM32F4xx_HAL_Driver/Src/stm32f4xx_hal_nor.c ****     
 666:../STM32Cube_FW_F4_V1.4.0/Drivers/STM32F4xx_HAL_Driver/Src/stm32f4xx_hal_nor.c ****   /* Process unlocked */
 667:../STM32Cube_FW_F4_V1.4.0/Drivers/STM32F4xx_HAL_Driver/Src/stm32f4xx_hal_nor.c ****   __HAL_UNLOCK(hnor);
 878              		.loc 1 667 0
 879 0066 0023     		movs	r3, #0	@ tmp147,
 880 0068 80F83C30 		strb	r3, [r0, #60]	@ tmp147, hnor_5(D)->Lock
 668:../STM32Cube_FW_F4_V1.4.0/Drivers/STM32F4xx_HAL_Driver/Src/stm32f4xx_hal_nor.c ****   
 669:../STM32Cube_FW_F4_V1.4.0/Drivers/STM32F4xx_HAL_Driver/Src/stm32f4xx_hal_nor.c ****   return HAL_OK;
 881              		.loc 1 669 0
 882 006c 1846     		mov	r0, r3	@ D.7858, tmp147
 883              	.LVL69:
ARM GAS  C:\cygwin\tmp\ccODIXg7.s 			page 29


 670:../STM32Cube_FW_F4_V1.4.0/Drivers/STM32F4xx_HAL_Driver/Src/stm32f4xx_hal_nor.c ****  
 671:../STM32Cube_FW_F4_V1.4.0/Drivers/STM32F4xx_HAL_Driver/Src/stm32f4xx_hal_nor.c **** }
 884              		.loc 1 671 0
 885 006e 70BD     		pop	{r4, r5, r6, pc}	@
 886              		.cfi_endproc
 887              	.LFE134:
 888              		.size	HAL_NOR_Erase_Block, .-HAL_NOR_Erase_Block
 889              		.section	.text.HAL_NOR_Erase_Chip,"ax",%progbits
 890              		.align	1
 891              		.global	HAL_NOR_Erase_Chip
 892              		.thumb
 893              		.thumb_func
 894              		.type	HAL_NOR_Erase_Chip, %function
 895              	HAL_NOR_Erase_Chip:
 896              	.LFB135:
 672:../STM32Cube_FW_F4_V1.4.0/Drivers/STM32F4xx_HAL_Driver/Src/stm32f4xx_hal_nor.c **** 
 673:../STM32Cube_FW_F4_V1.4.0/Drivers/STM32F4xx_HAL_Driver/Src/stm32f4xx_hal_nor.c **** /**
 674:../STM32Cube_FW_F4_V1.4.0/Drivers/STM32F4xx_HAL_Driver/Src/stm32f4xx_hal_nor.c ****   * @brief  Erase the entire NOR chip.
 675:../STM32Cube_FW_F4_V1.4.0/Drivers/STM32F4xx_HAL_Driver/Src/stm32f4xx_hal_nor.c ****   * @param  hnor: pointer to the NOR handle
 676:../STM32Cube_FW_F4_V1.4.0/Drivers/STM32F4xx_HAL_Driver/Src/stm32f4xx_hal_nor.c ****   * @param  Address : Device address  
 677:../STM32Cube_FW_F4_V1.4.0/Drivers/STM32F4xx_HAL_Driver/Src/stm32f4xx_hal_nor.c ****   * @retval HAL status
 678:../STM32Cube_FW_F4_V1.4.0/Drivers/STM32F4xx_HAL_Driver/Src/stm32f4xx_hal_nor.c ****   */
 679:../STM32Cube_FW_F4_V1.4.0/Drivers/STM32F4xx_HAL_Driver/Src/stm32f4xx_hal_nor.c **** HAL_StatusTypeDef HAL_NOR_Erase_Chip(NOR_HandleTypeDef *hnor, uint32_t Address)
 680:../STM32Cube_FW_F4_V1.4.0/Drivers/STM32F4xx_HAL_Driver/Src/stm32f4xx_hal_nor.c **** {
 897              		.loc 1 680 0
 898              		.cfi_startproc
 899              		@ args = 0, pretend = 0, frame = 0
 900              		@ frame_needed = 0, uses_anonymous_args = 0
 901              	.LVL70:
 681:../STM32Cube_FW_F4_V1.4.0/Drivers/STM32F4xx_HAL_Driver/Src/stm32f4xx_hal_nor.c ****   uint32_t deviceAddress = 0;
 682:../STM32Cube_FW_F4_V1.4.0/Drivers/STM32F4xx_HAL_Driver/Src/stm32f4xx_hal_nor.c ****   
 683:../STM32Cube_FW_F4_V1.4.0/Drivers/STM32F4xx_HAL_Driver/Src/stm32f4xx_hal_nor.c ****   /* Process Locked */
 684:../STM32Cube_FW_F4_V1.4.0/Drivers/STM32F4xx_HAL_Driver/Src/stm32f4xx_hal_nor.c ****   __HAL_LOCK(hnor);
 902              		.loc 1 684 0
 903 0000 90F83C30 		ldrb	r3, [r0, #60]	@ zero_extendqisi2	@ hnor_5(D)->Lock, hnor_5(D)->Lock
 904 0004 012B     		cmp	r3, #1	@ hnor_5(D)->Lock,
 680:../STM32Cube_FW_F4_V1.4.0/Drivers/STM32F4xx_HAL_Driver/Src/stm32f4xx_hal_nor.c ****   uint32_t deviceAddress = 0;
 905              		.loc 1 680 0
 906 0006 10B5     		push	{r4, lr}	@
 907              		.cfi_def_cfa_offset 8
 908              		.cfi_offset 4, -8
 909              		.cfi_offset 14, -4
 910              		.loc 1 684 0
 911 0008 01D1     		bne	.L94	@,
 912              	.L96:
 913 000a 0220     		movs	r0, #2	@ D.7865,
 914              	.LVL71:
 915 000c 10BD     		pop	{r4, pc}	@
 916              	.LVL72:
 917              	.L94:
 918              		.loc 1 684 0 is_stmt 0 discriminator 2
 919 000e 0123     		movs	r3, #1	@ tmp123,
 920 0010 80F83C30 		strb	r3, [r0, #60]	@ tmp123, hnor_5(D)->Lock
 685:../STM32Cube_FW_F4_V1.4.0/Drivers/STM32F4xx_HAL_Driver/Src/stm32f4xx_hal_nor.c ****   
 686:../STM32Cube_FW_F4_V1.4.0/Drivers/STM32F4xx_HAL_Driver/Src/stm32f4xx_hal_nor.c ****   /* Check the NOR controller state */
 687:../STM32Cube_FW_F4_V1.4.0/Drivers/STM32F4xx_HAL_Driver/Src/stm32f4xx_hal_nor.c ****   if(hnor->State == HAL_NOR_STATE_BUSY)
 921              		.loc 1 687 0 is_stmt 1 discriminator 2
ARM GAS  C:\cygwin\tmp\ccODIXg7.s 			page 30


 922 0014 90F83D30 		ldrb	r3, [r0, #61]	@ zero_extendqisi2	@ hnor_5(D)->State, hnor_5(D)->State
 923 0018 022B     		cmp	r3, #2	@ hnor_5(D)->State,
 924 001a F6D0     		beq	.L96	@,
 688:../STM32Cube_FW_F4_V1.4.0/Drivers/STM32F4xx_HAL_Driver/Src/stm32f4xx_hal_nor.c ****   {
 689:../STM32Cube_FW_F4_V1.4.0/Drivers/STM32F4xx_HAL_Driver/Src/stm32f4xx_hal_nor.c ****      return HAL_BUSY;
 690:../STM32Cube_FW_F4_V1.4.0/Drivers/STM32F4xx_HAL_Driver/Src/stm32f4xx_hal_nor.c ****   }
 691:../STM32Cube_FW_F4_V1.4.0/Drivers/STM32F4xx_HAL_Driver/Src/stm32f4xx_hal_nor.c ****   
 692:../STM32Cube_FW_F4_V1.4.0/Drivers/STM32F4xx_HAL_Driver/Src/stm32f4xx_hal_nor.c ****   /* Select the NOR device address */
 693:../STM32Cube_FW_F4_V1.4.0/Drivers/STM32F4xx_HAL_Driver/Src/stm32f4xx_hal_nor.c ****   if (hnor->Init.NSBank == FMC_NORSRAM_BANK1)
 925              		.loc 1 693 0
 926 001c 8368     		ldr	r3, [r0, #8]	@ D.7868, hnor_5(D)->Init.NSBank
 927 001e 43B1     		cbz	r3, .L98	@ D.7868,
 694:../STM32Cube_FW_F4_V1.4.0/Drivers/STM32F4xx_HAL_Driver/Src/stm32f4xx_hal_nor.c ****   {
 695:../STM32Cube_FW_F4_V1.4.0/Drivers/STM32F4xx_HAL_Driver/Src/stm32f4xx_hal_nor.c ****     deviceAddress = NOR_MEMORY_ADRESS1;
 696:../STM32Cube_FW_F4_V1.4.0/Drivers/STM32F4xx_HAL_Driver/Src/stm32f4xx_hal_nor.c ****   }
 697:../STM32Cube_FW_F4_V1.4.0/Drivers/STM32F4xx_HAL_Driver/Src/stm32f4xx_hal_nor.c ****   else if (hnor->Init.NSBank == FMC_NORSRAM_BANK2)
 928              		.loc 1 697 0
 929 0020 022B     		cmp	r3, #2	@ D.7868,
 930 0022 09D0     		beq	.L99	@,
 698:../STM32Cube_FW_F4_V1.4.0/Drivers/STM32F4xx_HAL_Driver/Src/stm32f4xx_hal_nor.c ****   {
 699:../STM32Cube_FW_F4_V1.4.0/Drivers/STM32F4xx_HAL_Driver/Src/stm32f4xx_hal_nor.c ****     deviceAddress = NOR_MEMORY_ADRESS2;
 700:../STM32Cube_FW_F4_V1.4.0/Drivers/STM32F4xx_HAL_Driver/Src/stm32f4xx_hal_nor.c ****   }
 701:../STM32Cube_FW_F4_V1.4.0/Drivers/STM32F4xx_HAL_Driver/Src/stm32f4xx_hal_nor.c ****   else if (hnor->Init.NSBank == FMC_NORSRAM_BANK3)
 702:../STM32Cube_FW_F4_V1.4.0/Drivers/STM32F4xx_HAL_Driver/Src/stm32f4xx_hal_nor.c ****   {
 703:../STM32Cube_FW_F4_V1.4.0/Drivers/STM32F4xx_HAL_Driver/Src/stm32f4xx_hal_nor.c ****     deviceAddress = NOR_MEMORY_ADRESS3;
 704:../STM32Cube_FW_F4_V1.4.0/Drivers/STM32F4xx_HAL_Driver/Src/stm32f4xx_hal_nor.c ****   }
 705:../STM32Cube_FW_F4_V1.4.0/Drivers/STM32F4xx_HAL_Driver/Src/stm32f4xx_hal_nor.c ****   else /* FMC_NORSRAM_BANK4 */
 706:../STM32Cube_FW_F4_V1.4.0/Drivers/STM32F4xx_HAL_Driver/Src/stm32f4xx_hal_nor.c ****   {
 707:../STM32Cube_FW_F4_V1.4.0/Drivers/STM32F4xx_HAL_Driver/Src/stm32f4xx_hal_nor.c ****     deviceAddress = NOR_MEMORY_ADRESS4;
 931              		.loc 1 707 0
 932 0024 042B     		cmp	r3, #4	@ D.7868,
 933 0026 0CBF     		ite	eq
 934 0028 4FF0D043 		moveq	r3, #1744830464	@ deviceAddress,
 935 002c 4FF0D843 		movne	r3, #1811939328	@ deviceAddress,
 936 0030 04E0     		b	.L97	@
 937              	.L98:
 695:../STM32Cube_FW_F4_V1.4.0/Drivers/STM32F4xx_HAL_Driver/Src/stm32f4xx_hal_nor.c ****   }
 938              		.loc 1 695 0
 939 0032 4FF0C043 		mov	r3, #1610612736	@ deviceAddress,
 940 0036 01E0     		b	.L97	@
 941              	.L99:
 699:../STM32Cube_FW_F4_V1.4.0/Drivers/STM32F4xx_HAL_Driver/Src/stm32f4xx_hal_nor.c ****   }
 942              		.loc 1 699 0
 943 0038 4FF0C843 		mov	r3, #1677721600	@ deviceAddress,
 944              	.L97:
 945              	.LVL73:
 708:../STM32Cube_FW_F4_V1.4.0/Drivers/STM32F4xx_HAL_Driver/Src/stm32f4xx_hal_nor.c ****   }
 709:../STM32Cube_FW_F4_V1.4.0/Drivers/STM32F4xx_HAL_Driver/Src/stm32f4xx_hal_nor.c ****     
 710:../STM32Cube_FW_F4_V1.4.0/Drivers/STM32F4xx_HAL_Driver/Src/stm32f4xx_hal_nor.c ****   /* Update the NOR controller state */
 711:../STM32Cube_FW_F4_V1.4.0/Drivers/STM32F4xx_HAL_Driver/Src/stm32f4xx_hal_nor.c ****   hnor->State = HAL_NOR_STATE_BUSY;  
 946              		.loc 1 711 0
 947 003c 0222     		movs	r2, #2	@ tmp128,
 948 003e 80F83D20 		strb	r2, [r0, #61]	@ tmp128, hnor_5(D)->State
 712:../STM32Cube_FW_F4_V1.4.0/Drivers/STM32F4xx_HAL_Driver/Src/stm32f4xx_hal_nor.c ****     
 713:../STM32Cube_FW_F4_V1.4.0/Drivers/STM32F4xx_HAL_Driver/Src/stm32f4xx_hal_nor.c ****   /* Send NOR chip erase command sequence */
 714:../STM32Cube_FW_F4_V1.4.0/Drivers/STM32F4xx_HAL_Driver/Src/stm32f4xx_hal_nor.c ****   NOR_WRITE(NOR_ADDR_SHIFT(deviceAddress, NOR_MEMORY_8B, 0x0555), 0x00AA);
 949              		.loc 1 714 0
ARM GAS  C:\cygwin\tmp\ccODIXg7.s 			page 31


 950 0042 AA21     		movs	r1, #170	@ tmp131,
 951              	.LVL74:
 715:../STM32Cube_FW_F4_V1.4.0/Drivers/STM32F4xx_HAL_Driver/Src/stm32f4xx_hal_nor.c ****   NOR_WRITE(NOR_ADDR_SHIFT(deviceAddress, NOR_MEMORY_8B, 0x02AA), 0x0055);
 952              		.loc 1 715 0
 953 0044 5522     		movs	r2, #85	@ tmp133,
 716:../STM32Cube_FW_F4_V1.4.0/Drivers/STM32F4xx_HAL_Driver/Src/stm32f4xx_hal_nor.c ****   NOR_WRITE(NOR_ADDR_SHIFT(deviceAddress, NOR_MEMORY_8B, 0x0555), 0x0080);
 954              		.loc 1 716 0
 955 0046 8024     		movs	r4, #128	@ tmp135,
 714:../STM32Cube_FW_F4_V1.4.0/Drivers/STM32F4xx_HAL_Driver/Src/stm32f4xx_hal_nor.c ****   NOR_WRITE(NOR_ADDR_SHIFT(deviceAddress, NOR_MEMORY_8B, 0x02AA), 0x0055);
 956              		.loc 1 714 0
 957 0048 A3F8AA1A 		strh	r1, [r3, #2730]	@ movhi	@ tmp131, *_12
 715:../STM32Cube_FW_F4_V1.4.0/Drivers/STM32F4xx_HAL_Driver/Src/stm32f4xx_hal_nor.c ****   NOR_WRITE(NOR_ADDR_SHIFT(deviceAddress, NOR_MEMORY_8B, 0x02AA), 0x0055);
 958              		.loc 1 715 0
 959 004c A3F85425 		strh	r2, [r3, #1364]	@ movhi	@ tmp133, *_15
 960              		.loc 1 716 0
 961 0050 A3F8AA4A 		strh	r4, [r3, #2730]	@ movhi	@ tmp135, *_12
 717:../STM32Cube_FW_F4_V1.4.0/Drivers/STM32F4xx_HAL_Driver/Src/stm32f4xx_hal_nor.c ****   NOR_WRITE(NOR_ADDR_SHIFT(deviceAddress, NOR_MEMORY_8B, 0x0555), 0x00AA);
 962              		.loc 1 717 0
 963 0054 A3F8AA1A 		strh	r1, [r3, #2730]	@ movhi	@ tmp131, *_12
 718:../STM32Cube_FW_F4_V1.4.0/Drivers/STM32F4xx_HAL_Driver/Src/stm32f4xx_hal_nor.c ****   NOR_WRITE(NOR_ADDR_SHIFT(deviceAddress, NOR_MEMORY_8B, 0x02AA), 0x0055);  
 964              		.loc 1 718 0
 965 0058 A3F85425 		strh	r2, [r3, #1364]	@ movhi	@ tmp133, *_15
 719:../STM32Cube_FW_F4_V1.4.0/Drivers/STM32F4xx_HAL_Driver/Src/stm32f4xx_hal_nor.c ****   NOR_WRITE(NOR_ADDR_SHIFT(deviceAddress, NOR_MEMORY_8B, 0x0555), 0x0010);
 966              		.loc 1 719 0
 967 005c 1022     		movs	r2, #16	@ tmp141,
 968 005e A3F8AA2A 		strh	r2, [r3, #2730]	@ movhi	@ tmp141, *_12
 720:../STM32Cube_FW_F4_V1.4.0/Drivers/STM32F4xx_HAL_Driver/Src/stm32f4xx_hal_nor.c ****   
 721:../STM32Cube_FW_F4_V1.4.0/Drivers/STM32F4xx_HAL_Driver/Src/stm32f4xx_hal_nor.c ****   /* Check the NOR memory status and update the controller state */
 722:../STM32Cube_FW_F4_V1.4.0/Drivers/STM32F4xx_HAL_Driver/Src/stm32f4xx_hal_nor.c ****   hnor->State = HAL_NOR_STATE_READY;
 969              		.loc 1 722 0
 970 0062 0123     		movs	r3, #1	@ tmp142,
 971              	.LVL75:
 972 0064 80F83D30 		strb	r3, [r0, #61]	@ tmp142, hnor_5(D)->State
 723:../STM32Cube_FW_F4_V1.4.0/Drivers/STM32F4xx_HAL_Driver/Src/stm32f4xx_hal_nor.c ****     
 724:../STM32Cube_FW_F4_V1.4.0/Drivers/STM32F4xx_HAL_Driver/Src/stm32f4xx_hal_nor.c ****   /* Process unlocked */
 725:../STM32Cube_FW_F4_V1.4.0/Drivers/STM32F4xx_HAL_Driver/Src/stm32f4xx_hal_nor.c ****   __HAL_UNLOCK(hnor);
 973              		.loc 1 725 0
 974 0068 0023     		movs	r3, #0	@ tmp144,
 975 006a 80F83C30 		strb	r3, [r0, #60]	@ tmp144, hnor_5(D)->Lock
 726:../STM32Cube_FW_F4_V1.4.0/Drivers/STM32F4xx_HAL_Driver/Src/stm32f4xx_hal_nor.c ****   
 727:../STM32Cube_FW_F4_V1.4.0/Drivers/STM32F4xx_HAL_Driver/Src/stm32f4xx_hal_nor.c ****   return HAL_OK;  
 976              		.loc 1 727 0
 977 006e 1846     		mov	r0, r3	@ D.7865, tmp144
 978              	.LVL76:
 728:../STM32Cube_FW_F4_V1.4.0/Drivers/STM32F4xx_HAL_Driver/Src/stm32f4xx_hal_nor.c **** }
 979              		.loc 1 728 0
 980 0070 10BD     		pop	{r4, pc}	@
 981              		.cfi_endproc
 982              	.LFE135:
 983              		.size	HAL_NOR_Erase_Chip, .-HAL_NOR_Erase_Chip
 984              		.section	.text.HAL_NOR_Read_CFI,"ax",%progbits
 985              		.align	1
 986              		.global	HAL_NOR_Read_CFI
 987              		.thumb
 988              		.thumb_func
 989              		.type	HAL_NOR_Read_CFI, %function
 990              	HAL_NOR_Read_CFI:
ARM GAS  C:\cygwin\tmp\ccODIXg7.s 			page 32


 991              	.LFB136:
 729:../STM32Cube_FW_F4_V1.4.0/Drivers/STM32F4xx_HAL_Driver/Src/stm32f4xx_hal_nor.c **** 
 730:../STM32Cube_FW_F4_V1.4.0/Drivers/STM32F4xx_HAL_Driver/Src/stm32f4xx_hal_nor.c **** /**
 731:../STM32Cube_FW_F4_V1.4.0/Drivers/STM32F4xx_HAL_Driver/Src/stm32f4xx_hal_nor.c ****   * @brief  Read NOR flash CFI IDs
 732:../STM32Cube_FW_F4_V1.4.0/Drivers/STM32F4xx_HAL_Driver/Src/stm32f4xx_hal_nor.c ****   * @param  hnor: pointer to the NOR handle
 733:../STM32Cube_FW_F4_V1.4.0/Drivers/STM32F4xx_HAL_Driver/Src/stm32f4xx_hal_nor.c ****   * @param  pNOR_CFI : pointer to NOR CFI IDs structure  
 734:../STM32Cube_FW_F4_V1.4.0/Drivers/STM32F4xx_HAL_Driver/Src/stm32f4xx_hal_nor.c ****   * @retval HAL status
 735:../STM32Cube_FW_F4_V1.4.0/Drivers/STM32F4xx_HAL_Driver/Src/stm32f4xx_hal_nor.c ****   */
 736:../STM32Cube_FW_F4_V1.4.0/Drivers/STM32F4xx_HAL_Driver/Src/stm32f4xx_hal_nor.c **** HAL_StatusTypeDef HAL_NOR_Read_CFI(NOR_HandleTypeDef *hnor, NOR_CFITypeDef *pNOR_CFI)
 737:../STM32Cube_FW_F4_V1.4.0/Drivers/STM32F4xx_HAL_Driver/Src/stm32f4xx_hal_nor.c **** {
 992              		.loc 1 737 0
 993              		.cfi_startproc
 994              		@ args = 0, pretend = 0, frame = 0
 995              		@ frame_needed = 0, uses_anonymous_args = 0
 996              		@ link register save eliminated.
 997              	.LVL77:
 738:../STM32Cube_FW_F4_V1.4.0/Drivers/STM32F4xx_HAL_Driver/Src/stm32f4xx_hal_nor.c ****   uint32_t deviceAddress = 0;
 739:../STM32Cube_FW_F4_V1.4.0/Drivers/STM32F4xx_HAL_Driver/Src/stm32f4xx_hal_nor.c ****   
 740:../STM32Cube_FW_F4_V1.4.0/Drivers/STM32F4xx_HAL_Driver/Src/stm32f4xx_hal_nor.c ****   /* Process Locked */
 741:../STM32Cube_FW_F4_V1.4.0/Drivers/STM32F4xx_HAL_Driver/Src/stm32f4xx_hal_nor.c ****   __HAL_LOCK(hnor);
 998              		.loc 1 741 0
 999 0000 90F83C30 		ldrb	r3, [r0, #60]	@ zero_extendqisi2	@ hnor_5(D)->Lock, hnor_5(D)->Lock
 1000 0004 012B     		cmp	r3, #1	@ hnor_5(D)->Lock,
 1001 0006 01D1     		bne	.L105	@,
 1002              	.L107:
 1003 0008 0220     		movs	r0, #2	@ D.7872,
 1004              	.LVL78:
 1005 000a 7047     		bx	lr	@
 1006              	.LVL79:
 1007              	.L105:
 1008              		.loc 1 741 0 is_stmt 0 discriminator 2
 1009 000c 0123     		movs	r3, #1	@ tmp133,
 1010 000e 80F83C30 		strb	r3, [r0, #60]	@ tmp133, hnor_5(D)->Lock
 742:../STM32Cube_FW_F4_V1.4.0/Drivers/STM32F4xx_HAL_Driver/Src/stm32f4xx_hal_nor.c ****   
 743:../STM32Cube_FW_F4_V1.4.0/Drivers/STM32F4xx_HAL_Driver/Src/stm32f4xx_hal_nor.c ****   /* Check the NOR controller state */
 744:../STM32Cube_FW_F4_V1.4.0/Drivers/STM32F4xx_HAL_Driver/Src/stm32f4xx_hal_nor.c ****   if(hnor->State == HAL_NOR_STATE_BUSY)
 1011              		.loc 1 744 0 is_stmt 1 discriminator 2
 1012 0012 90F83D30 		ldrb	r3, [r0, #61]	@ zero_extendqisi2	@ hnor_5(D)->State, hnor_5(D)->State
 1013 0016 022B     		cmp	r3, #2	@ hnor_5(D)->State,
 1014 0018 F6D0     		beq	.L107	@,
 745:../STM32Cube_FW_F4_V1.4.0/Drivers/STM32F4xx_HAL_Driver/Src/stm32f4xx_hal_nor.c ****   {
 746:../STM32Cube_FW_F4_V1.4.0/Drivers/STM32F4xx_HAL_Driver/Src/stm32f4xx_hal_nor.c ****      return HAL_BUSY;
 747:../STM32Cube_FW_F4_V1.4.0/Drivers/STM32F4xx_HAL_Driver/Src/stm32f4xx_hal_nor.c ****   }
 748:../STM32Cube_FW_F4_V1.4.0/Drivers/STM32F4xx_HAL_Driver/Src/stm32f4xx_hal_nor.c ****   
 749:../STM32Cube_FW_F4_V1.4.0/Drivers/STM32F4xx_HAL_Driver/Src/stm32f4xx_hal_nor.c ****   /* Select the NOR device address */
 750:../STM32Cube_FW_F4_V1.4.0/Drivers/STM32F4xx_HAL_Driver/Src/stm32f4xx_hal_nor.c ****   if (hnor->Init.NSBank == FMC_NORSRAM_BANK1)
 1015              		.loc 1 750 0
 1016 001a 8368     		ldr	r3, [r0, #8]	@ D.7875, hnor_5(D)->Init.NSBank
 1017 001c 43B1     		cbz	r3, .L109	@ D.7875,
 751:../STM32Cube_FW_F4_V1.4.0/Drivers/STM32F4xx_HAL_Driver/Src/stm32f4xx_hal_nor.c ****   {
 752:../STM32Cube_FW_F4_V1.4.0/Drivers/STM32F4xx_HAL_Driver/Src/stm32f4xx_hal_nor.c ****     deviceAddress = NOR_MEMORY_ADRESS1;
 753:../STM32Cube_FW_F4_V1.4.0/Drivers/STM32F4xx_HAL_Driver/Src/stm32f4xx_hal_nor.c ****   }
 754:../STM32Cube_FW_F4_V1.4.0/Drivers/STM32F4xx_HAL_Driver/Src/stm32f4xx_hal_nor.c ****   else if (hnor->Init.NSBank == FMC_NORSRAM_BANK2)
 1018              		.loc 1 754 0
 1019 001e 022B     		cmp	r3, #2	@ D.7875,
 1020 0020 09D0     		beq	.L110	@,
 755:../STM32Cube_FW_F4_V1.4.0/Drivers/STM32F4xx_HAL_Driver/Src/stm32f4xx_hal_nor.c ****   {
ARM GAS  C:\cygwin\tmp\ccODIXg7.s 			page 33


 756:../STM32Cube_FW_F4_V1.4.0/Drivers/STM32F4xx_HAL_Driver/Src/stm32f4xx_hal_nor.c ****     deviceAddress = NOR_MEMORY_ADRESS2;
 757:../STM32Cube_FW_F4_V1.4.0/Drivers/STM32F4xx_HAL_Driver/Src/stm32f4xx_hal_nor.c ****   }
 758:../STM32Cube_FW_F4_V1.4.0/Drivers/STM32F4xx_HAL_Driver/Src/stm32f4xx_hal_nor.c ****   else if (hnor->Init.NSBank == FMC_NORSRAM_BANK3)
 759:../STM32Cube_FW_F4_V1.4.0/Drivers/STM32F4xx_HAL_Driver/Src/stm32f4xx_hal_nor.c ****   {
 760:../STM32Cube_FW_F4_V1.4.0/Drivers/STM32F4xx_HAL_Driver/Src/stm32f4xx_hal_nor.c ****     deviceAddress = NOR_MEMORY_ADRESS3;
 761:../STM32Cube_FW_F4_V1.4.0/Drivers/STM32F4xx_HAL_Driver/Src/stm32f4xx_hal_nor.c ****   }
 762:../STM32Cube_FW_F4_V1.4.0/Drivers/STM32F4xx_HAL_Driver/Src/stm32f4xx_hal_nor.c ****   else /* FMC_NORSRAM_BANK4 */
 763:../STM32Cube_FW_F4_V1.4.0/Drivers/STM32F4xx_HAL_Driver/Src/stm32f4xx_hal_nor.c ****   {
 764:../STM32Cube_FW_F4_V1.4.0/Drivers/STM32F4xx_HAL_Driver/Src/stm32f4xx_hal_nor.c ****     deviceAddress = NOR_MEMORY_ADRESS4;
 1021              		.loc 1 764 0
 1022 0022 042B     		cmp	r3, #4	@ D.7875,
 1023 0024 0CBF     		ite	eq
 1024 0026 4FF0D043 		moveq	r3, #1744830464	@ deviceAddress,
 1025 002a 4FF0D843 		movne	r3, #1811939328	@ deviceAddress,
 1026 002e 04E0     		b	.L108	@
 1027              	.L109:
 752:../STM32Cube_FW_F4_V1.4.0/Drivers/STM32F4xx_HAL_Driver/Src/stm32f4xx_hal_nor.c ****   }
 1028              		.loc 1 752 0
 1029 0030 4FF0C043 		mov	r3, #1610612736	@ deviceAddress,
 1030 0034 01E0     		b	.L108	@
 1031              	.L110:
 756:../STM32Cube_FW_F4_V1.4.0/Drivers/STM32F4xx_HAL_Driver/Src/stm32f4xx_hal_nor.c ****   }
 1032              		.loc 1 756 0
 1033 0036 4FF0C843 		mov	r3, #1677721600	@ deviceAddress,
 1034              	.L108:
 1035              	.LVL80:
 765:../STM32Cube_FW_F4_V1.4.0/Drivers/STM32F4xx_HAL_Driver/Src/stm32f4xx_hal_nor.c ****   }  
 766:../STM32Cube_FW_F4_V1.4.0/Drivers/STM32F4xx_HAL_Driver/Src/stm32f4xx_hal_nor.c ****     
 767:../STM32Cube_FW_F4_V1.4.0/Drivers/STM32F4xx_HAL_Driver/Src/stm32f4xx_hal_nor.c ****   /* Update the NOR controller state */
 768:../STM32Cube_FW_F4_V1.4.0/Drivers/STM32F4xx_HAL_Driver/Src/stm32f4xx_hal_nor.c ****   hnor->State = HAL_NOR_STATE_BUSY;
 1036              		.loc 1 768 0
 1037 003a 0222     		movs	r2, #2	@ tmp138,
 1038 003c 80F83D20 		strb	r2, [r0, #61]	@ tmp138, hnor_5(D)->State
 769:../STM32Cube_FW_F4_V1.4.0/Drivers/STM32F4xx_HAL_Driver/Src/stm32f4xx_hal_nor.c ****   
 770:../STM32Cube_FW_F4_V1.4.0/Drivers/STM32F4xx_HAL_Driver/Src/stm32f4xx_hal_nor.c ****   /* Send read CFI query command */
 771:../STM32Cube_FW_F4_V1.4.0/Drivers/STM32F4xx_HAL_Driver/Src/stm32f4xx_hal_nor.c ****   NOR_WRITE(NOR_ADDR_SHIFT(deviceAddress, NOR_MEMORY_8B, 0x0055), 0x0098);
 1039              		.loc 1 771 0
 1040 0040 9822     		movs	r2, #152	@ tmp141,
 1041 0042 A3F8AA20 		strh	r2, [r3, #170]	@ movhi	@ tmp141, *_12
 772:../STM32Cube_FW_F4_V1.4.0/Drivers/STM32F4xx_HAL_Driver/Src/stm32f4xx_hal_nor.c **** 
 773:../STM32Cube_FW_F4_V1.4.0/Drivers/STM32F4xx_HAL_Driver/Src/stm32f4xx_hal_nor.c ****   /* read the NOR CFI information */
 774:../STM32Cube_FW_F4_V1.4.0/Drivers/STM32F4xx_HAL_Driver/Src/stm32f4xx_hal_nor.c ****   pNOR_CFI->CFI_1 = *(__IO uint16_t *) NOR_ADDR_SHIFT(deviceAddress, NOR_MEMORY_8B, CFI1_ADDRESS);
 1042              		.loc 1 774 0
 1043 0046 B3F8C220 		ldrh	r2, [r3, #194]	@, *_15
 1044 004a 0A80     		strh	r2, [r1]	@ movhi	@ *_15, pNOR_CFI_17(D)->CFI_1
 775:../STM32Cube_FW_F4_V1.4.0/Drivers/STM32F4xx_HAL_Driver/Src/stm32f4xx_hal_nor.c ****   pNOR_CFI->CFI_2 = *(__IO uint16_t *) NOR_ADDR_SHIFT(deviceAddress, NOR_MEMORY_8B, CFI2_ADDRESS);
 1045              		.loc 1 775 0
 1046 004c B3F8C420 		ldrh	r2, [r3, #196]	@, *_20
 1047 0050 4A80     		strh	r2, [r1, #2]	@ movhi	@ *_20, pNOR_CFI_17(D)->CFI_2
 776:../STM32Cube_FW_F4_V1.4.0/Drivers/STM32F4xx_HAL_Driver/Src/stm32f4xx_hal_nor.c ****   pNOR_CFI->CFI_3 = *(__IO uint16_t *) NOR_ADDR_SHIFT(deviceAddress, NOR_MEMORY_8B, CFI3_ADDRESS);
 1048              		.loc 1 776 0
 1049 0052 B3F8C620 		ldrh	r2, [r3, #198]	@, *_24
 1050 0056 8A80     		strh	r2, [r1, #4]	@ movhi	@ *_24, pNOR_CFI_17(D)->CFI_3
 777:../STM32Cube_FW_F4_V1.4.0/Drivers/STM32F4xx_HAL_Driver/Src/stm32f4xx_hal_nor.c ****   pNOR_CFI->CFI_4 = *(__IO uint16_t *) NOR_ADDR_SHIFT(deviceAddress, NOR_MEMORY_8B, CFI4_ADDRESS);
 1051              		.loc 1 777 0
 1052 0058 B3F8C830 		ldrh	r3, [r3, #200]	@, *_28
 1053              	.LVL81:
ARM GAS  C:\cygwin\tmp\ccODIXg7.s 			page 34


 1054 005c CB80     		strh	r3, [r1, #6]	@ movhi	@ *_28, pNOR_CFI_17(D)->CFI_4
 778:../STM32Cube_FW_F4_V1.4.0/Drivers/STM32F4xx_HAL_Driver/Src/stm32f4xx_hal_nor.c **** 
 779:../STM32Cube_FW_F4_V1.4.0/Drivers/STM32F4xx_HAL_Driver/Src/stm32f4xx_hal_nor.c ****   /* Check the NOR controller state */
 780:../STM32Cube_FW_F4_V1.4.0/Drivers/STM32F4xx_HAL_Driver/Src/stm32f4xx_hal_nor.c ****   hnor->State = HAL_NOR_STATE_READY;
 1055              		.loc 1 780 0
 1056 005e 0123     		movs	r3, #1	@ tmp150,
 1057 0060 80F83D30 		strb	r3, [r0, #61]	@ tmp150, hnor_5(D)->State
 781:../STM32Cube_FW_F4_V1.4.0/Drivers/STM32F4xx_HAL_Driver/Src/stm32f4xx_hal_nor.c ****   
 782:../STM32Cube_FW_F4_V1.4.0/Drivers/STM32F4xx_HAL_Driver/Src/stm32f4xx_hal_nor.c ****   /* Process unlocked */
 783:../STM32Cube_FW_F4_V1.4.0/Drivers/STM32F4xx_HAL_Driver/Src/stm32f4xx_hal_nor.c ****   __HAL_UNLOCK(hnor);
 1058              		.loc 1 783 0
 1059 0064 0023     		movs	r3, #0	@ tmp152,
 1060 0066 80F83C30 		strb	r3, [r0, #60]	@ tmp152, hnor_5(D)->Lock
 784:../STM32Cube_FW_F4_V1.4.0/Drivers/STM32F4xx_HAL_Driver/Src/stm32f4xx_hal_nor.c ****   
 785:../STM32Cube_FW_F4_V1.4.0/Drivers/STM32F4xx_HAL_Driver/Src/stm32f4xx_hal_nor.c ****   return HAL_OK;
 1061              		.loc 1 785 0
 1062 006a 1846     		mov	r0, r3	@ D.7872, tmp152
 1063              	.LVL82:
 786:../STM32Cube_FW_F4_V1.4.0/Drivers/STM32F4xx_HAL_Driver/Src/stm32f4xx_hal_nor.c **** }
 1064              		.loc 1 786 0
 1065 006c 7047     		bx	lr	@
 1066              		.cfi_endproc
 1067              	.LFE136:
 1068              		.size	HAL_NOR_Read_CFI, .-HAL_NOR_Read_CFI
 1069              		.section	.text.HAL_NOR_WriteOperation_Enable,"ax",%progbits
 1070              		.align	1
 1071              		.global	HAL_NOR_WriteOperation_Enable
 1072              		.thumb
 1073              		.thumb_func
 1074              		.type	HAL_NOR_WriteOperation_Enable, %function
 1075              	HAL_NOR_WriteOperation_Enable:
 1076              	.LFB137:
 787:../STM32Cube_FW_F4_V1.4.0/Drivers/STM32F4xx_HAL_Driver/Src/stm32f4xx_hal_nor.c **** 
 788:../STM32Cube_FW_F4_V1.4.0/Drivers/STM32F4xx_HAL_Driver/Src/stm32f4xx_hal_nor.c **** /**
 789:../STM32Cube_FW_F4_V1.4.0/Drivers/STM32F4xx_HAL_Driver/Src/stm32f4xx_hal_nor.c ****   * @}
 790:../STM32Cube_FW_F4_V1.4.0/Drivers/STM32F4xx_HAL_Driver/Src/stm32f4xx_hal_nor.c ****   */
 791:../STM32Cube_FW_F4_V1.4.0/Drivers/STM32F4xx_HAL_Driver/Src/stm32f4xx_hal_nor.c ****   
 792:../STM32Cube_FW_F4_V1.4.0/Drivers/STM32F4xx_HAL_Driver/Src/stm32f4xx_hal_nor.c **** /** @defgroup NOR_Exported_Functions_Group3 Control functions 
 793:../STM32Cube_FW_F4_V1.4.0/Drivers/STM32F4xx_HAL_Driver/Src/stm32f4xx_hal_nor.c ****  *  @brief   management functions 
 794:../STM32Cube_FW_F4_V1.4.0/Drivers/STM32F4xx_HAL_Driver/Src/stm32f4xx_hal_nor.c ****  *
 795:../STM32Cube_FW_F4_V1.4.0/Drivers/STM32F4xx_HAL_Driver/Src/stm32f4xx_hal_nor.c **** @verbatim   
 796:../STM32Cube_FW_F4_V1.4.0/Drivers/STM32F4xx_HAL_Driver/Src/stm32f4xx_hal_nor.c ****   ==============================================================================
 797:../STM32Cube_FW_F4_V1.4.0/Drivers/STM32F4xx_HAL_Driver/Src/stm32f4xx_hal_nor.c ****                         ##### NOR Control functions #####
 798:../STM32Cube_FW_F4_V1.4.0/Drivers/STM32F4xx_HAL_Driver/Src/stm32f4xx_hal_nor.c ****   ==============================================================================
 799:../STM32Cube_FW_F4_V1.4.0/Drivers/STM32F4xx_HAL_Driver/Src/stm32f4xx_hal_nor.c ****   [..]
 800:../STM32Cube_FW_F4_V1.4.0/Drivers/STM32F4xx_HAL_Driver/Src/stm32f4xx_hal_nor.c ****     This subsection provides a set of functions allowing to control dynamically
 801:../STM32Cube_FW_F4_V1.4.0/Drivers/STM32F4xx_HAL_Driver/Src/stm32f4xx_hal_nor.c ****     the NOR interface.
 802:../STM32Cube_FW_F4_V1.4.0/Drivers/STM32F4xx_HAL_Driver/Src/stm32f4xx_hal_nor.c **** 
 803:../STM32Cube_FW_F4_V1.4.0/Drivers/STM32F4xx_HAL_Driver/Src/stm32f4xx_hal_nor.c **** @endverbatim
 804:../STM32Cube_FW_F4_V1.4.0/Drivers/STM32F4xx_HAL_Driver/Src/stm32f4xx_hal_nor.c ****   * @{
 805:../STM32Cube_FW_F4_V1.4.0/Drivers/STM32F4xx_HAL_Driver/Src/stm32f4xx_hal_nor.c ****   */
 806:../STM32Cube_FW_F4_V1.4.0/Drivers/STM32F4xx_HAL_Driver/Src/stm32f4xx_hal_nor.c ****     
 807:../STM32Cube_FW_F4_V1.4.0/Drivers/STM32F4xx_HAL_Driver/Src/stm32f4xx_hal_nor.c **** /**
 808:../STM32Cube_FW_F4_V1.4.0/Drivers/STM32F4xx_HAL_Driver/Src/stm32f4xx_hal_nor.c ****   * @brief  Enables dynamically NOR write operation.
 809:../STM32Cube_FW_F4_V1.4.0/Drivers/STM32F4xx_HAL_Driver/Src/stm32f4xx_hal_nor.c ****   * @param  hnor: pointer to the NOR handle
 810:../STM32Cube_FW_F4_V1.4.0/Drivers/STM32F4xx_HAL_Driver/Src/stm32f4xx_hal_nor.c ****   * @retval HAL status
 811:../STM32Cube_FW_F4_V1.4.0/Drivers/STM32F4xx_HAL_Driver/Src/stm32f4xx_hal_nor.c ****   */
ARM GAS  C:\cygwin\tmp\ccODIXg7.s 			page 35


 812:../STM32Cube_FW_F4_V1.4.0/Drivers/STM32F4xx_HAL_Driver/Src/stm32f4xx_hal_nor.c **** HAL_StatusTypeDef HAL_NOR_WriteOperation_Enable(NOR_HandleTypeDef *hnor)
 813:../STM32Cube_FW_F4_V1.4.0/Drivers/STM32F4xx_HAL_Driver/Src/stm32f4xx_hal_nor.c **** {
 1077              		.loc 1 813 0
 1078              		.cfi_startproc
 1079              		@ args = 0, pretend = 0, frame = 0
 1080              		@ frame_needed = 0, uses_anonymous_args = 0
 1081              	.LVL83:
 1082 0000 38B5     		push	{r3, r4, r5, lr}	@
 1083              		.cfi_def_cfa_offset 16
 1084              		.cfi_offset 3, -16
 1085              		.cfi_offset 4, -12
 1086              		.cfi_offset 5, -8
 1087              		.cfi_offset 14, -4
 814:../STM32Cube_FW_F4_V1.4.0/Drivers/STM32F4xx_HAL_Driver/Src/stm32f4xx_hal_nor.c ****   /* Process Locked */
 815:../STM32Cube_FW_F4_V1.4.0/Drivers/STM32F4xx_HAL_Driver/Src/stm32f4xx_hal_nor.c ****   __HAL_LOCK(hnor);
 1088              		.loc 1 815 0
 1089 0002 90F83C30 		ldrb	r3, [r0, #60]	@ zero_extendqisi2	@ hnor_4(D)->Lock, hnor_4(D)->Lock
 1090 0006 012B     		cmp	r3, #1	@ hnor_4(D)->Lock,
 813:../STM32Cube_FW_F4_V1.4.0/Drivers/STM32F4xx_HAL_Driver/Src/stm32f4xx_hal_nor.c ****   /* Process Locked */
 1091              		.loc 1 813 0
 1092 0008 0446     		mov	r4, r0	@ hnor, hnor
 1093              		.loc 1 815 0
 1094 000a 0CD0     		beq	.L117	@,
 1095              		.loc 1 815 0 is_stmt 0 discriminator 2
 1096 000c 0125     		movs	r5, #1	@ tmp117,
 1097 000e 80F83C50 		strb	r5, [r0, #60]	@ tmp117, hnor_4(D)->Lock
 816:../STM32Cube_FW_F4_V1.4.0/Drivers/STM32F4xx_HAL_Driver/Src/stm32f4xx_hal_nor.c **** 
 817:../STM32Cube_FW_F4_V1.4.0/Drivers/STM32F4xx_HAL_Driver/Src/stm32f4xx_hal_nor.c ****   /* Enable write operation */
 818:../STM32Cube_FW_F4_V1.4.0/Drivers/STM32F4xx_HAL_Driver/Src/stm32f4xx_hal_nor.c ****   FMC_NORSRAM_WriteOperation_Enable(hnor->Instance, hnor->Init.NSBank); 
 1098              		.loc 1 818 0 is_stmt 1 discriminator 2
 1099 0012 A168     		ldr	r1, [r4, #8]	@, hnor_4(D)->Init.NSBank
 1100 0014 0068     		ldr	r0, [r0]	@, hnor_4(D)->Instance
 1101              	.LVL84:
 1102 0016 FFF7FEFF 		bl	FSMC_NORSRAM_WriteOperation_Enable	@
 1103              	.LVL85:
 819:../STM32Cube_FW_F4_V1.4.0/Drivers/STM32F4xx_HAL_Driver/Src/stm32f4xx_hal_nor.c ****   
 820:../STM32Cube_FW_F4_V1.4.0/Drivers/STM32F4xx_HAL_Driver/Src/stm32f4xx_hal_nor.c ****   /* Update the NOR controller state */
 821:../STM32Cube_FW_F4_V1.4.0/Drivers/STM32F4xx_HAL_Driver/Src/stm32f4xx_hal_nor.c ****   hnor->State = HAL_NOR_STATE_READY;
 822:../STM32Cube_FW_F4_V1.4.0/Drivers/STM32F4xx_HAL_Driver/Src/stm32f4xx_hal_nor.c ****   
 823:../STM32Cube_FW_F4_V1.4.0/Drivers/STM32F4xx_HAL_Driver/Src/stm32f4xx_hal_nor.c ****   /* Process unlocked */
 824:../STM32Cube_FW_F4_V1.4.0/Drivers/STM32F4xx_HAL_Driver/Src/stm32f4xx_hal_nor.c ****   __HAL_UNLOCK(hnor); 
 1104              		.loc 1 824 0 discriminator 2
 1105 001a 0020     		movs	r0, #0	@ tmp121,
 821:../STM32Cube_FW_F4_V1.4.0/Drivers/STM32F4xx_HAL_Driver/Src/stm32f4xx_hal_nor.c ****   
 1106              		.loc 1 821 0 discriminator 2
 1107 001c 84F83D50 		strb	r5, [r4, #61]	@ tmp117, hnor_4(D)->State
 1108              		.loc 1 824 0 discriminator 2
 1109 0020 84F83C00 		strb	r0, [r4, #60]	@ tmp121, hnor_4(D)->Lock
 825:../STM32Cube_FW_F4_V1.4.0/Drivers/STM32F4xx_HAL_Driver/Src/stm32f4xx_hal_nor.c ****   
 826:../STM32Cube_FW_F4_V1.4.0/Drivers/STM32F4xx_HAL_Driver/Src/stm32f4xx_hal_nor.c ****   return HAL_OK;  
 1110              		.loc 1 826 0 discriminator 2
 1111 0024 38BD     		pop	{r3, r4, r5, pc}	@
 1112              	.LVL86:
 1113              	.L117:
 815:../STM32Cube_FW_F4_V1.4.0/Drivers/STM32F4xx_HAL_Driver/Src/stm32f4xx_hal_nor.c **** 
 1114              		.loc 1 815 0
 1115 0026 0220     		movs	r0, #2	@ D.7880,
ARM GAS  C:\cygwin\tmp\ccODIXg7.s 			page 36


 1116              	.LVL87:
 827:../STM32Cube_FW_F4_V1.4.0/Drivers/STM32F4xx_HAL_Driver/Src/stm32f4xx_hal_nor.c **** }
 1117              		.loc 1 827 0
 1118 0028 38BD     		pop	{r3, r4, r5, pc}	@
 1119              		.cfi_endproc
 1120              	.LFE137:
 1121              		.size	HAL_NOR_WriteOperation_Enable, .-HAL_NOR_WriteOperation_Enable
 1122              		.section	.text.HAL_NOR_WriteOperation_Disable,"ax",%progbits
 1123              		.align	1
 1124              		.global	HAL_NOR_WriteOperation_Disable
 1125              		.thumb
 1126              		.thumb_func
 1127              		.type	HAL_NOR_WriteOperation_Disable, %function
 1128              	HAL_NOR_WriteOperation_Disable:
 1129              	.LFB138:
 828:../STM32Cube_FW_F4_V1.4.0/Drivers/STM32F4xx_HAL_Driver/Src/stm32f4xx_hal_nor.c **** 
 829:../STM32Cube_FW_F4_V1.4.0/Drivers/STM32F4xx_HAL_Driver/Src/stm32f4xx_hal_nor.c **** /**
 830:../STM32Cube_FW_F4_V1.4.0/Drivers/STM32F4xx_HAL_Driver/Src/stm32f4xx_hal_nor.c ****   * @brief  Disables dynamically NOR write operation.
 831:../STM32Cube_FW_F4_V1.4.0/Drivers/STM32F4xx_HAL_Driver/Src/stm32f4xx_hal_nor.c ****   * @param  hnor: pointer to the NOR handle
 832:../STM32Cube_FW_F4_V1.4.0/Drivers/STM32F4xx_HAL_Driver/Src/stm32f4xx_hal_nor.c ****   * @retval HAL status
 833:../STM32Cube_FW_F4_V1.4.0/Drivers/STM32F4xx_HAL_Driver/Src/stm32f4xx_hal_nor.c ****   */
 834:../STM32Cube_FW_F4_V1.4.0/Drivers/STM32F4xx_HAL_Driver/Src/stm32f4xx_hal_nor.c **** HAL_StatusTypeDef HAL_NOR_WriteOperation_Disable(NOR_HandleTypeDef *hnor)
 835:../STM32Cube_FW_F4_V1.4.0/Drivers/STM32F4xx_HAL_Driver/Src/stm32f4xx_hal_nor.c **** {
 1130              		.loc 1 835 0
 1131              		.cfi_startproc
 1132              		@ args = 0, pretend = 0, frame = 0
 1133              		@ frame_needed = 0, uses_anonymous_args = 0
 1134              	.LVL88:
 836:../STM32Cube_FW_F4_V1.4.0/Drivers/STM32F4xx_HAL_Driver/Src/stm32f4xx_hal_nor.c ****   /* Process Locked */
 837:../STM32Cube_FW_F4_V1.4.0/Drivers/STM32F4xx_HAL_Driver/Src/stm32f4xx_hal_nor.c ****   __HAL_LOCK(hnor);
 1135              		.loc 1 837 0
 1136 0000 90F83C30 		ldrb	r3, [r0, #60]	@ zero_extendqisi2	@ hnor_4(D)->Lock, hnor_4(D)->Lock
 1137 0004 012B     		cmp	r3, #1	@ hnor_4(D)->Lock,
 835:../STM32Cube_FW_F4_V1.4.0/Drivers/STM32F4xx_HAL_Driver/Src/stm32f4xx_hal_nor.c ****   /* Process Locked */
 1138              		.loc 1 835 0
 1139 0006 10B5     		push	{r4, lr}	@
 1140              		.cfi_def_cfa_offset 8
 1141              		.cfi_offset 4, -8
 1142              		.cfi_offset 14, -4
 835:../STM32Cube_FW_F4_V1.4.0/Drivers/STM32F4xx_HAL_Driver/Src/stm32f4xx_hal_nor.c ****   /* Process Locked */
 1143              		.loc 1 835 0
 1144 0008 0446     		mov	r4, r0	@ hnor, hnor
 1145 000a 4FF00200 		mov	r0, #2	@ D.7886,
 1146              	.LVL89:
 1147              		.loc 1 837 0
 1148 000e 0ED0     		beq	.L119	@,
 1149              		.loc 1 837 0 is_stmt 0 discriminator 2
 1150 0010 0123     		movs	r3, #1	@ tmp117,
 1151 0012 84F83C30 		strb	r3, [r4, #60]	@ tmp117, hnor_4(D)->Lock
 838:../STM32Cube_FW_F4_V1.4.0/Drivers/STM32F4xx_HAL_Driver/Src/stm32f4xx_hal_nor.c **** 
 839:../STM32Cube_FW_F4_V1.4.0/Drivers/STM32F4xx_HAL_Driver/Src/stm32f4xx_hal_nor.c ****   /* Update the SRAM controller state */
 840:../STM32Cube_FW_F4_V1.4.0/Drivers/STM32F4xx_HAL_Driver/Src/stm32f4xx_hal_nor.c ****   hnor->State = HAL_NOR_STATE_BUSY;
 1152              		.loc 1 840 0 is_stmt 1 discriminator 2
 1153 0016 84F83D00 		strb	r0, [r4, #61]	@ D.7886, hnor_4(D)->State
 841:../STM32Cube_FW_F4_V1.4.0/Drivers/STM32F4xx_HAL_Driver/Src/stm32f4xx_hal_nor.c ****     
 842:../STM32Cube_FW_F4_V1.4.0/Drivers/STM32F4xx_HAL_Driver/Src/stm32f4xx_hal_nor.c ****   /* Disable write operation */
 843:../STM32Cube_FW_F4_V1.4.0/Drivers/STM32F4xx_HAL_Driver/Src/stm32f4xx_hal_nor.c ****   FMC_NORSRAM_WriteOperation_Disable(hnor->Instance, hnor->Init.NSBank); 
ARM GAS  C:\cygwin\tmp\ccODIXg7.s 			page 37


 1154              		.loc 1 843 0 discriminator 2
 1155 001a A168     		ldr	r1, [r4, #8]	@, hnor_4(D)->Init.NSBank
 1156 001c 2068     		ldr	r0, [r4]	@, hnor_4(D)->Instance
 1157 001e FFF7FEFF 		bl	FSMC_NORSRAM_WriteOperation_Disable	@
 1158              	.LVL90:
 844:../STM32Cube_FW_F4_V1.4.0/Drivers/STM32F4xx_HAL_Driver/Src/stm32f4xx_hal_nor.c ****   
 845:../STM32Cube_FW_F4_V1.4.0/Drivers/STM32F4xx_HAL_Driver/Src/stm32f4xx_hal_nor.c ****   /* Update the NOR controller state */
 846:../STM32Cube_FW_F4_V1.4.0/Drivers/STM32F4xx_HAL_Driver/Src/stm32f4xx_hal_nor.c ****   hnor->State = HAL_NOR_STATE_PROTECTED;
 1159              		.loc 1 846 0 discriminator 2
 1160 0022 0423     		movs	r3, #4	@ tmp121,
 847:../STM32Cube_FW_F4_V1.4.0/Drivers/STM32F4xx_HAL_Driver/Src/stm32f4xx_hal_nor.c ****   
 848:../STM32Cube_FW_F4_V1.4.0/Drivers/STM32F4xx_HAL_Driver/Src/stm32f4xx_hal_nor.c ****   /* Process unlocked */
 849:../STM32Cube_FW_F4_V1.4.0/Drivers/STM32F4xx_HAL_Driver/Src/stm32f4xx_hal_nor.c ****   __HAL_UNLOCK(hnor); 
 1161              		.loc 1 849 0 discriminator 2
 1162 0024 0020     		movs	r0, #0	@ tmp123,
 846:../STM32Cube_FW_F4_V1.4.0/Drivers/STM32F4xx_HAL_Driver/Src/stm32f4xx_hal_nor.c ****   
 1163              		.loc 1 846 0 discriminator 2
 1164 0026 84F83D30 		strb	r3, [r4, #61]	@ tmp121, hnor_4(D)->State
 1165              		.loc 1 849 0 discriminator 2
 1166 002a 84F83C00 		strb	r0, [r4, #60]	@ tmp123, hnor_4(D)->Lock
 1167              	.L119:
 850:../STM32Cube_FW_F4_V1.4.0/Drivers/STM32F4xx_HAL_Driver/Src/stm32f4xx_hal_nor.c ****   
 851:../STM32Cube_FW_F4_V1.4.0/Drivers/STM32F4xx_HAL_Driver/Src/stm32f4xx_hal_nor.c ****   return HAL_OK;  
 852:../STM32Cube_FW_F4_V1.4.0/Drivers/STM32F4xx_HAL_Driver/Src/stm32f4xx_hal_nor.c **** }
 1168              		.loc 1 852 0
 1169 002e 10BD     		pop	{r4, pc}	@
 1170              		.cfi_endproc
 1171              	.LFE138:
 1172              		.size	HAL_NOR_WriteOperation_Disable, .-HAL_NOR_WriteOperation_Disable
 1173              		.section	.text.HAL_NOR_GetState,"ax",%progbits
 1174              		.align	1
 1175              		.global	HAL_NOR_GetState
 1176              		.thumb
 1177              		.thumb_func
 1178              		.type	HAL_NOR_GetState, %function
 1179              	HAL_NOR_GetState:
 1180              	.LFB139:
 853:../STM32Cube_FW_F4_V1.4.0/Drivers/STM32F4xx_HAL_Driver/Src/stm32f4xx_hal_nor.c **** 
 854:../STM32Cube_FW_F4_V1.4.0/Drivers/STM32F4xx_HAL_Driver/Src/stm32f4xx_hal_nor.c **** /**
 855:../STM32Cube_FW_F4_V1.4.0/Drivers/STM32F4xx_HAL_Driver/Src/stm32f4xx_hal_nor.c ****   * @}
 856:../STM32Cube_FW_F4_V1.4.0/Drivers/STM32F4xx_HAL_Driver/Src/stm32f4xx_hal_nor.c ****   */  
 857:../STM32Cube_FW_F4_V1.4.0/Drivers/STM32F4xx_HAL_Driver/Src/stm32f4xx_hal_nor.c ****   
 858:../STM32Cube_FW_F4_V1.4.0/Drivers/STM32F4xx_HAL_Driver/Src/stm32f4xx_hal_nor.c **** /** @defgroup NOR_Exported_Functions_Group4 State functions 
 859:../STM32Cube_FW_F4_V1.4.0/Drivers/STM32F4xx_HAL_Driver/Src/stm32f4xx_hal_nor.c ****  *  @brief   Peripheral State functions 
 860:../STM32Cube_FW_F4_V1.4.0/Drivers/STM32F4xx_HAL_Driver/Src/stm32f4xx_hal_nor.c ****  *
 861:../STM32Cube_FW_F4_V1.4.0/Drivers/STM32F4xx_HAL_Driver/Src/stm32f4xx_hal_nor.c **** @verbatim   
 862:../STM32Cube_FW_F4_V1.4.0/Drivers/STM32F4xx_HAL_Driver/Src/stm32f4xx_hal_nor.c ****   ==============================================================================
 863:../STM32Cube_FW_F4_V1.4.0/Drivers/STM32F4xx_HAL_Driver/Src/stm32f4xx_hal_nor.c ****                       ##### NOR State functions #####
 864:../STM32Cube_FW_F4_V1.4.0/Drivers/STM32F4xx_HAL_Driver/Src/stm32f4xx_hal_nor.c ****   ==============================================================================  
 865:../STM32Cube_FW_F4_V1.4.0/Drivers/STM32F4xx_HAL_Driver/Src/stm32f4xx_hal_nor.c ****   [..]
 866:../STM32Cube_FW_F4_V1.4.0/Drivers/STM32F4xx_HAL_Driver/Src/stm32f4xx_hal_nor.c ****     This subsection permits to get in run-time the status of the NOR controller 
 867:../STM32Cube_FW_F4_V1.4.0/Drivers/STM32F4xx_HAL_Driver/Src/stm32f4xx_hal_nor.c ****     and the data flow.
 868:../STM32Cube_FW_F4_V1.4.0/Drivers/STM32F4xx_HAL_Driver/Src/stm32f4xx_hal_nor.c **** 
 869:../STM32Cube_FW_F4_V1.4.0/Drivers/STM32F4xx_HAL_Driver/Src/stm32f4xx_hal_nor.c **** @endverbatim
 870:../STM32Cube_FW_F4_V1.4.0/Drivers/STM32F4xx_HAL_Driver/Src/stm32f4xx_hal_nor.c ****   * @{
 871:../STM32Cube_FW_F4_V1.4.0/Drivers/STM32F4xx_HAL_Driver/Src/stm32f4xx_hal_nor.c ****   */
 872:../STM32Cube_FW_F4_V1.4.0/Drivers/STM32F4xx_HAL_Driver/Src/stm32f4xx_hal_nor.c ****   
ARM GAS  C:\cygwin\tmp\ccODIXg7.s 			page 38


 873:../STM32Cube_FW_F4_V1.4.0/Drivers/STM32F4xx_HAL_Driver/Src/stm32f4xx_hal_nor.c **** /**
 874:../STM32Cube_FW_F4_V1.4.0/Drivers/STM32F4xx_HAL_Driver/Src/stm32f4xx_hal_nor.c ****   * @brief  return the NOR controller state
 875:../STM32Cube_FW_F4_V1.4.0/Drivers/STM32F4xx_HAL_Driver/Src/stm32f4xx_hal_nor.c ****   * @param  hnor: pointer to the NOR handle
 876:../STM32Cube_FW_F4_V1.4.0/Drivers/STM32F4xx_HAL_Driver/Src/stm32f4xx_hal_nor.c ****   * @retval NOR controller state
 877:../STM32Cube_FW_F4_V1.4.0/Drivers/STM32F4xx_HAL_Driver/Src/stm32f4xx_hal_nor.c ****   */
 878:../STM32Cube_FW_F4_V1.4.0/Drivers/STM32F4xx_HAL_Driver/Src/stm32f4xx_hal_nor.c **** HAL_NOR_StateTypeDef HAL_NOR_GetState(NOR_HandleTypeDef *hnor)
 879:../STM32Cube_FW_F4_V1.4.0/Drivers/STM32F4xx_HAL_Driver/Src/stm32f4xx_hal_nor.c **** {
 1181              		.loc 1 879 0
 1182              		.cfi_startproc
 1183              		@ args = 0, pretend = 0, frame = 0
 1184              		@ frame_needed = 0, uses_anonymous_args = 0
 1185              		@ link register save eliminated.
 1186              	.LVL91:
 880:../STM32Cube_FW_F4_V1.4.0/Drivers/STM32F4xx_HAL_Driver/Src/stm32f4xx_hal_nor.c ****   return hnor->State;
 1187              		.loc 1 880 0
 1188 0000 90F83D00 		ldrb	r0, [r0, #61]	@ zero_extendqisi2	@ hnor_2(D)->State, hnor_2(D)->State
 1189              	.LVL92:
 881:../STM32Cube_FW_F4_V1.4.0/Drivers/STM32F4xx_HAL_Driver/Src/stm32f4xx_hal_nor.c **** }
 1190              		.loc 1 881 0
 1191 0004 7047     		bx	lr	@
 1192              		.cfi_endproc
 1193              	.LFE139:
 1194              		.size	HAL_NOR_GetState, .-HAL_NOR_GetState
 1195              		.section	.text.HAL_NOR_GetStatus,"ax",%progbits
 1196              		.align	1
 1197              		.global	HAL_NOR_GetStatus
 1198              		.thumb
 1199              		.thumb_func
 1200              		.type	HAL_NOR_GetStatus, %function
 1201              	HAL_NOR_GetStatus:
 1202              	.LFB140:
 882:../STM32Cube_FW_F4_V1.4.0/Drivers/STM32F4xx_HAL_Driver/Src/stm32f4xx_hal_nor.c **** 
 883:../STM32Cube_FW_F4_V1.4.0/Drivers/STM32F4xx_HAL_Driver/Src/stm32f4xx_hal_nor.c **** /**
 884:../STM32Cube_FW_F4_V1.4.0/Drivers/STM32F4xx_HAL_Driver/Src/stm32f4xx_hal_nor.c ****   * @brief  Returns the NOR operation status.
 885:../STM32Cube_FW_F4_V1.4.0/Drivers/STM32F4xx_HAL_Driver/Src/stm32f4xx_hal_nor.c ****   * @param  hnor: pointer to the NOR handle  
 886:../STM32Cube_FW_F4_V1.4.0/Drivers/STM32F4xx_HAL_Driver/Src/stm32f4xx_hal_nor.c ****   * @param  Address: Device address
 887:../STM32Cube_FW_F4_V1.4.0/Drivers/STM32F4xx_HAL_Driver/Src/stm32f4xx_hal_nor.c ****   * @param  Timeout: NOR programming Timeout
 888:../STM32Cube_FW_F4_V1.4.0/Drivers/STM32F4xx_HAL_Driver/Src/stm32f4xx_hal_nor.c ****   * @retval NOR_Status: The returned value can be: HAL_NOR_STATUS_SUCCESS, HAL_NOR_STATUS_ERROR
 889:../STM32Cube_FW_F4_V1.4.0/Drivers/STM32F4xx_HAL_Driver/Src/stm32f4xx_hal_nor.c ****   *         or HAL_NOR_STATUS_TIMEOUT
 890:../STM32Cube_FW_F4_V1.4.0/Drivers/STM32F4xx_HAL_Driver/Src/stm32f4xx_hal_nor.c ****   */
 891:../STM32Cube_FW_F4_V1.4.0/Drivers/STM32F4xx_HAL_Driver/Src/stm32f4xx_hal_nor.c **** HAL_NOR_StatusTypeDef HAL_NOR_GetStatus(NOR_HandleTypeDef *hnor, uint32_t Address, uint32_t Timeout
 892:../STM32Cube_FW_F4_V1.4.0/Drivers/STM32F4xx_HAL_Driver/Src/stm32f4xx_hal_nor.c **** { 
 1203              		.loc 1 892 0
 1204              		.cfi_startproc
 1205              		@ args = 0, pretend = 0, frame = 0
 1206              		@ frame_needed = 0, uses_anonymous_args = 0
 1207              	.LVL93:
 1208 0000 F8B5     		push	{r3, r4, r5, r6, r7, lr}	@
 1209              		.cfi_def_cfa_offset 24
 1210              		.cfi_offset 3, -24
 1211              		.cfi_offset 4, -20
 1212              		.cfi_offset 5, -16
 1213              		.cfi_offset 6, -12
 1214              		.cfi_offset 7, -8
 1215              		.cfi_offset 14, -4
 1216              		.loc 1 892 0
 1217 0002 0D46     		mov	r5, r1	@ Address, Address
ARM GAS  C:\cygwin\tmp\ccODIXg7.s 			page 39


 893:../STM32Cube_FW_F4_V1.4.0/Drivers/STM32F4xx_HAL_Driver/Src/stm32f4xx_hal_nor.c ****   HAL_NOR_StatusTypeDef status = HAL_NOR_STATUS_ONGOING;
 894:../STM32Cube_FW_F4_V1.4.0/Drivers/STM32F4xx_HAL_Driver/Src/stm32f4xx_hal_nor.c ****   uint16_t tmpSR1 = 0, tmpSR2 = 0;
 895:../STM32Cube_FW_F4_V1.4.0/Drivers/STM32F4xx_HAL_Driver/Src/stm32f4xx_hal_nor.c ****   uint32_t tickstart = 0;
 896:../STM32Cube_FW_F4_V1.4.0/Drivers/STM32F4xx_HAL_Driver/Src/stm32f4xx_hal_nor.c **** 
 897:../STM32Cube_FW_F4_V1.4.0/Drivers/STM32F4xx_HAL_Driver/Src/stm32f4xx_hal_nor.c ****   /* Poll on NOR memory Ready/Busy signal ------------------------------------*/
 898:../STM32Cube_FW_F4_V1.4.0/Drivers/STM32F4xx_HAL_Driver/Src/stm32f4xx_hal_nor.c ****   HAL_NOR_MspWait(hnor, Timeout);
 1218              		.loc 1 898 0
 1219 0004 1146     		mov	r1, r2	@, Timeout
 1220              	.LVL94:
 892:../STM32Cube_FW_F4_V1.4.0/Drivers/STM32F4xx_HAL_Driver/Src/stm32f4xx_hal_nor.c ****   HAL_NOR_StatusTypeDef status = HAL_NOR_STATUS_ONGOING;
 1221              		.loc 1 892 0
 1222 0006 1646     		mov	r6, r2	@ Timeout, Timeout
 1223              		.loc 1 898 0
 1224 0008 FFF7FEFF 		bl	HAL_NOR_MspWait	@
 1225              	.LVL95:
 899:../STM32Cube_FW_F4_V1.4.0/Drivers/STM32F4xx_HAL_Driver/Src/stm32f4xx_hal_nor.c ****   
 900:../STM32Cube_FW_F4_V1.4.0/Drivers/STM32F4xx_HAL_Driver/Src/stm32f4xx_hal_nor.c ****   /* Get the NOR memory operation status -------------------------------------*/
 901:../STM32Cube_FW_F4_V1.4.0/Drivers/STM32F4xx_HAL_Driver/Src/stm32f4xx_hal_nor.c ****   
 902:../STM32Cube_FW_F4_V1.4.0/Drivers/STM32F4xx_HAL_Driver/Src/stm32f4xx_hal_nor.c ****   /* Get tick */
 903:../STM32Cube_FW_F4_V1.4.0/Drivers/STM32F4xx_HAL_Driver/Src/stm32f4xx_hal_nor.c ****   tickstart = HAL_GetTick();
 1226              		.loc 1 903 0
 1227 000c FFF7FEFF 		bl	HAL_GetTick	@
 1228              	.LVL96:
 893:../STM32Cube_FW_F4_V1.4.0/Drivers/STM32F4xx_HAL_Driver/Src/stm32f4xx_hal_nor.c ****   uint16_t tmpSR1 = 0, tmpSR2 = 0;
 1229              		.loc 1 893 0
 1230 0010 0124     		movs	r4, #1	@ status,
 1231              		.loc 1 903 0
 1232 0012 0746     		mov	r7, r0	@ tickstart,
 1233              	.LVL97:
 1234              	.L126:
 904:../STM32Cube_FW_F4_V1.4.0/Drivers/STM32F4xx_HAL_Driver/Src/stm32f4xx_hal_nor.c ****   while((status != HAL_NOR_STATUS_SUCCESS ) && (status != HAL_NOR_STATUS_TIMEOUT))
 905:../STM32Cube_FW_F4_V1.4.0/Drivers/STM32F4xx_HAL_Driver/Src/stm32f4xx_hal_nor.c ****   {
 906:../STM32Cube_FW_F4_V1.4.0/Drivers/STM32F4xx_HAL_Driver/Src/stm32f4xx_hal_nor.c ****     /* Check for the Timeout */
 907:../STM32Cube_FW_F4_V1.4.0/Drivers/STM32F4xx_HAL_Driver/Src/stm32f4xx_hal_nor.c ****     if(Timeout != HAL_MAX_DELAY)
 1235              		.loc 1 907 0
 1236 0014 721C     		adds	r2, r6, #1	@, Timeout,
 1237 0016 08D0     		beq	.L123	@,
 908:../STM32Cube_FW_F4_V1.4.0/Drivers/STM32F4xx_HAL_Driver/Src/stm32f4xx_hal_nor.c ****     {
 909:../STM32Cube_FW_F4_V1.4.0/Drivers/STM32F4xx_HAL_Driver/Src/stm32f4xx_hal_nor.c ****       if((Timeout == 0)||((HAL_GetTick() - tickstart ) > Timeout))
 1238              		.loc 1 909 0
 1239 0018 36B1     		cbz	r6, .L127	@ Timeout,
 1240              		.loc 1 909 0 is_stmt 0 discriminator 1
 1241 001a FFF7FEFF 		bl	HAL_GetTick	@
 1242              	.LVL98:
 1243 001e C01B     		subs	r0, r0, r7	@ D.7897,, tickstart
 910:../STM32Cube_FW_F4_V1.4.0/Drivers/STM32F4xx_HAL_Driver/Src/stm32f4xx_hal_nor.c ****       {
 911:../STM32Cube_FW_F4_V1.4.0/Drivers/STM32F4xx_HAL_Driver/Src/stm32f4xx_hal_nor.c ****         status = HAL_NOR_STATUS_TIMEOUT; 
 1244              		.loc 1 911 0 is_stmt 1 discriminator 1
 1245 0020 B042     		cmp	r0, r6	@ D.7897, Timeout
 1246 0022 88BF     		it	hi	@
 1247 0024 0324     		movhi	r4, #3	@, status,
 1248              	.LVL99:
 1249 0026 00E0     		b	.L123	@
 1250              	.LVL100:
 1251              	.L127:
 1252              		.loc 1 911 0 is_stmt 0
 1253 0028 0324     		movs	r4, #3	@ status,
ARM GAS  C:\cygwin\tmp\ccODIXg7.s 			page 40


 1254              	.LVL101:
 1255              	.L123:
 912:../STM32Cube_FW_F4_V1.4.0/Drivers/STM32F4xx_HAL_Driver/Src/stm32f4xx_hal_nor.c ****       } 
 913:../STM32Cube_FW_F4_V1.4.0/Drivers/STM32F4xx_HAL_Driver/Src/stm32f4xx_hal_nor.c ****     } 
 914:../STM32Cube_FW_F4_V1.4.0/Drivers/STM32F4xx_HAL_Driver/Src/stm32f4xx_hal_nor.c **** 
 915:../STM32Cube_FW_F4_V1.4.0/Drivers/STM32F4xx_HAL_Driver/Src/stm32f4xx_hal_nor.c ****     /* Read NOR status register (DQ6 and DQ5) */
 916:../STM32Cube_FW_F4_V1.4.0/Drivers/STM32F4xx_HAL_Driver/Src/stm32f4xx_hal_nor.c ****     tmpSR1 = *(__IO uint16_t *)Address;
 1256              		.loc 1 916 0 is_stmt 1
 1257 002a 2B88     		ldrh	r3, [r5]	@, *_21
 917:../STM32Cube_FW_F4_V1.4.0/Drivers/STM32F4xx_HAL_Driver/Src/stm32f4xx_hal_nor.c ****     tmpSR2 = *(__IO uint16_t *)Address;
 1258              		.loc 1 917 0
 1259 002c 2888     		ldrh	r0, [r5]	@, *_21
 916:../STM32Cube_FW_F4_V1.4.0/Drivers/STM32F4xx_HAL_Driver/Src/stm32f4xx_hal_nor.c ****     tmpSR2 = *(__IO uint16_t *)Address;
 1260              		.loc 1 916 0
 1261 002e 9BB2     		uxth	r3, r3	@ tmpSR1, *_21
 1262              	.LVL102:
 918:../STM32Cube_FW_F4_V1.4.0/Drivers/STM32F4xx_HAL_Driver/Src/stm32f4xx_hal_nor.c **** 
 919:../STM32Cube_FW_F4_V1.4.0/Drivers/STM32F4xx_HAL_Driver/Src/stm32f4xx_hal_nor.c ****     /* If DQ6 did not toggle between the two reads then return HAL_NOR_STATUS_SUCCESS  */
 920:../STM32Cube_FW_F4_V1.4.0/Drivers/STM32F4xx_HAL_Driver/Src/stm32f4xx_hal_nor.c ****     if((tmpSR1 & 0x0040) == (tmpSR2 & 0x0040)) 
 1263              		.loc 1 920 0
 1264 0030 5840     		eors	r0, r0, r3	@, tmp133, *_21, tmpSR1
 1265              	.LVL103:
 1266 0032 00F04000 		and	r0, r0, #64	@ tmp135, tmp133,
 1267 0036 80B2     		uxth	r0, r0	@ tmp137, tmp135
 1268 0038 98B1     		cbz	r0, .L124	@ tmp137,
 921:../STM32Cube_FW_F4_V1.4.0/Drivers/STM32F4xx_HAL_Driver/Src/stm32f4xx_hal_nor.c ****     {
 922:../STM32Cube_FW_F4_V1.4.0/Drivers/STM32F4xx_HAL_Driver/Src/stm32f4xx_hal_nor.c ****       return HAL_NOR_STATUS_SUCCESS ;
 923:../STM32Cube_FW_F4_V1.4.0/Drivers/STM32F4xx_HAL_Driver/Src/stm32f4xx_hal_nor.c ****     }
 924:../STM32Cube_FW_F4_V1.4.0/Drivers/STM32F4xx_HAL_Driver/Src/stm32f4xx_hal_nor.c ****     
 925:../STM32Cube_FW_F4_V1.4.0/Drivers/STM32F4xx_HAL_Driver/Src/stm32f4xx_hal_nor.c ****     if((tmpSR1 & 0x0020) == 0x0020)
 926:../STM32Cube_FW_F4_V1.4.0/Drivers/STM32F4xx_HAL_Driver/Src/stm32f4xx_hal_nor.c ****     {
 927:../STM32Cube_FW_F4_V1.4.0/Drivers/STM32F4xx_HAL_Driver/Src/stm32f4xx_hal_nor.c ****       status = HAL_NOR_STATUS_ONGOING;
 1269              		.loc 1 927 0
 1270 003a 13F0200F 		tst	r3, #32	@ tmpSR1,
 928:../STM32Cube_FW_F4_V1.4.0/Drivers/STM32F4xx_HAL_Driver/Src/stm32f4xx_hal_nor.c ****     }
 929:../STM32Cube_FW_F4_V1.4.0/Drivers/STM32F4xx_HAL_Driver/Src/stm32f4xx_hal_nor.c ****     
 930:../STM32Cube_FW_F4_V1.4.0/Drivers/STM32F4xx_HAL_Driver/Src/stm32f4xx_hal_nor.c ****     tmpSR1 = *(__IO uint16_t *)Address;
 1271              		.loc 1 930 0
 1272 003e 2B88     		ldrh	r3, [r5]	@, *_21
 1273              	.LVL104:
 931:../STM32Cube_FW_F4_V1.4.0/Drivers/STM32F4xx_HAL_Driver/Src/stm32f4xx_hal_nor.c ****     tmpSR2 = *(__IO uint16_t *)Address;
 1274              		.loc 1 931 0
 1275 0040 2888     		ldrh	r0, [r5]	@, *_21
 930:../STM32Cube_FW_F4_V1.4.0/Drivers/STM32F4xx_HAL_Driver/Src/stm32f4xx_hal_nor.c ****     tmpSR2 = *(__IO uint16_t *)Address;
 1276              		.loc 1 930 0
 1277 0042 9BB2     		uxth	r3, r3	@ tmpSR1, *_21
 932:../STM32Cube_FW_F4_V1.4.0/Drivers/STM32F4xx_HAL_Driver/Src/stm32f4xx_hal_nor.c **** 
 933:../STM32Cube_FW_F4_V1.4.0/Drivers/STM32F4xx_HAL_Driver/Src/stm32f4xx_hal_nor.c ****     /* If DQ6 did not toggle between the two reads then return HAL_NOR_STATUS_SUCCESS  */
 934:../STM32Cube_FW_F4_V1.4.0/Drivers/STM32F4xx_HAL_Driver/Src/stm32f4xx_hal_nor.c ****     if((tmpSR1 & 0x0040) == (tmpSR2 & 0x0040)) 
 1278              		.loc 1 934 0
 1279 0044 80EA0300 		eor	r0, r0, r3	@ tmp143, *_21, tmpSR1
 1280 0048 00F04000 		and	r0, r0, #64	@ tmp145, tmp143,
 1281 004c 80B2     		uxth	r0, r0	@ tmp147, tmp145
 927:../STM32Cube_FW_F4_V1.4.0/Drivers/STM32F4xx_HAL_Driver/Src/stm32f4xx_hal_nor.c ****     }
 1282              		.loc 1 927 0
 1283 004e 18BF     		it	ne
 1284 0050 0124     		movne	r4, #1	@ status,
ARM GAS  C:\cygwin\tmp\ccODIXg7.s 			page 41


 1285              	.LVL105:
 1286              		.loc 1 934 0
 1287 0052 30B1     		cbz	r0, .L124	@ tmp147,
 935:../STM32Cube_FW_F4_V1.4.0/Drivers/STM32F4xx_HAL_Driver/Src/stm32f4xx_hal_nor.c ****     {
 936:../STM32Cube_FW_F4_V1.4.0/Drivers/STM32F4xx_HAL_Driver/Src/stm32f4xx_hal_nor.c ****       return HAL_NOR_STATUS_SUCCESS;
 937:../STM32Cube_FW_F4_V1.4.0/Drivers/STM32F4xx_HAL_Driver/Src/stm32f4xx_hal_nor.c ****     }
 938:../STM32Cube_FW_F4_V1.4.0/Drivers/STM32F4xx_HAL_Driver/Src/stm32f4xx_hal_nor.c ****     if((tmpSR1 & 0x0020) == 0x0020)
 1288              		.loc 1 938 0
 1289 0054 9B06     		lsls	r3, r3, #26	@, tmpSR1,
 1290              	.LVL106:
 1291 0056 03D4     		bmi	.L130	@,
 904:../STM32Cube_FW_F4_V1.4.0/Drivers/STM32F4xx_HAL_Driver/Src/stm32f4xx_hal_nor.c ****   {
 1292              		.loc 1 904 0
 1293 0058 032C     		cmp	r4, #3	@ status,
 1294 005a DBD1     		bne	.L126	@,
 939:../STM32Cube_FW_F4_V1.4.0/Drivers/STM32F4xx_HAL_Driver/Src/stm32f4xx_hal_nor.c ****     {
 940:../STM32Cube_FW_F4_V1.4.0/Drivers/STM32F4xx_HAL_Driver/Src/stm32f4xx_hal_nor.c ****       return HAL_NOR_STATUS_ERROR;
 941:../STM32Cube_FW_F4_V1.4.0/Drivers/STM32F4xx_HAL_Driver/Src/stm32f4xx_hal_nor.c ****     } 
 942:../STM32Cube_FW_F4_V1.4.0/Drivers/STM32F4xx_HAL_Driver/Src/stm32f4xx_hal_nor.c ****   }
 943:../STM32Cube_FW_F4_V1.4.0/Drivers/STM32F4xx_HAL_Driver/Src/stm32f4xx_hal_nor.c **** 
 944:../STM32Cube_FW_F4_V1.4.0/Drivers/STM32F4xx_HAL_Driver/Src/stm32f4xx_hal_nor.c ****   /* Return the operation status */
 945:../STM32Cube_FW_F4_V1.4.0/Drivers/STM32F4xx_HAL_Driver/Src/stm32f4xx_hal_nor.c ****   return status;
 1295              		.loc 1 945 0
 1296 005c 2046     		mov	r0, r4	@ D.7895, status
 1297 005e F8BD     		pop	{r3, r4, r5, r6, r7, pc}	@
 1298              	.LVL107:
 1299              	.L130:
 940:../STM32Cube_FW_F4_V1.4.0/Drivers/STM32F4xx_HAL_Driver/Src/stm32f4xx_hal_nor.c ****     } 
 1300              		.loc 1 940 0
 1301 0060 0220     		movs	r0, #2	@ D.7895,
 1302              	.L124:
 946:../STM32Cube_FW_F4_V1.4.0/Drivers/STM32F4xx_HAL_Driver/Src/stm32f4xx_hal_nor.c **** }
 1303              		.loc 1 946 0
 1304 0062 F8BD     		pop	{r3, r4, r5, r6, r7, pc}	@
 1305              		.cfi_endproc
 1306              	.LFE140:
 1307              		.size	HAL_NOR_GetStatus, .-HAL_NOR_GetStatus
 1308              		.text
 1309              	.Letext0:
 1310              		.file 2 "c:\\program files\\gcc-arm-none-eabi-4_9-2014\\arm-none-eabi\\include\\machine\\_default_
 1311              		.file 3 "c:\\program files\\gcc-arm-none-eabi-4_9-2014\\arm-none-eabi\\include\\stdint.h"
 1312              		.file 4 "../STM32Cube_FW_F4_V1.4.0/Drivers/CMSIS/Device/ST/STM32F4xx/Include/stm32f407xx.h"
 1313              		.file 5 "../STM32Cube_FW_F4_V1.4.0/Drivers/STM32F4xx_HAL_Driver/Inc/stm32f4xx_hal_def.h"
 1314              		.file 6 "../STM32Cube_FW_F4_V1.4.0/Drivers/STM32F4xx_HAL_Driver/Inc/stm32f4xx_ll_fsmc.h"
 1315              		.file 7 "../STM32Cube_FW_F4_V1.4.0/Drivers/STM32F4xx_HAL_Driver/Inc/stm32f4xx_hal_nor.h"
 1316              		.file 8 "../STM32Cube_FW_F4_V1.4.0/Drivers/CMSIS/Include/core_cm4.h"
 1317              		.file 9 "../STM32Cube_FW_F4_V1.4.0/Drivers/STM32F4xx_HAL_Driver/Inc/stm32f4xx_hal.h"